
os.elf:     file format elf64-littleriscv


Disassembly of section .text:

0000000080200000 <_start>:
.text
.global _start
_start:
    call start_kernel
    80200000:	2bc000ef          	jal	ra,802002bc <start_kernel>

0000000080200004 <_Z4nonev>:
    for(auto hook: hooks)if(hook)hook();
    sbi::resetXTIE();
}
int none(){
    return 0;
}
    80200004:	00000513          	li	a0,0
    80200008:	00008067          	ret

000000008020000c <_Z21timerInterruptHandlerv>:
void timerInterruptHandler(){
    8020000c:	fe010113          	addi	sp,sp,-32
    80200010:	00113c23          	sd	ra,24(sp)
    80200014:	00813823          	sd	s0,16(sp)
    80200018:	00913423          	sd	s1,8(sp)
        xtie,
        xsie,
    };
    inline int ecall(int ecallId){
        register int a7 asm("a7")=ecallId;
        ExecInst(ecall);
    8020001c:	00000073          	ecall
        register int a0 asm("a0");
        return a0;
    80200020:	0005041b          	sext.w	s0,a0
    csrRead(time,time);
    80200024:	c0102673          	rdtime	a2
    {
        constexpr auto base=0x2000000l,
            mtime=base+0xbff8,
            mtimecmp=base+0x4000
            ;
        constexpr xlen_t mtimecmpOf(int hart) { return mtimecmp+hart*0x8; }
    80200028:	020047b7          	lui	a5,0x2004
    8020002c:	0034141b          	slliw	s0,s0,0x3
    80200030:	00f40433          	add	s0,s0,a5
    printf("S-Mode timer Interrupt[%d]::%ld %ld<%ld\n",cnt++,time,mtimecmp,mtime);
    80200034:	0000a797          	auipc	a5,0xa
    80200038:	fcc78793          	addi	a5,a5,-52 # 8020a000 <_ZZ21timerInterruptHandlervE3cnt>
    8020003c:	0007a583          	lw	a1,0(a5)
    auto mtime=mmio<volatile xlen_t>(platform::clint::mtime);
    80200040:	0200c737          	lui	a4,0x200c
    80200044:	ff873703          	ld	a4,-8(a4) # 200bff8 <_start-0x7e1f4008>
    printf("S-Mode timer Interrupt[%d]::%ld %ld<%ld\n",cnt++,time,mtimecmp,mtime);
    80200048:	00043683          	ld	a3,0(s0)
    8020004c:	0015881b          	addiw	a6,a1,1
    80200050:	00000517          	auipc	a0,0x0
    80200054:	7e850513          	addi	a0,a0,2024 # 80200838 <halt+0xc>
    80200058:	0107a023          	sw	a6,0(a5)
    8020005c:	6e0000ef          	jal	ra,8020073c <printf>
    mtimecmp+=TIMER_INTERVAL;
    80200060:	00043783          	ld	a5,0(s0)
    80200064:	004c5737          	lui	a4,0x4c5
    80200068:	b4070713          	addi	a4,a4,-1216 # 4c4b40 <_start-0x7fd3b4c0>
    8020006c:	00e787b3          	add	a5,a5,a4
    80200070:	00f43023          	sd	a5,0(s0)
    for(auto hook: hooks)if(hook)hook();
    80200074:	0000a497          	auipc	s1,0xa
    80200078:	fec48493          	addi	s1,s1,-20 # 8020a060 <_ZL3ctx>
    8020007c:	0000a417          	auipc	s0,0xa
    80200080:	f9440413          	addi	s0,s0,-108 # 8020a010 <_ZL5hooks>
    80200084:	00043783          	ld	a5,0(s0)
    80200088:	00840413          	addi	s0,s0,8
    8020008c:	00078463          	beqz	a5,80200094 <_Z21timerInterruptHandlerv+0x88>
    80200090:	000780e7          	jalr	a5
    80200094:	fe8498e3          	bne	s1,s0,80200084 <_Z21timerInterruptHandlerv+0x78>
        ExecInst(ecall);
    80200098:	00000073          	ecall
}
    8020009c:	01813083          	ld	ra,24(sp)
    802000a0:	01013403          	ld	s0,16(sp)
    802000a4:	00813483          	ld	s1,8(sp)
    802000a8:	02010113          	addi	sp,sp,32
    802000ac:	00008067          	ret

00000000802000b0 <_Z13uecallHandlerv>:
constexpr static syscall_t syscallPtrs[]={none,none};
void uecallHandler(){
    802000b0:	ff010113          	addi	sp,sp,-16
    802000b4:	00813023          	sd	s0,0(sp)
    register int ecallId asm("a7");
    xlen_t &rtval=ctx.x(10);
    printf("uecall [%d]\n",ecallId);
    802000b8:	0008841b          	sext.w	s0,a7
    802000bc:	00040593          	mv	a1,s0
    802000c0:	00000517          	auipc	a0,0x0
    802000c4:	7a850513          	addi	a0,a0,1960 # 80200868 <halt+0x3c>
void uecallHandler(){
    802000c8:	00113423          	sd	ra,8(sp)
    printf("uecall [%d]\n",ecallId);
    802000cc:	670000ef          	jal	ra,8020073c <printf>
    using namespace sys;
    if(ecallId<nSyscalls)rtval=syscallPtrs[ecallId]();
    802000d0:	00100793          	li	a5,1
    802000d4:	0087de63          	bge	a5,s0,802000f0 <_Z13uecallHandlerv+0x40>
    else rtval=1;
}
    802000d8:	00813083          	ld	ra,8(sp)
    802000dc:	00013403          	ld	s0,0(sp)
    else rtval=1;
    802000e0:	0000a717          	auipc	a4,0xa
    802000e4:	fcf73423          	sd	a5,-56(a4) # 8020a0a8 <_ZL3ctx+0x48>
}
    802000e8:	01010113          	addi	sp,sp,16
    802000ec:	00008067          	ret
    if(ecallId<nSyscalls)rtval=syscallPtrs[ecallId]();
    802000f0:	00000897          	auipc	a7,0x0
    802000f4:	7b888893          	addi	a7,a7,1976 # 802008a8 <_ZL11syscallPtrs>
    802000f8:	00341413          	slli	s0,s0,0x3
    802000fc:	00888433          	add	s0,a7,s0
    80200100:	00043783          	ld	a5,0(s0)
    80200104:	000780e7          	jalr	a5
}
    80200108:	00813083          	ld	ra,8(sp)
    8020010c:	00013403          	ld	s0,0(sp)
    if(ecallId<nSyscalls)rtval=syscallPtrs[ecallId]();
    80200110:	0000a797          	auipc	a5,0xa
    80200114:	f8a7bc23          	sd	a0,-104(a5) # 8020a0a8 <_ZL3ctx+0x48>
}
    80200118:	01010113          	addi	sp,sp,16
    8020011c:	00008067          	ret

0000000080200120 <straphandler>:

extern "C" void straphandler(){
    80200120:	ff010113          	addi	sp,sp,-16
    80200124:	00113423          	sd	ra,8(sp)
    80200128:	00813023          	sd	s0,0(sp)
    ptr_t sepc; csrRead(sepc,sepc);
    8020012c:	14102473          	csrr	s0,sepc
    xlen_t scause; csrRead(scause,scause);
    80200130:	142027f3          	csrr	a5,scause
    // printf("straphandler cause=[%d]%d mepc=%lx\n",isInterrupt(mcause),mcause<<1>>1,mepc);

    if(csr::mcause::isInterrupt(scause)){
    80200134:	0207ce63          	bltz	a5,80200170 <straphandler+0x50>
            // case mei: break;
            default:
                halt();
        }
    } else {
        switch(scause){
    80200138:	00700713          	li	a4,7
    8020013c:	00e78e63          	beq	a5,a4,80200158 <straphandler+0x38>
    80200140:	00800713          	li	a4,8
    80200144:	04e78663          	beq	a5,a4,80200190 <straphandler+0x70>
            using namespace csr::mcause;
            case uecall:uecallHandler();break;
            // case secall:break;
            case storeAccessFault:break;
            default:
                printf("exception\n");
    80200148:	00000517          	auipc	a0,0x0
    8020014c:	73050513          	addi	a0,a0,1840 # 80200878 <halt+0x4c>
    80200150:	5ec000ef          	jal	ra,8020073c <printf>
                halt();
    80200154:	6d8000ef          	jal	ra,8020082c <halt>
        }
        csrWrite(sepc,sepc+4);
    80200158:	00440413          	addi	s0,s0,4
    8020015c:	14141073          	csrw	sepc,s0
    }
    // printf("mtraphandler over\n");
}
    80200160:	00813083          	ld	ra,8(sp)
    80200164:	00013403          	ld	s0,0(sp)
    80200168:	01010113          	addi	sp,sp,16
    8020016c:	00008067          	ret
        switch(scause<<1>>1){
    80200170:	00179793          	slli	a5,a5,0x1
    80200174:	0017d793          	srli	a5,a5,0x1
    80200178:	00500713          	li	a4,5
    8020017c:	02e78863          	beq	a5,a4,802001ac <straphandler+0x8c>
}
    80200180:	00013403          	ld	s0,0(sp)
    80200184:	00813083          	ld	ra,8(sp)
    80200188:	01010113          	addi	sp,sp,16
                halt();
    8020018c:	6a00006f          	j	8020082c <halt>
            case uecall:uecallHandler();break;
    80200190:	f21ff0ef          	jal	ra,802000b0 <_Z13uecallHandlerv>
        csrWrite(sepc,sepc+4);
    80200194:	00440413          	addi	s0,s0,4
    80200198:	14141073          	csrw	sepc,s0
}
    8020019c:	00813083          	ld	ra,8(sp)
    802001a0:	00013403          	ld	s0,0(sp)
    802001a4:	01010113          	addi	sp,sp,16
    802001a8:	00008067          	ret
    802001ac:	00013403          	ld	s0,0(sp)
    802001b0:	00813083          	ld	ra,8(sp)
    802001b4:	01010113          	addi	sp,sp,16
            case sti: timerInterruptHandler(); break;
    802001b8:	e55ff06f          	j	8020000c <_Z21timerInterruptHandlerv>

00000000802001bc <strapwrapper>:
extern "C" __attribute__((naked)) void strapwrapper(){
    csrSwap(sscratch,t6);
    802001bc:	140f9ff3          	csrrw	t6,sscratch,t6
    saveContext();
    802001c0:	001fb023          	sd	ra,0(t6)
    802001c4:	002fb423          	sd	sp,8(t6)
    802001c8:	003fb823          	sd	gp,16(t6)
    802001cc:	004fbc23          	sd	tp,24(t6)
    802001d0:	025fb023          	sd	t0,32(t6)
    802001d4:	026fb423          	sd	t1,40(t6)
    802001d8:	027fb823          	sd	t2,48(t6)
    802001dc:	028fbc23          	sd	s0,56(t6)
    802001e0:	049fb023          	sd	s1,64(t6)
    802001e4:	04afb423          	sd	a0,72(t6)
    802001e8:	04bfb823          	sd	a1,80(t6)
    802001ec:	04cfbc23          	sd	a2,88(t6)
    802001f0:	06dfb023          	sd	a3,96(t6)
    802001f4:	06efb423          	sd	a4,104(t6)
    802001f8:	06ffb823          	sd	a5,112(t6)
    802001fc:	070fbc23          	sd	a6,120(t6)
    80200200:	091fb023          	sd	a7,128(t6)
    80200204:	092fb423          	sd	s2,136(t6)
    80200208:	093fb823          	sd	s3,144(t6)
    8020020c:	094fbc23          	sd	s4,152(t6)
    80200210:	0b5fb023          	sd	s5,160(t6)
    80200214:	0b6fb423          	sd	s6,168(t6)
    80200218:	0b7fb823          	sd	s7,176(t6)
    8020021c:	0b8fbc23          	sd	s8,184(t6)
    80200220:	0d9fb023          	sd	s9,192(t6)
    80200224:	0dafb423          	sd	s10,200(t6)
    80200228:	0dbfb823          	sd	s11,208(t6)
    8020022c:	0dcfbc23          	sd	t3,216(t6)
    80200230:	0fdfb023          	sd	t4,224(t6)
    80200234:	0fefb423          	sd	t5,232(t6)
    straphandler();
    80200238:	ee9ff0ef          	jal	ra,80200120 <straphandler>
    restoreContext();
    8020023c:	000fb083          	ld	ra,0(t6)
    80200240:	008fb103          	ld	sp,8(t6)
    80200244:	010fb183          	ld	gp,16(t6)
    80200248:	018fb203          	ld	tp,24(t6)
    8020024c:	020fb283          	ld	t0,32(t6)
    80200250:	028fb303          	ld	t1,40(t6)
    80200254:	030fb383          	ld	t2,48(t6)
    80200258:	038fb403          	ld	s0,56(t6)
    8020025c:	040fb483          	ld	s1,64(t6)
    80200260:	048fb503          	ld	a0,72(t6)
    80200264:	050fb583          	ld	a1,80(t6)
    80200268:	058fb603          	ld	a2,88(t6)
    8020026c:	060fb683          	ld	a3,96(t6)
    80200270:	068fb703          	ld	a4,104(t6)
    80200274:	070fb783          	ld	a5,112(t6)
    80200278:	078fb803          	ld	a6,120(t6)
    8020027c:	080fb883          	ld	a7,128(t6)
    80200280:	088fb903          	ld	s2,136(t6)
    80200284:	090fb983          	ld	s3,144(t6)
    80200288:	098fba03          	ld	s4,152(t6)
    8020028c:	0a0fba83          	ld	s5,160(t6)
    80200290:	0a8fbb03          	ld	s6,168(t6)
    80200294:	0b0fbb83          	ld	s7,176(t6)
    80200298:	0b8fbc03          	ld	s8,184(t6)
    8020029c:	0c0fbc83          	ld	s9,192(t6)
    802002a0:	0c8fbd03          	ld	s10,200(t6)
    802002a4:	0d0fbd83          	ld	s11,208(t6)
    802002a8:	0d8fbe03          	ld	t3,216(t6)
    802002ac:	0e0fbe83          	ld	t4,224(t6)
    802002b0:	0e8fbf03          	ld	t5,232(t6)
    csrSwap(sscratch,t6);
    802002b4:	140f9ff3          	csrrw	t6,sscratch,t6
    ExecInst(sret);
    802002b8:	10200073          	sret

00000000802002bc <start_kernel>:
// __attribute__((section("init")))
static void memInit(){
    csr::satp satp;
    satp.mode=8;
    satp.asid=0;
    satp.ppn=reinterpret_cast<xlen_t>(kernelPageTableRoot)>>12;
    802002bc:	00001797          	auipc	a5,0x1
    802002c0:	d447b783          	ld	a5,-700(a5) # 80201000 <kernelPageTableRoot>
    kernelPageTableRoot[0].ppn1=0x0;
    kernelPageTableRoot[0].perm=0xcf;
    kernelPageTableRoot[1].ppn1=0x100;
    kernelPageTableRoot[1].perm=0xcf;
    kernelPageTableRoot[2].ppn2=0x1;
    kernelPageTableRoot[2].perm=0xcf;
    802002c4:	0107b683          	ld	a3,16(a5)
    802002c8:	e0100813          	li	a6,-511
    kernelPageTableRoot[0].perm=0xcf;
    802002cc:	0007a583          	lw	a1,0(a5)
    kernelPageTableRoot[1].perm=0xcf;
    802002d0:	0087a603          	lw	a2,8(a5)
    kernelPageTableRoot[2].perm=0xcf;
    802002d4:	01d81813          	slli	a6,a6,0x1d
    802002d8:	e0080813          	addi	a6,a6,-512
    kernelPageTableRoot[0].perm=0xcf;
    802002dc:	e0100337          	lui	t1,0xe0100
    802002e0:	e0030313          	addi	t1,t1,-512 # ffffffffe00ffe00 <_ZL7out_buf+0xffffffff5fef5cb0>
    kernelPageTableRoot[2].perm=0xcf;
    802002e4:	0106f6b3          	and	a3,a3,a6

}
extern void program0();
extern "C" //__attribute__((section("init")))
void start_kernel(){
    puts=IO::_blockingputs;
    802002e8:	00000817          	auipc	a6,0x0
    802002ec:	12080813          	addi	a6,a6,288 # 80200408 <_ZN2IO13_blockingputsEPKc>
    kernelPageTableRoot[0].perm=0xcf;
    802002f0:	0065f5b3          	and	a1,a1,t1
    kernelPageTableRoot[1].perm=0xcf;
    802002f4:	00667633          	and	a2,a2,t1
    puts=IO::_blockingputs;
    802002f8:	0000a317          	auipc	t1,0xa
    802002fc:	d1033823          	sd	a6,-752(t1) # 8020a008 <puts>
    kernelPageTableRoot[1].perm=0xcf;
    80200300:	10000837          	lui	a6,0x10000
    80200304:	0cf80813          	addi	a6,a6,207 # 100000cf <_start-0x701fff31>
    80200308:	01066633          	or	a2,a2,a6
    satp.ppn=reinterpret_cast<xlen_t>(kernelPageTableRoot)>>12;
    8020030c:	fff00893          	li	a7,-1
    kernelPageTableRoot[2].perm=0xcf;
    80200310:	20000837          	lui	a6,0x20000
void start_kernel(){
    80200314:	fe010113          	addi	sp,sp,-32
    satp.ppn=reinterpret_cast<xlen_t>(kernelPageTableRoot)>>12;
    80200318:	0148de13          	srli	t3,a7,0x14
    8020031c:	00c7d713          	srli	a4,a5,0xc
    kernelPageTableRoot[2].perm=0xcf;
    80200320:	0cf80813          	addi	a6,a6,207 # 200000cf <_start-0x601fff31>
void start_kernel(){
    80200324:	00113c23          	sd	ra,24(sp)
    80200328:	00813823          	sd	s0,16(sp)
    8020032c:	00913423          	sd	s1,8(sp)
    80200330:	01213023          	sd	s2,0(sp)
    satp.ppn=reinterpret_cast<xlen_t>(kernelPageTableRoot)>>12;
    80200334:	01c77733          	and	a4,a4,t3
    80200338:	03f89893          	slli	a7,a7,0x3f
    kernelPageTableRoot[0].perm=0xcf;
    8020033c:	0cf5e593          	ori	a1,a1,207
    kernelPageTableRoot[2].perm=0xcf;
    80200340:	0106e6b3          	or	a3,a3,a6
    satp.ppn=reinterpret_cast<xlen_t>(kernelPageTableRoot)>>12;
    80200344:	01176733          	or	a4,a4,a7
    kernelPageTableRoot[0].perm=0xcf;
    80200348:	00b7a023          	sw	a1,0(a5)
    kernelPageTableRoot[1].perm=0xcf;
    8020034c:	00c7a423          	sw	a2,8(a5)
    kernelPageTableRoot[2].perm=0xcf;
    80200350:	00d7b823          	sd	a3,16(a5)
    csrWrite(satp,satp.value());
    80200354:	18071073          	csrw	satp,a4
    ExecInst(sfence.vma);
    80200358:	12000073          	sfence.vma
    memInit();
    csrWrite(sscratch,ctx.gpr);
    8020035c:	0000a797          	auipc	a5,0xa
    80200360:	d0478793          	addi	a5,a5,-764 # 8020a060 <_ZL3ctx>
    80200364:	14079073          	csrw	sscratch,a5
    csrWrite(stvec,strapwrapper);
    80200368:	00000797          	auipc	a5,0x0
    8020036c:	e5478793          	addi	a5,a5,-428 # 802001bc <strapwrapper>
    80200370:	10579073          	csrw	stvec,a5
    csrSet(sstatus,BIT(csr::mstatus::sie));
    80200374:	00200793          	li	a5,2
    80200378:	1007a073          	csrs	sstatus,a5
    csrSet(sie,BIT(csr::mie::ssie));
    8020037c:	1047a073          	csrs	sie,a5
    80200380:	00000073          	ecall
        return a0;
    80200384:	0005041b          	sext.w	s0,a0
    printf("hart=%d\n",hart);
    80200388:	00040593          	mv	a1,s0
    8020038c:	00000517          	auipc	a0,0x0
    80200390:	4fc50513          	addi	a0,a0,1276 # 80200888 <halt+0x5c>
    80200394:	3a8000ef          	jal	ra,8020073c <printf>
    mmio<xlen_t>(platform::clint::mtimecmpOf(hart))=mmio<xlen_t>(platform::clint::mtime)+TIMER_INTERVAL;
    80200398:	0200c7b7          	lui	a5,0x200c
    8020039c:	ff87b703          	ld	a4,-8(a5) # 200bff8 <_start-0x7e1f4008>
    802003a0:	0034141b          	slliw	s0,s0,0x3
    802003a4:	020047b7          	lui	a5,0x2004
    802003a8:	00878433          	add	s0,a5,s0
    802003ac:	004c57b7          	lui	a5,0x4c5
    802003b0:	b4078793          	addi	a5,a5,-1216 # 4c4b40 <_start-0x7fd3b4c0>
    802003b4:	00f70733          	add	a4,a4,a5
    802003b8:	00e43023          	sd	a4,0(s0)
    csrSet(sie,BIT(csr::mie::stie));
    802003bc:	02000793          	li	a5,32
    802003c0:	1047a073          	csrs	sie,a5
    timerInit();
    // halt();
    // while(true);
    for(int i=0;i<10;i++)
    802003c4:	00000413          	li	s0,0
        printf("%d:Hello RVOS!\n",i);
    802003c8:	00000917          	auipc	s2,0x0
    802003cc:	4d090913          	addi	s2,s2,1232 # 80200898 <halt+0x6c>
    for(int i=0;i<10;i++)
    802003d0:	00a00493          	li	s1,10
        printf("%d:Hello RVOS!\n",i);
    802003d4:	00040593          	mv	a1,s0
    802003d8:	00090513          	mv	a0,s2
    for(int i=0;i<10;i++)
    802003dc:	0014041b          	addiw	s0,s0,1
        printf("%d:Hello RVOS!\n",i);
    802003e0:	35c000ef          	jal	ra,8020073c <printf>
    for(int i=0;i<10;i++)
    802003e4:	fe9418e3          	bne	s0,s1,802003d4 <start_kernel+0x118>
    csrClear(sstatus,1l<<csr::mstatus::spp);
    802003e8:	10000793          	li	a5,256
    802003ec:	1007b073          	csrc	sstatus,a5
    halt();
    // csrWrite(sepc,program0);
    // ExecInst(sret);
    802003f0:	01013403          	ld	s0,16(sp)
    802003f4:	01813083          	ld	ra,24(sp)
    802003f8:	00813483          	ld	s1,8(sp)
    802003fc:	00013903          	ld	s2,0(sp)
    80200400:	02010113          	addi	sp,sp,32
    halt();
    80200404:	4280006f          	j	8020082c <halt>

0000000080200408 <_ZN2IO13_blockingputsEPKc>:
static ringbuf<char> buf;

class IO{
public:
  inline static void _blockingputs(const char *s){
    while(*s)platform::uart0::blocking::putc(*s++);
    80200408:	00054783          	lbu	a5,0(a0)
    8020040c:	02078663          	beqz	a5,80200438 <_ZN2IO13_blockingputsEPKc+0x30>
                while(!mmio<lsr>(reg(LSR)).txidle);
    80200410:	10000737          	lui	a4,0x10000
    80200414:	00574703          	lbu	a4,5(a4) # 10000005 <_start-0x701ffffb>
                mmio<char>(reg(THR))=c;
    80200418:	100006b7          	lui	a3,0x10000
                while(!mmio<lsr>(reg(LSR)).txidle);
    8020041c:	02077713          	andi	a4,a4,32
    80200420:	00150513          	addi	a0,a0,1
    80200424:	00071463          	bnez	a4,8020042c <_ZN2IO13_blockingputsEPKc+0x24>
    80200428:	0000006f          	j	80200428 <_ZN2IO13_blockingputsEPKc+0x20>
                mmio<char>(reg(THR))=c;
    8020042c:	00f68023          	sb	a5,0(a3) # 10000000 <_start-0x70200000>
    80200430:	00054783          	lbu	a5,0(a0)
    80200434:	fe0796e3          	bnez	a5,80200420 <_ZN2IO13_blockingputsEPKc+0x18>
  }
    80200438:	00008067          	ret

000000008020043c <_Z8program0v>:
        one,
        nSyscalls,
    };
    inline int syscall(int id){
        register int a7 asm("a7")=id;
        ExecInst(ecall);
    8020043c:	00000073          	ecall
#include "../include/kernel.hh"

void program0(){
    while(true){
        sys::syscall(0);
        ExecInst(wfi);
    80200440:	10500073          	wfi
    while(true){
    80200444:	ff9ff06f          	j	8020043c <_Z8program0v>

0000000080200448 <_Z8program1v>:
    80200448:	ff010113          	addi	sp,sp,-16
    8020044c:	00113423          	sd	ra,8(sp)
    80200450:	fedff0ef          	jal	ra,8020043c <_Z8program0v>

0000000080200454 <_vsnprintf>:
static int _vsnprintf(char * out, size_t n, const char* s, va_list vl)
{
	int format = 0;
	int longarg = 0;
	size_t pos = 0;
	for (; *s; s++) {
    80200454:	00064783          	lbu	a5,0(a2)
{
    80200458:	00050813          	mv	a6,a0
	for (; *s; s++) {
    8020045c:	2a078663          	beqz	a5,80200708 <_vsnprintf+0x2b4>
{
    80200460:	fd010113          	addi	sp,sp,-48
    80200464:	02813423          	sd	s0,40(sp)
    80200468:	02913023          	sd	s1,32(sp)
    8020046c:	01213c23          	sd	s2,24(sp)
    80200470:	01313823          	sd	s3,16(sp)
    80200474:	01413423          	sd	s4,8(sp)
	size_t pos = 0;
    80200478:	00000713          	li	a4,0
	int longarg = 0;
    8020047c:	00000893          	li	a7,0
	int format = 0;
    80200480:	00000513          	li	a0,0
				break;
			}
			default:
				break;
			}
		} else if (*s == '%') {
    80200484:	02500f13          	li	t5,37
    80200488:	01500e93          	li	t4,21
    8020048c:	00000317          	auipc	t1,0x0
    80200490:	42c30313          	addi	t1,t1,1068 # 802008b8 <_ZL11syscallPtrs+0x10>
				for (long nn = num; nn /= 10; digits++);
    80200494:	00a00e13          	li	t3,10
						out[pos] = '-';
    80200498:	02d00413          	li	s0,45
						out[pos] = (d < 10 ? '0'+d : 'a'+d-10);
    8020049c:	00900f93          	li	t6,9
					out[pos] = 'x';
    802004a0:	07800393          	li	t2,120
					out[pos] = '0';
    802004a4:	03000293          	li	t0,48
		if (format) {
    802004a8:	04051e63          	bnez	a0,80200504 <_vsnprintf+0xb0>
		} else if (*s == '%') {
    802004ac:	1fe78c63          	beq	a5,t5,802006a4 <_vsnprintf+0x250>
			format = 1;
		} else {
			if (out && pos < n) {
    802004b0:	00080863          	beqz	a6,802004c0 <_vsnprintf+0x6c>
    802004b4:	00b77663          	bgeu	a4,a1,802004c0 <_vsnprintf+0x6c>
				out[pos] = *s;
    802004b8:	00e804b3          	add	s1,a6,a4
    802004bc:	00f48023          	sb	a5,0(s1)
			}
			pos++;
    802004c0:	00170713          	addi	a4,a4,1
	for (; *s; s++) {
    802004c4:	00164783          	lbu	a5,1(a2)
    802004c8:	00160613          	addi	a2,a2,1
    802004cc:	fc079ee3          	bnez	a5,802004a8 <_vsnprintf+0x54>
    802004d0:	0007051b          	sext.w	a0,a4
		}
    	}
	if (out && pos < n) {
    802004d4:	00080a63          	beqz	a6,802004e8 <_vsnprintf+0x94>
    802004d8:	1cb76a63          	bltu	a4,a1,802006ac <_vsnprintf+0x258>
		out[pos] = 0;
	} else if (out && n) {
    802004dc:	00058663          	beqz	a1,802004e8 <_vsnprintf+0x94>
		out[n-1] = 0;
    802004e0:	00b80733          	add	a4,a6,a1
    802004e4:	fe070fa3          	sb	zero,-1(a4)
	}
	return pos;
}
    802004e8:	02813403          	ld	s0,40(sp)
    802004ec:	02013483          	ld	s1,32(sp)
    802004f0:	01813903          	ld	s2,24(sp)
    802004f4:	01013983          	ld	s3,16(sp)
    802004f8:	00813a03          	ld	s4,8(sp)
    802004fc:	03010113          	addi	sp,sp,48
    80200500:	00008067          	ret
			switch(*s) {
    80200504:	f9d7879b          	addiw	a5,a5,-99
    80200508:	0ff7f793          	andi	a5,a5,255
    8020050c:	fafeece3          	bltu	t4,a5,802004c4 <_vsnprintf+0x70>
    80200510:	00279793          	slli	a5,a5,0x2
    80200514:	006787b3          	add	a5,a5,t1
    80200518:	0007a783          	lw	a5,0(a5)
    8020051c:	006787b3          	add	a5,a5,t1
    80200520:	00078067          	jr	a5
		if (format) {
    80200524:	00050893          	mv	a7,a0
    80200528:	f9dff06f          	j	802004c4 <_vsnprintf+0x70>
				long num = longarg ? va_arg(vl, long) : va_arg(vl, int);
    8020052c:	00868913          	addi	s2,a3,8
    80200530:	1a088a63          	beqz	a7,802006e4 <_vsnprintf+0x290>
    80200534:	0006b683          	ld	a3,0(a3)
				if (num < 0) {
    80200538:	1a06ca63          	bltz	a3,802006ec <_vsnprintf+0x298>
				for (long nn = num; nn /= 10; digits++);
    8020053c:	03c6c7b3          	div	a5,a3,t3
				long digits = 1;
    80200540:	00100513          	li	a0,1
				for (long nn = num; nn /= 10; digits++);
    80200544:	1e078863          	beqz	a5,80200734 <_vsnprintf+0x2e0>
    80200548:	03c7c7b3          	div	a5,a5,t3
    8020054c:	00150513          	addi	a0,a0,1
    80200550:	fe079ce3          	bnez	a5,80200548 <_vsnprintf+0xf4>
				for (int i = digits-1; i >= 0; i--) {
    80200554:	fff5079b          	addiw	a5,a0,-1
    80200558:	0207c863          	bltz	a5,80200588 <_vsnprintf+0x134>
					if (out && pos + i < n) {
    8020055c:	00080e63          	beqz	a6,80200578 <_vsnprintf+0x124>
    80200560:	00f708b3          	add	a7,a4,a5
    80200564:	00b8fa63          	bgeu	a7,a1,80200578 <_vsnprintf+0x124>
						out[pos + i] = '0' + (num % 10);
    80200568:	03c6e4b3          	rem	s1,a3,t3
    8020056c:	011808b3          	add	a7,a6,a7
    80200570:	0304849b          	addiw	s1,s1,48
    80200574:	00988023          	sb	s1,0(a7)
					num /= 10;
    80200578:	fff78793          	addi	a5,a5,-1
				for (int i = digits-1; i >= 0; i--) {
    8020057c:	02079893          	slli	a7,a5,0x20
					num /= 10;
    80200580:	03c6c6b3          	div	a3,a3,t3
				for (int i = digits-1; i >= 0; i--) {
    80200584:	fc08dce3          	bgez	a7,8020055c <_vsnprintf+0x108>
				pos += digits;
    80200588:	00a70733          	add	a4,a4,a0
				break;
    8020058c:	00090693          	mv	a3,s2
				longarg = 0;
    80200590:	00000893          	li	a7,0
				format = 0;
    80200594:	00000513          	li	a0,0
				break;
    80200598:	f2dff06f          	j	802004c4 <_vsnprintf+0x70>
				if (out && pos < n) {
    8020059c:	00080c63          	beqz	a6,802005b4 <_vsnprintf+0x160>
    802005a0:	00b77a63          	bgeu	a4,a1,802005b4 <_vsnprintf+0x160>
					out[pos] = (char)va_arg(vl,int);
    802005a4:	0006a503          	lw	a0,0(a3)
    802005a8:	00e807b3          	add	a5,a6,a4
    802005ac:	00868693          	addi	a3,a3,8
    802005b0:	00a78023          	sb	a0,0(a5)
				pos++;
    802005b4:	00170713          	addi	a4,a4,1
				longarg = 0;
    802005b8:	00000893          	li	a7,0
				format = 0;
    802005bc:	00000513          	li	a0,0
				break;
    802005c0:	f05ff06f          	j	802004c4 <_vsnprintf+0x70>
				long num = longarg ? va_arg(vl, long) : va_arg(vl, int);
    802005c4:	00868793          	addi	a5,a3,8
    802005c8:	10089463          	bnez	a7,802006d0 <_vsnprintf+0x27c>
    802005cc:	0006aa03          	lw	s4,0(a3)
    802005d0:	00070513          	mv	a0,a4
    802005d4:	00078693          	mv	a3,a5
				int hexdigits = 2*(longarg ? sizeof(long) : sizeof(int))-1;
    802005d8:	00700713          	li	a4,7
				for(int i = hexdigits; i >= 0; i--) {
    802005dc:	00e509bb          	addw	s3,a0,a4
    802005e0:	00150793          	addi	a5,a0,1
    802005e4:	00e78733          	add	a4,a5,a4
    802005e8:	0029999b          	slliw	s3,s3,0x2
					if (out && pos < n) {
    802005ec:	02080663          	beqz	a6,80200618 <_vsnprintf+0x1c4>
    802005f0:	02b57463          	bgeu	a0,a1,80200618 <_vsnprintf+0x1c4>
					int d = (num >> (4*i)) & 0xF;
    802005f4:	0025189b          	slliw	a7,a0,0x2
    802005f8:	411988bb          	subw	a7,s3,a7
    802005fc:	411a58b3          	sra	a7,s4,a7
    80200600:	00f8f913          	andi	s2,a7,15
						out[pos] = (d < 10 ? '0'+d : 'a'+d-10);
    80200604:	05790493          	addi	s1,s2,87
    80200608:	012fc463          	blt	t6,s2,80200610 <_vsnprintf+0x1bc>
    8020060c:	03090493          	addi	s1,s2,48
    80200610:	00a80533          	add	a0,a6,a0
    80200614:	00950023          	sb	s1,0(a0)
					pos++;
    80200618:	00078513          	mv	a0,a5
				for(int i = hexdigits; i >= 0; i--) {
    8020061c:	04e78463          	beq	a5,a4,80200664 <_vsnprintf+0x210>
    80200620:	00178793          	addi	a5,a5,1
    80200624:	fc9ff06f          	j	802005ec <_vsnprintf+0x198>
				const char* s2 = va_arg(vl, const char*);
    80200628:	0006b883          	ld	a7,0(a3)
    8020062c:	00868693          	addi	a3,a3,8
				while (*s2) {
    80200630:	0008c503          	lbu	a0,0(a7)
    80200634:	02050863          	beqz	a0,80200664 <_vsnprintf+0x210>
    80200638:	00070793          	mv	a5,a4
					if (out && pos < n) {
    8020063c:	00080863          	beqz	a6,8020064c <_vsnprintf+0x1f8>
    80200640:	00b7f663          	bgeu	a5,a1,8020064c <_vsnprintf+0x1f8>
						out[pos] = *s2;
    80200644:	00f804b3          	add	s1,a6,a5
    80200648:	00a48023          	sb	a0,0(s1)
					pos++;
    8020064c:	00178793          	addi	a5,a5,1
				while (*s2) {
    80200650:	40e78533          	sub	a0,a5,a4
    80200654:	00a88533          	add	a0,a7,a0
    80200658:	00054503          	lbu	a0,0(a0)
    8020065c:	fe0510e3          	bnez	a0,8020063c <_vsnprintf+0x1e8>
					pos++;
    80200660:	00078713          	mv	a4,a5
				longarg = 0;
    80200664:	00000893          	li	a7,0
				format = 0;
    80200668:	00000513          	li	a0,0
    8020066c:	e59ff06f          	j	802004c4 <_vsnprintf+0x70>
				if (out && pos < n) {
    80200670:	02080063          	beqz	a6,80200690 <_vsnprintf+0x23c>
    80200674:	00b77663          	bgeu	a4,a1,80200680 <_vsnprintf+0x22c>
					out[pos] = '0';
    80200678:	00e807b3          	add	a5,a6,a4
    8020067c:	00578023          	sb	t0,0(a5)
				pos++;
    80200680:	00170793          	addi	a5,a4,1
				if (out && pos < n) {
    80200684:	00b7f663          	bgeu	a5,a1,80200690 <_vsnprintf+0x23c>
					out[pos] = 'x';
    80200688:	00f807b3          	add	a5,a6,a5
    8020068c:	00778023          	sb	t2,0(a5)
				long num = longarg ? va_arg(vl, long) : va_arg(vl, int);
    80200690:	0006ba03          	ld	s4,0(a3)
				pos++;
    80200694:	00270513          	addi	a0,a4,2
				long num = longarg ? va_arg(vl, long) : va_arg(vl, int);
    80200698:	00868693          	addi	a3,a3,8
				int hexdigits = 2*(longarg ? sizeof(long) : sizeof(int))-1;
    8020069c:	00f00713          	li	a4,15
    802006a0:	f3dff06f          	j	802005dc <_vsnprintf+0x188>
			format = 1;
    802006a4:	00100513          	li	a0,1
    802006a8:	e1dff06f          	j	802004c4 <_vsnprintf+0x70>
		out[pos] = 0;
    802006ac:	00e80733          	add	a4,a6,a4
    802006b0:	00070023          	sb	zero,0(a4)
}
    802006b4:	02813403          	ld	s0,40(sp)
    802006b8:	02013483          	ld	s1,32(sp)
    802006bc:	01813903          	ld	s2,24(sp)
    802006c0:	01013983          	ld	s3,16(sp)
    802006c4:	00813a03          	ld	s4,8(sp)
    802006c8:	03010113          	addi	sp,sp,48
    802006cc:	00008067          	ret
				long num = longarg ? va_arg(vl, long) : va_arg(vl, int);
    802006d0:	0006ba03          	ld	s4,0(a3)
				int hexdigits = 2*(longarg ? sizeof(long) : sizeof(int))-1;
    802006d4:	00070513          	mv	a0,a4
				long num = longarg ? va_arg(vl, long) : va_arg(vl, int);
    802006d8:	00078693          	mv	a3,a5
				int hexdigits = 2*(longarg ? sizeof(long) : sizeof(int))-1;
    802006dc:	00f00713          	li	a4,15
    802006e0:	efdff06f          	j	802005dc <_vsnprintf+0x188>
				long num = longarg ? va_arg(vl, long) : va_arg(vl, int);
    802006e4:	0006a683          	lw	a3,0(a3)
				if (num < 0) {
    802006e8:	e406dae3          	bgez	a3,8020053c <_vsnprintf+0xe8>
					num = -num;
    802006ec:	40d006b3          	neg	a3,a3
					if (out && pos < n) {
    802006f0:	00080863          	beqz	a6,80200700 <_vsnprintf+0x2ac>
    802006f4:	00b77663          	bgeu	a4,a1,80200700 <_vsnprintf+0x2ac>
						out[pos] = '-';
    802006f8:	00e807b3          	add	a5,a6,a4
    802006fc:	00878023          	sb	s0,0(a5)
					pos++;
    80200700:	00170713          	addi	a4,a4,1
    80200704:	e39ff06f          	j	8020053c <_vsnprintf+0xe8>
	for (; *s; s++) {
    80200708:	00000513          	li	a0,0
	size_t pos = 0;
    8020070c:	00000713          	li	a4,0
	if (out && pos < n) {
    80200710:	02080063          	beqz	a6,80200730 <_vsnprintf+0x2dc>
    80200714:	00b77863          	bgeu	a4,a1,80200724 <_vsnprintf+0x2d0>
		out[pos] = 0;
    80200718:	00e80733          	add	a4,a6,a4
    8020071c:	00070023          	sb	zero,0(a4)
    80200720:	00008067          	ret
	} else if (out && n) {
    80200724:	00058663          	beqz	a1,80200730 <_vsnprintf+0x2dc>
		out[n-1] = 0;
    80200728:	00b80733          	add	a4,a6,a1
    8020072c:	fe070fa3          	sb	zero,-1(a4)
}
    80200730:	00008067          	ret
				for (int i = digits-1; i >= 0; i--) {
    80200734:	00000793          	li	a5,0
    80200738:	e25ff06f          	j	8020055c <_vsnprintf+0x108>

000000008020073c <printf>:
	puts(out_buf);
	return res;
}

int printf(const char* s, ...)
{
    8020073c:	f9010113          	addi	sp,sp,-112
    80200740:	01213823          	sd	s2,16(sp)
	int res = 0;
	va_list vl;
	va_start(vl, s);
    80200744:	03810913          	addi	s2,sp,56
{
    80200748:	00913c23          	sd	s1,24(sp)
    8020074c:	02b13c23          	sd	a1,56(sp)
    80200750:	04c13023          	sd	a2,64(sp)
    80200754:	04d13423          	sd	a3,72(sp)
	int res = _vsnprintf(NULL, -1, s, vl);
    80200758:	00050613          	mv	a2,a0
    8020075c:	fff00593          	li	a1,-1
{
    80200760:	00050493          	mv	s1,a0
	int res = _vsnprintf(NULL, -1, s, vl);
    80200764:	00090693          	mv	a3,s2
    80200768:	00000513          	li	a0,0
{
    8020076c:	04f13c23          	sd	a5,88(sp)
    80200770:	02113423          	sd	ra,40(sp)
    80200774:	02813023          	sd	s0,32(sp)
    80200778:	04e13823          	sd	a4,80(sp)
    8020077c:	07013023          	sd	a6,96(sp)
    80200780:	07113423          	sd	a7,104(sp)
	va_start(vl, s);
    80200784:	01213423          	sd	s2,8(sp)
	int res = _vsnprintf(NULL, -1, s, vl);
    80200788:	ccdff0ef          	jal	ra,80200454 <_vsnprintf>
	if (res+1 >= sizeof(out_buf)) {
    8020078c:	0015059b          	addiw	a1,a0,1
    80200790:	3e700793          	li	a5,999
    80200794:	00b7fe63          	bgeu	a5,a1,802007b0 <printf+0x74>
		puts("error: output string size overflow\n");
    80200798:	00000517          	auipc	a0,0x0
    8020079c:	17850513          	addi	a0,a0,376 # 80200910 <_ZL11syscallPtrs+0x68>
    802007a0:	0000a797          	auipc	a5,0xa
    802007a4:	8687b783          	ld	a5,-1944(a5) # 8020a008 <puts>
    802007a8:	000780e7          	jalr	a5
		while(1) {}
    802007ac:	0000006f          	j	802007ac <printf+0x70>
	_vsnprintf(out_buf, res + 1, s, vl);
    802007b0:	00050413          	mv	s0,a0
    802007b4:	00090693          	mv	a3,s2
    802007b8:	00048613          	mv	a2,s1
    802007bc:	0000a517          	auipc	a0,0xa
    802007c0:	99450513          	addi	a0,a0,-1644 # 8020a150 <_ZL7out_buf>
    802007c4:	c91ff0ef          	jal	ra,80200454 <_vsnprintf>
	puts(out_buf);
    802007c8:	0000a517          	auipc	a0,0xa
    802007cc:	98850513          	addi	a0,a0,-1656 # 8020a150 <_ZL7out_buf>
    802007d0:	0000a797          	auipc	a5,0xa
    802007d4:	8387b783          	ld	a5,-1992(a5) # 8020a008 <puts>
    802007d8:	000780e7          	jalr	a5
	res = _vprintf(s, vl);
	va_end(vl);
	return res;
}
    802007dc:	02813083          	ld	ra,40(sp)
    802007e0:	00040513          	mv	a0,s0
    802007e4:	02013403          	ld	s0,32(sp)
    802007e8:	01813483          	ld	s1,24(sp)
    802007ec:	01013903          	ld	s2,16(sp)
    802007f0:	07010113          	addi	sp,sp,112
    802007f4:	00008067          	ret

00000000802007f8 <panic>:

void panic(char *s)
{
    802007f8:	ff010113          	addi	sp,sp,-16
    802007fc:	00813023          	sd	s0,0(sp)
    80200800:	00050413          	mv	s0,a0
	printf("panic: ");
    80200804:	00000517          	auipc	a0,0x0
    80200808:	13450513          	addi	a0,a0,308 # 80200938 <_ZL11syscallPtrs+0x90>
{
    8020080c:	00113423          	sd	ra,8(sp)
	printf("panic: ");
    80200810:	f2dff0ef          	jal	ra,8020073c <printf>
	printf(s);
    80200814:	00040513          	mv	a0,s0
    80200818:	f25ff0ef          	jal	ra,8020073c <printf>
	printf("\n");
    8020081c:	00000517          	auipc	a0,0x0
    80200820:	12450513          	addi	a0,a0,292 # 80200940 <_ZL11syscallPtrs+0x98>
    80200824:	f19ff0ef          	jal	ra,8020073c <printf>
	while(1){};
    80200828:	0000006f          	j	80200828 <panic+0x30>

000000008020082c <halt>:
}
void halt(){
	while(1)asm("wfi");
    8020082c:	10500073          	wfi
    80200830:	ffdff06f          	j	8020082c <halt>

Disassembly of section .pagetable:

0000000080201008 <kernelPageTableRootPage-0xff8>:
	...

0000000080202000 <kernelPageTableRootPage>:
	...
