
os.elf:     file format elf64-littleriscv


Disassembly of section .text:

0000000080200000 <_start>:
.text
.global _start
_start:
    call start_kernel
    80200000:	2bc000ef          	jal	ra,802002bc <start_kernel>

0000000080200004 <_Z4nonev>:
    for(auto hook: hooks)if(hook)hook();
    sbi::resetXTIE();
}
int none(){
    return 0;
}
    80200004:	00000513          	li	a0,0
    80200008:	00008067          	ret

000000008020000c <_Z21timerInterruptHandlerv>:
void timerInterruptHandler(){
    8020000c:	fe010113          	addi	sp,sp,-32
    80200010:	00113c23          	sd	ra,24(sp)
    80200014:	00813823          	sd	s0,16(sp)
    80200018:	00913423          	sd	s1,8(sp)
        xtie,
        xsie,
    };
    inline int ecall(int ecallId){
        register int a7 asm("a7")=ecallId;
        ExecInst(ecall);
    8020001c:	00000073          	ecall
        register int a0 asm("a0");
        return a0;
    80200020:	0005041b          	sext.w	s0,a0
    csrRead(time,time);
    80200024:	c0102673          	rdtime	a2
    {
        constexpr auto base=0x2000000l,
            mtime=base+0xbff8,
            mtimecmp=base+0x4000
            ;
        constexpr xlen_t mtimecmpOf(int hart) { return mtimecmp+hart*0x8; }
    80200028:	020047b7          	lui	a5,0x2004
    8020002c:	0034141b          	slliw	s0,s0,0x3
    80200030:	00f40433          	add	s0,s0,a5
    printf("S-Mode timer Interrupt[%d]::%ld %ld<%ld\n",cnt++,time,mtimecmp,mtime);
    80200034:	0000a797          	auipc	a5,0xa
    80200038:	fcc78793          	addi	a5,a5,-52 # 8020a000 <_ZZ21timerInterruptHandlervE3cnt>
    8020003c:	0007a583          	lw	a1,0(a5)
    auto mtime=mmio<volatile xlen_t>(platform::clint::mtime);
    80200040:	0200c737          	lui	a4,0x200c
    80200044:	ff873703          	ld	a4,-8(a4) # 200bff8 <_start-0x7e1f4008>
    printf("S-Mode timer Interrupt[%d]::%ld %ld<%ld\n",cnt++,time,mtimecmp,mtime);
    80200048:	00043683          	ld	a3,0(s0)
    8020004c:	0015881b          	addiw	a6,a1,1
    80200050:	00000517          	auipc	a0,0x0
    80200054:	7e850513          	addi	a0,a0,2024 # 80200838 <halt+0xc>
    80200058:	0107a023          	sw	a6,0(a5)
    8020005c:	6e0000ef          	jal	ra,8020073c <printf>
    mtimecmp+=TIMER_INTERVAL;
    80200060:	00043783          	ld	a5,0(s0)
    80200064:	004c5737          	lui	a4,0x4c5
    80200068:	b4070713          	addi	a4,a4,-1216 # 4c4b40 <_start-0x7fd3b4c0>
    8020006c:	00e787b3          	add	a5,a5,a4
    80200070:	00f43023          	sd	a5,0(s0)
    for(auto hook: hooks)if(hook)hook();
    80200074:	0000a497          	auipc	s1,0xa
    80200078:	fec48493          	addi	s1,s1,-20 # 8020a060 <_ZL3ctx>
    8020007c:	0000a417          	auipc	s0,0xa
    80200080:	f9440413          	addi	s0,s0,-108 # 8020a010 <_ZL5hooks>
    80200084:	00043783          	ld	a5,0(s0)
    80200088:	00840413          	addi	s0,s0,8
    8020008c:	00078463          	beqz	a5,80200094 <_Z21timerInterruptHandlerv+0x88>
    80200090:	000780e7          	jalr	a5
    80200094:	fe8498e3          	bne	s1,s0,80200084 <_Z21timerInterruptHandlerv+0x78>
        ExecInst(ecall);
    80200098:	00000073          	ecall
}
    8020009c:	01813083          	ld	ra,24(sp)
    802000a0:	01013403          	ld	s0,16(sp)
    802000a4:	00813483          	ld	s1,8(sp)
    802000a8:	02010113          	addi	sp,sp,32
    802000ac:	00008067          	ret

00000000802000b0 <_Z13uecallHandlerv>:
constexpr static syscall_t syscallPtrs[]={none,none};
void uecallHandler(){
    802000b0:	ff010113          	addi	sp,sp,-16
    802000b4:	00813023          	sd	s0,0(sp)
    register int ecallId asm("a7");
    xlen_t &rtval=ctx.x(10);
    printf("uecall [%d]\n",ecallId);
    802000b8:	0008841b          	sext.w	s0,a7
    802000bc:	00040593          	mv	a1,s0
    802000c0:	00000517          	auipc	a0,0x0
    802000c4:	7a850513          	addi	a0,a0,1960 # 80200868 <halt+0x3c>
void uecallHandler(){
    802000c8:	00113423          	sd	ra,8(sp)
    printf("uecall [%d]\n",ecallId);
    802000cc:	670000ef          	jal	ra,8020073c <printf>
    using namespace sys;
    if(ecallId<nSyscalls)rtval=syscallPtrs[ecallId]();
    802000d0:	00100793          	li	a5,1
    802000d4:	0087de63          	bge	a5,s0,802000f0 <_Z13uecallHandlerv+0x40>
    else rtval=1;
}
    802000d8:	00813083          	ld	ra,8(sp)
    802000dc:	00013403          	ld	s0,0(sp)
    else rtval=1;
    802000e0:	0000a717          	auipc	a4,0xa
    802000e4:	fcf73423          	sd	a5,-56(a4) # 8020a0a8 <_ZL3ctx+0x48>
}
    802000e8:	01010113          	addi	sp,sp,16
    802000ec:	00008067          	ret
    if(ecallId<nSyscalls)rtval=syscallPtrs[ecallId]();
    802000f0:	00000897          	auipc	a7,0x0
    802000f4:	7b888893          	addi	a7,a7,1976 # 802008a8 <_ZL11syscallPtrs>
    802000f8:	00341413          	slli	s0,s0,0x3
    802000fc:	00888433          	add	s0,a7,s0
    80200100:	00043783          	ld	a5,0(s0)
    80200104:	000780e7          	jalr	a5
}
    80200108:	00813083          	ld	ra,8(sp)
    8020010c:	00013403          	ld	s0,0(sp)
    if(ecallId<nSyscalls)rtval=syscallPtrs[ecallId]();
    80200110:	0000a797          	auipc	a5,0xa
    80200114:	f8a7bc23          	sd	a0,-104(a5) # 8020a0a8 <_ZL3ctx+0x48>
}
    80200118:	01010113          	addi	sp,sp,16
    8020011c:	00008067          	ret

0000000080200120 <straphandler>:

extern "C" void straphandler(){
    80200120:	ff010113          	addi	sp,sp,-16
    80200124:	00113423          	sd	ra,8(sp)
    80200128:	00813023          	sd	s0,0(sp)
    ptr_t sepc; csrRead(sepc,sepc);
    8020012c:	14102473          	csrr	s0,sepc
    xlen_t scause; csrRead(scause,scause);
    80200130:	142027f3          	csrr	a5,scause
    // printf("straphandler cause=[%d]%d mepc=%lx\n",isInterrupt(mcause),mcause<<1>>1,mepc);

    if(csr::mcause::isInterrupt(scause)){
    80200134:	0207ce63          	bltz	a5,80200170 <straphandler+0x50>
            // case mei: break;
            default:
                halt();
        }
    } else {
        switch(scause){
    80200138:	00700713          	li	a4,7
    8020013c:	00e78e63          	beq	a5,a4,80200158 <straphandler+0x38>
    80200140:	00800713          	li	a4,8
    80200144:	04e78663          	beq	a5,a4,80200190 <straphandler+0x70>
            using namespace csr::mcause;
            case uecall:uecallHandler();break;
            // case secall:break;
            case storeAccessFault:break;
            default:
                printf("exception\n");
    80200148:	00000517          	auipc	a0,0x0
    8020014c:	73050513          	addi	a0,a0,1840 # 80200878 <halt+0x4c>
    80200150:	5ec000ef          	jal	ra,8020073c <printf>
                halt();
    80200154:	6d8000ef          	jal	ra,8020082c <halt>
        }
        csrWrite(sepc,sepc+4);
    80200158:	00440413          	addi	s0,s0,4
    8020015c:	14141073          	csrw	sepc,s0
    }
    // printf("mtraphandler over\n");
}
    80200160:	00813083          	ld	ra,8(sp)
    80200164:	00013403          	ld	s0,0(sp)
    80200168:	01010113          	addi	sp,sp,16
    8020016c:	00008067          	ret
        switch(scause<<1>>1){
    80200170:	00179793          	slli	a5,a5,0x1
    80200174:	0017d793          	srli	a5,a5,0x1
    80200178:	00500713          	li	a4,5
    8020017c:	02e78863          	beq	a5,a4,802001ac <straphandler+0x8c>
}
    80200180:	00013403          	ld	s0,0(sp)
    80200184:	00813083          	ld	ra,8(sp)
    80200188:	01010113          	addi	sp,sp,16
                halt();
    8020018c:	6a00006f          	j	8020082c <halt>
            case uecall:uecallHandler();break;
    80200190:	f21ff0ef          	jal	ra,802000b0 <_Z13uecallHandlerv>
        csrWrite(sepc,sepc+4);
    80200194:	00440413          	addi	s0,s0,4
    80200198:	14141073          	csrw	sepc,s0
}
    8020019c:	00813083          	ld	ra,8(sp)
    802001a0:	00013403          	ld	s0,0(sp)
    802001a4:	01010113          	addi	sp,sp,16
    802001a8:	00008067          	ret
    802001ac:	00013403          	ld	s0,0(sp)
    802001b0:	00813083          	ld	ra,8(sp)
    802001b4:	01010113          	addi	sp,sp,16
            case sti: timerInterruptHandler(); break;
    802001b8:	e55ff06f          	j	8020000c <_Z21timerInterruptHandlerv>

00000000802001bc <strapwrapper>:
extern "C" __attribute__((naked)) void strapwrapper(){
    csrSwap(sscratch,t6);
    802001bc:	140f9ff3          	csrrw	t6,sscratch,t6
    saveContext();
    802001c0:	001fb023          	sd	ra,0(t6)
    802001c4:	002fb423          	sd	sp,8(t6)
    802001c8:	003fb823          	sd	gp,16(t6)
    802001cc:	004fbc23          	sd	tp,24(t6)
    802001d0:	025fb023          	sd	t0,32(t6)
    802001d4:	026fb423          	sd	t1,40(t6)
    802001d8:	027fb823          	sd	t2,48(t6)
    802001dc:	028fbc23          	sd	s0,56(t6)
    802001e0:	049fb023          	sd	s1,64(t6)
    802001e4:	04afb423          	sd	a0,72(t6)
    802001e8:	04bfb823          	sd	a1,80(t6)
    802001ec:	04cfbc23          	sd	a2,88(t6)
    802001f0:	06dfb023          	sd	a3,96(t6)
    802001f4:	06efb423          	sd	a4,104(t6)
    802001f8:	06ffb823          	sd	a5,112(t6)
    802001fc:	070fbc23          	sd	a6,120(t6)
    80200200:	091fb023          	sd	a7,128(t6)
    80200204:	092fb423          	sd	s2,136(t6)
    80200208:	093fb823          	sd	s3,144(t6)
    8020020c:	094fbc23          	sd	s4,152(t6)
    80200210:	0b5fb023          	sd	s5,160(t6)
    80200214:	0b6fb423          	sd	s6,168(t6)
    80200218:	0b7fb823          	sd	s7,176(t6)
    8020021c:	0b8fbc23          	sd	s8,184(t6)
    80200220:	0d9fb023          	sd	s9,192(t6)
    80200224:	0dafb423          	sd	s10,200(t6)
    80200228:	0dbfb823          	sd	s11,208(t6)
    8020022c:	0dcfbc23          	sd	t3,216(t6)
    80200230:	0fdfb023          	sd	t4,224(t6)
    80200234:	0fefb423          	sd	t5,232(t6)
    straphandler();
    80200238:	ee9ff0ef          	jal	ra,80200120 <straphandler>
    restoreContext();
    8020023c:	000fb083          	ld	ra,0(t6)
    80200240:	008fb103          	ld	sp,8(t6)
    80200244:	010fb183          	ld	gp,16(t6)
    80200248:	018fb203          	ld	tp,24(t6)
    8020024c:	020fb283          	ld	t0,32(t6)
    80200250:	028fb303          	ld	t1,40(t6)
    80200254:	030fb383          	ld	t2,48(t6)
    80200258:	038fb403          	ld	s0,56(t6)
    8020025c:	040fb483          	ld	s1,64(t6)
    80200260:	048fb503          	ld	a0,72(t6)
    80200264:	050fb583          	ld	a1,80(t6)
    80200268:	058fb603          	ld	a2,88(t6)
    8020026c:	060fb683          	ld	a3,96(t6)
    80200270:	068fb703          	ld	a4,104(t6)
    80200274:	070fb783          	ld	a5,112(t6)
    80200278:	078fb803          	ld	a6,120(t6)
    8020027c:	080fb883          	ld	a7,128(t6)
    80200280:	088fb903          	ld	s2,136(t6)
    80200284:	090fb983          	ld	s3,144(t6)
    80200288:	098fba03          	ld	s4,152(t6)
    8020028c:	0a0fba83          	ld	s5,160(t6)
    80200290:	0a8fbb03          	ld	s6,168(t6)
    80200294:	0b0fbb83          	ld	s7,176(t6)
    80200298:	0b8fbc03          	ld	s8,184(t6)
    8020029c:	0c0fbc83          	ld	s9,192(t6)
    802002a0:	0c8fbd03          	ld	s10,200(t6)
    802002a4:	0d0fbd83          	ld	s11,208(t6)
    802002a8:	0d8fbe03          	ld	t3,216(t6)
    802002ac:	0e0fbe83          	ld	t4,224(t6)
    802002b0:	0e8fbf03          	ld	t5,232(t6)
    csrSwap(sscratch,t6);
    802002b4:	140f9ff3          	csrrw	t6,sscratch,t6
    ExecInst(sret);
    802002b8:	10200073          	sret

00000000802002bc <start_kernel>:
// __attribute__((section("init")))
static void memInit(){
    csr::satp satp;
    satp.mode=8;
    satp.asid=0;
    satp.ppn=reinterpret_cast<xlen_t>(kernelPageTableRoot)>>12;
    802002bc:	00001797          	auipc	a5,0x1
    802002c0:	d447b783          	ld	a5,-700(a5) # 80201000 <kernelPageTableRoot>
    kernelPageTableRoot[0].ppn1=0x0;
    kernelPageTableRoot[0].perm=0xcf;
    kernelPageTableRoot[1].ppn1=0x100;
    kernelPageTableRoot[1].perm=0xcf;
    kernelPageTableRoot[2].ppn2=0x1;
    kernelPageTableRoot[2].perm=0xcf;
    802002c4:	0107b683          	ld	a3,16(a5)
    802002c8:	e0100813          	li	a6,-511
    kernelPageTableRoot[0].perm=0xcf;
    802002cc:	0007a583          	lw	a1,0(a5)
    kernelPageTableRoot[1].perm=0xcf;
    802002d0:	0087a603          	lw	a2,8(a5)
    kernelPageTableRoot[2].perm=0xcf;
    802002d4:	01d81813          	slli	a6,a6,0x1d
    802002d8:	e0080813          	addi	a6,a6,-512
    kernelPageTableRoot[0].perm=0xcf;
    802002dc:	e0100337          	lui	t1,0xe0100
    802002e0:	e0030313          	addi	t1,t1,-512 # ffffffffe00ffe00 <_ZL7out_buf+0xffffffff5fef5cb0>
    kernelPageTableRoot[2].perm=0xcf;
    802002e4:	0106f6b3          	and	a3,a3,a6

}
extern void program0();
extern "C" //__attribute__((section("init")))
void start_kernel(){
    puts=IO::_blockingputs;
    802002e8:	00000817          	auipc	a6,0x0
    802002ec:	12080813          	addi	a6,a6,288 # 80200408 <_ZN2IO13_blockingputsEPKc>
    kernelPageTableRoot[0].perm=0xcf;
    802002f0:	0065f5b3          	and	a1,a1,t1
    kernelPageTableRoot[1].perm=0xcf;
    802002f4:	00667633          	and	a2,a2,t1
    puts=IO::_blockingputs;
    802002f8:	0000a317          	auipc	t1,0xa
    802002fc:	d1033823          	sd	a6,-752(t1) # 8020a008 <puts>
    kernelPageTableRoot[1].perm=0xcf;
    80200300:	10000837          	lui	a6,0x10000
    80200304:	0cf80813          	addi	a6,a6,207 # 100000cf <_start-0x701fff31>
    80200308:	01066633          	or	a2,a2,a6
    satp.ppn=reinterpret_cast<xlen_t>(kernelPageTableRoot)>>12;
    8020030c:	fff00893          	li	a7,-1
    kernelPageTableRoot[2].perm=0xcf;
    80200310:	20000837          	lui	a6,0x20000
void start_kernel(){
    80200314:	fe010113          	addi	sp,sp,-32
    satp.ppn=reinterpret_cast<xlen_t>(kernelPageTableRoot)>>12;
    80200318:	0148de13          	srli	t3,a7,0x14
    8020031c:	00c7d713          	srli	a4,a5,0xc
    kernelPageTableRoot[2].perm=0xcf;
    80200320:	0cf80813          	addi	a6,a6,207 # 200000cf <_start-0x601fff31>
void start_kernel(){
    80200324:	00113c23          	sd	ra,24(sp)
    80200328:	00813823          	sd	s0,16(sp)
    8020032c:	00913423          	sd	s1,8(sp)
    80200330:	01213023          	sd	s2,0(sp)
    satp.ppn=reinterpret_cast<xlen_t>(kernelPageTableRoot)>>12;
    80200334:	01c77733          	and	a4,a4,t3
    80200338:	03f89893          	slli	a7,a7,0x3f
    kernelPageTableRoot[0].perm=0xcf;
    8020033c:	0cf5e593          	ori	a1,a1,207
    kernelPageTableRoot[2].perm=0xcf;
    80200340:	0106e6b3          	or	a3,a3,a6
    satp.ppn=reinterpret_cast<xlen_t>(kernelPageTableRoot)>>12;
    80200344:	01176733          	or	a4,a4,a7
    kernelPageTableRoot[0].perm=0xcf;
    80200348:	00b7a023          	sw	a1,0(a5)
    kernelPageTableRoot[1].perm=0xcf;
    8020034c:	00c7a423          	sw	a2,8(a5)
    kernelPageTableRoot[2].perm=0xcf;
    80200350:	00d7b823          	sd	a3,16(a5)
    csrWrite(satp,satp.value());
    80200354:	18071073          	csrw	satp,a4
    ExecInst(sfence.vma);
    80200358:	12000073          	sfence.vma
    memInit();
    csrWrite(sscratch,ctx.gpr);
    8020035c:	0000a797          	auipc	a5,0xa
    80200360:	d0478793          	addi	a5,a5,-764 # 8020a060 <_ZL3ctx>
    80200364:	14079073          	csrw	sscratch,a5
    csrWrite(stvec,strapwrapper);
    80200368:	00000797          	auipc	a5,0x0
    8020036c:	e5478793          	addi	a5,a5,-428 # 802001bc <strapwrapper>
    80200370:	10579073          	csrw	stvec,a5
    csrSet(sstatus,BIT(csr::mstatus::sie));
    80200374:	00200793          	li	a5,2
    80200378:	1007a073          	csrs	sstatus,a5
    csrSet(sie,BIT(csr::mie::ssie));
    8020037c:	1047a073          	csrs	sie,a5
    80200380:	00000073          	ecall
        return a0;
    80200384:	0005041b          	sext.w	s0,a0
    printf("hart=%d\n",hart);
    80200388:	00040593          	mv	a1,s0
    8020038c:	00000517          	auipc	a0,0x0
    80200390:	4fc50513          	addi	a0,a0,1276 # 80200888 <halt+0x5c>
    80200394:	3a8000ef          	jal	ra,8020073c <printf>
    mmio<xlen_t>(platform::clint::mtimecmpOf(hart))=mmio<xlen_t>(platform::clint::mtime)+TIMER_INTERVAL;
    80200398:	0200c7b7          	lui	a5,0x200c
    8020039c:	ff87b703          	ld	a4,-8(a5) # 200bff8 <_start-0x7e1f4008>
    802003a0:	0034141b          	slliw	s0,s0,0x3
    802003a4:	020047b7          	lui	a5,0x2004
    802003a8:	00878433          	add	s0,a5,s0
    802003ac:	004c57b7          	lui	a5,0x4c5
    802003b0:	b4078793          	addi	a5,a5,-1216 # 4c4b40 <_start-0x7fd3b4c0>
    802003b4:	00f70733          	add	a4,a4,a5
    802003b8:	00e43023          	sd	a4,0(s0)
    csrSet(sie,BIT(csr::mie::stie));
    802003bc:	02000793          	li	a5,32
    802003c0:	1047a073          	csrs	sie,a5
    timerInit();
    // halt();
    // while(true);
    for(int i=0;i<10;i++)
    802003c4:	00000413          	li	s0,0
        printf("%d:Hello RVOS!\n",i);
    802003c8:	00000917          	auipc	s2,0x0
    802003cc:	4d090913          	addi	s2,s2,1232 # 80200898 <halt+0x6c>
    for(int i=0;i<10;i++)
    802003d0:	00a00493          	li	s1,10
        printf("%d:Hello RVOS!\n",i);
    802003d4:	00040593          	mv	a1,s0
    802003d8:	00090513          	mv	a0,s2
    for(int i=0;i<10;i++)
    802003dc:	0014041b          	addiw	s0,s0,1
        printf("%d:Hello RVOS!\n",i);
    802003e0:	35c000ef          	jal	ra,8020073c <printf>
    for(int i=0;i<10;i++)
    802003e4:	fe9418e3          	bne	s0,s1,802003d4 <start_kernel+0x118>
    csrClear(sstatus,1l<<csr::mstatus::spp);
    802003e8:	10000793          	li	a5,256
    802003ec:	1007b073          	csrc	sstatus,a5
    halt();
    // csrWrite(sepc,program0);
    // ExecInst(sret);
    802003f0:	01013403          	ld	s0,16(sp)
    802003f4:	01813083          	ld	ra,24(sp)
    802003f8:	00813483          	ld	s1,8(sp)
    802003fc:	00013903          	ld	s2,0(sp)
    80200400:	02010113          	addi	sp,sp,32
    halt();
    80200404:	4280006f          	j	8020082c <halt>

0000000080200408 <_ZN2IO13_blockingputsEPKc>:
static ringbuf<char> buf;

class IO{
public:
  inline static void _blockingputs(const char *s){
    while(*s)platform::uart0::blocking::putc(*s++);
    80200408:	00054783          	lbu	a5,0(a0)
    8020040c:	02078663          	beqz	a5,80200438 <_ZN2IO13_blockingputsEPKc+0x30>
                while(!mmio<lsr>(reg(LSR)).txidle);
    80200410:	10000737          	lui	a4,0x10000
    80200414:	00574703          	lbu	a4,5(a4) # 10000005 <_start-0x701ffffb>
                mmio<char>(reg(THR))=c;
    80200418:	100006b7          	lui	a3,0x10000
                while(!mmio<lsr>(reg(LSR)).txidle);
    8020041c:	02077713          	andi	a4,a4,32
    80200420:	00150513          	addi	a0,a0,1
    80200424:	00071463          	bnez	a4,8020042c <_ZN2IO13_blockingputsEPKc+0x24>
    80200428:	0000006f          	j	80200428 <_ZN2IO13_blockingputsEPKc+0x20>
                mmio<char>(reg(THR))=c;
    8020042c:	00f68023          	sb	a5,0(a3) # 10000000 <_start-0x70200000>
    80200430:	00054783          	lbu	a5,0(a0)
    80200434:	fe0796e3          	bnez	a5,80200420 <_ZN2IO13_blockingputsEPKc+0x18>
  }
    80200438:	00008067          	ret

000000008020043c <_Z8program0v>:
        one,
        nSyscalls,
    };
    inline int syscall(int id){
        register int a7 asm("a7")=id;
        ExecInst(ecall);
    8020043c:	00000073          	ecall
#include "../include/kernel.hh"

void program0(){
    while(true){
        sys::syscall(0);
        ExecInst(wfi);
    80200440:	10500073          	wfi
    while(true){
    80200444:	ff9ff06f          	j	8020043c <_Z8program0v>

0000000080200448 <_Z8program1v>:
    80200448:	ff010113          	addi	sp,sp,-16
    8020044c:	00113423          	sd	ra,8(sp)
    80200450:	fedff0ef          	jal	ra,8020043c <_Z8program0v>

0000000080200454 <_vsnprintf>:
static int _vsnprintf(char * out, size_t n, const char* s, va_list vl)
{
	int format = 0;
	int longarg = 0;
	size_t pos = 0;
	for (; *s; s++) {
    80200454:	00064783          	lbu	a5,0(a2)
{
    80200458:	00050813          	mv	a6,a0
	for (; *s; s++) {
    8020045c:	2a078663          	beqz	a5,80200708 <_vsnprintf+0x2b4>
{
    80200460:	fd010113          	addi	sp,sp,-48
    80200464:	02813423          	sd	s0,40(sp)
    80200468:	02913023          	sd	s1,32(sp)
    8020046c:	01213c23          	sd	s2,24(sp)
    80200470:	01313823          	sd	s3,16(sp)
    80200474:	01413423          	sd	s4,8(sp)
	size_t pos = 0;
    80200478:	00000713          	li	a4,0
	int longarg = 0;
    8020047c:	00000893          	li	a7,0
	int format = 0;
    80200480:	00000513          	li	a0,0
				break;
			}
			default:
				break;
			}
		} else if (*s == '%') {
    80200484:	02500f13          	li	t5,37
    80200488:	01500e93          	li	t4,21
    8020048c:	00000317          	auipc	t1,0x0
    80200490:	42c30313          	addi	t1,t1,1068 # 802008b8 <_ZL11syscallPtrs+0x10>
				for (long nn = num; nn /= 10; digits++);
    80200494:	00a00e13          	li	t3,10
						out[pos] = '-';
    80200498:	02d00413          	li	s0,45
						out[pos] = (d < 10 ? '0'+d : 'a'+d-10);
    8020049c:	00900f93          	li	t6,9
					out[pos] = 'x';
    802004a0:	07800393          	li	t2,120
					out[pos] = '0';
    802004a4:	03000293          	li	t0,48
		if (format) {
    802004a8:	04051e63          	bnez	a0,80200504 <_vsnprintf+0xb0>
		} else if (*s == '%') {
    802004ac:	1fe78c63          	beq	a5,t5,802006a4 <_vsnprintf+0x250>
			format = 1;
		} else {
			if (out && pos < n) {
    802004b0:	00080863          	beqz	a6,802004c0 <_vsnprintf+0x6c>
    802004b4:	00b77663          	bgeu	a4,a1,802004c0 <_vsnprintf+0x6c>
				out[pos] = *s;
    802004b8:	00e804b3          	add	s1,a6,a4
    802004bc:	00f48023          	sb	a5,0(s1)
			}
			pos++;
    802004c0:	00170713          	addi	a4,a4,1
	for (; *s; s++) {
    802004c4:	00164783          	lbu	a5,1(a2)
    802004c8:	00160613          	addi	a2,a2,1
    802004cc:	fc079ee3          	bnez	a5,802004a8 <_vsnprintf+0x54>
    802004d0:	0007051b          	sext.w	a0,a4
		}
    	}
	if (out && pos < n) {
    802004d4:	00080a63          	beqz	a6,802004e8 <_vsnprintf+0x94>
    802004d8:	1cb76a63          	bltu	a4,a1,802006ac <_vsnprintf+0x258>
		out[pos] = 0;
	} else if (out && n) {
    802004dc:	00058663          	beqz	a1,802004e8 <_vsnprintf+0x94>
		out[n-1] = 0;
    802004e0:	00b80733          	add	a4,a6,a1
    802004e4:	fe070fa3          	sb	zero,-1(a4)
	}
	return pos;
}
    802004e8:	02813403          	ld	s0,40(sp)
    802004ec:	02013483          	ld	s1,32(sp)
    802004f0:	01813903          	ld	s2,24(sp)
    802004f4:	01013983          	ld	s3,16(sp)
    802004f8:	00813a03          	ld	s4,8(sp)
    802004fc:	03010113          	addi	sp,sp,48
    80200500:	00008067          	ret
			switch(*s) {
    80200504:	f9d7879b          	addiw	a5,a5,-99
    80200508:	0ff7f793          	andi	a5,a5,255
    8020050c:	fafeece3          	bltu	t4,a5,802004c4 <_vsnprintf+0x70>
    80200510:	00279793          	slli	a5,a5,0x2
    80200514:	006787b3          	add	a5,a5,t1
    80200518:	0007a783          	lw	a5,0(a5)
    8020051c:	006787b3          	add	a5,a5,t1
    80200520:	00078067          	jr	a5
		if (format) {
    80200524:	00050893          	mv	a7,a0
    80200528:	f9dff06f          	j	802004c4 <_vsnprintf+0x70>
				long num = longarg ? va_arg(vl, long) : va_arg(vl, int);
    8020052c:	00868913          	addi	s2,a3,8
    80200530:	1a088a63          	beqz	a7,802006e4 <_vsnprintf+0x290>
    80200534:	0006b683          	ld	a3,0(a3)
				if (num < 0) {
    80200538:	1a06ca63          	bltz	a3,802006ec <_vsnprintf+0x298>
				for (long nn = num; nn /= 10; digits++);
    8020053c:	03c6c7b3          	div	a5,a3,t3
				long digits = 1;
    80200540:	00100513          	li	a0,1
				for (long nn = num; nn /= 10; digits++);
    80200544:	1e078863          	beqz	a5,80200734 <_vsnprintf+0x2e0>
    80200548:	03c7c7b3          	div	a5,a5,t3
    8020054c:	00150513          	addi	a0,a0,1
    80200550:	fe079ce3          	bnez	a5,80200548 <_vsnprintf+0xf4>
				for (int i = digits-1; i >= 0; i--) {
    80200554:	fff5079b          	addiw	a5,a0,-1
    80200558:	0207c863          	bltz	a5,80200588 <_vsnprintf+0x134>
					if (out && pos + i < n) {
    8020055c:	00080e63          	beqz	a6,80200578 <_vsnprintf+0x124>
    80200560:	00f708b3          	add	a7,a4,a5
    80200564:	00b8fa63          	bgeu	a7,a1,80200578 <_vsnprintf+0x124>
						out[pos + i] = '0' + (num % 10);
    80200568:	03c6e4b3          	rem	s1,a3,t3
    8020056c:	011808b3          	add	a7,a6,a7
    80200570:	0304849b          	addiw	s1,s1,48
    80200574:	00988023          	sb	s1,0(a7)
					num /= 10;
    80200578:	fff78793          	addi	a5,a5,-1
				for (int i = digits-1; i >= 0; i--) {
    8020057c:	02079893          	slli	a7,a5,0x20
					num /= 10;
    80200580:	03c6c6b3          	div	a3,a3,t3
				for (int i = digits-1; i >= 0; i--) {
    80200584:	fc08dce3          	bgez	a7,8020055c <_vsnprintf+0x108>
				pos += digits;
    80200588:	00a70733          	add	a4,a4,a0
				break;
    8020058c:	00090693          	mv	a3,s2
				longarg = 0;
    80200590:	00000893          	li	a7,0
				format = 0;
    80200594:	00000513          	li	a0,0
				break;
    80200598:	f2dff06f          	j	802004c4 <_vsnprintf+0x70>
				if (out && pos < n) {
    8020059c:	00080c63          	beqz	a6,802005b4 <_vsnprintf+0x160>
    802005a0:	00b77a63          	bgeu	a4,a1,802005b4 <_vsnprintf+0x160>
					out[pos] = (char)va_arg(vl,int);
    802005a4:	0006a503          	lw	a0,0(a3)
    802005a8:	00e807b3          	add	a5,a6,a4
    802005ac:	00868693          	addi	a3,a3,8
    802005b0:	00a78023          	sb	a0,0(a5)
				pos++;
    802005b4:	00170713          	addi	a4,a4,1
				longarg = 0;
    802005b8:	00000893          	li	a7,0
				format = 0;
    802005bc:	00000513          	li	a0,0
				break;
    802005c0:	f05ff06f          	j	802004c4 <_vsnprintf+0x70>
				long num = longarg ? va_arg(vl, long) : va_arg(vl, int);
    802005c4:	00868793          	addi	a5,a3,8
    802005c8:	10089463          	bnez	a7,802006d0 <_vsnprintf+0x27c>
    802005cc:	0006aa03          	lw	s4,0(a3)
    802005d0:	00070513          	mv	a0,a4
    802005d4:	00078693          	mv	a3,a5
				int hexdigits = 2*(longarg ? sizeof(long) : sizeof(int))-1;
    802005d8:	00700713          	li	a4,7
				for(int i = hexdigits; i >= 0; i--) {
    802005dc:	00e509bb          	addw	s3,a0,a4
    802005e0:	00150793          	addi	a5,a0,1
    802005e4:	00e78733          	add	a4,a5,a4
    802005e8:	0029999b          	slliw	s3,s3,0x2
					if (out && pos < n) {
    802005ec:	02080663          	beqz	a6,80200618 <_vsnprintf+0x1c4>
    802005f0:	02b57463          	bgeu	a0,a1,80200618 <_vsnprintf+0x1c4>
					int d = (num >> (4*i)) & 0xF;
    802005f4:	0025189b          	slliw	a7,a0,0x2
    802005f8:	411988bb          	subw	a7,s3,a7
    802005fc:	411a58b3          	sra	a7,s4,a7
    80200600:	00f8f913          	andi	s2,a7,15
						out[pos] = (d < 10 ? '0'+d : 'a'+d-10);
    80200604:	05790493          	addi	s1,s2,87
    80200608:	012fc463          	blt	t6,s2,80200610 <_vsnprintf+0x1bc>
    8020060c:	03090493          	addi	s1,s2,48
    80200610:	00a80533          	add	a0,a6,a0
    80200614:	00950023          	sb	s1,0(a0)
					pos++;
    80200618:	00078513          	mv	a0,a5
				for(int i = hexdigits; i >= 0; i--) {
    8020061c:	04e78463          	beq	a5,a4,80200664 <_vsnprintf+0x210>
    80200620:	00178793          	addi	a5,a5,1
    80200624:	fc9ff06f          	j	802005ec <_vsnprintf+0x198>
				const char* s2 = va_arg(vl, const char*);
    80200628:	0006b883          	ld	a7,0(a3)
    8020062c:	00868693          	addi	a3,a3,8
				while (*s2) {
    80200630:	0008c503          	lbu	a0,0(a7)
    80200634:	02050863          	beqz	a0,80200664 <_vsnprintf+0x210>
    80200638:	00070793          	mv	a5,a4
					if (out && pos < n) {
    8020063c:	00080863          	beqz	a6,8020064c <_vsnprintf+0x1f8>
    80200640:	00b7f663          	bgeu	a5,a1,8020064c <_vsnprintf+0x1f8>
						out[pos] = *s2;
    80200644:	00f804b3          	add	s1,a6,a5
    80200648:	00a48023          	sb	a0,0(s1)
					pos++;
    8020064c:	00178793          	addi	a5,a5,1
				while (*s2) {
    80200650:	40e78533          	sub	a0,a5,a4
    80200654:	00a88533          	add	a0,a7,a0
    80200658:	00054503          	lbu	a0,0(a0)
    8020065c:	fe0510e3          	bnez	a0,8020063c <_vsnprintf+0x1e8>
					pos++;
    80200660:	00078713          	mv	a4,a5
				longarg = 0;
    80200664:	00000893          	li	a7,0
				format = 0;
    80200668:	00000513          	li	a0,0
    8020066c:	e59ff06f          	j	802004c4 <_vsnprintf+0x70>
				if (out && pos < n) {
    80200670:	02080063          	beqz	a6,80200690 <_vsnprintf+0x23c>
    80200674:	00b77663          	bgeu	a4,a1,80200680 <_vsnprintf+0x22c>
					out[pos] = '0';
    80200678:	00e807b3          	add	a5,a6,a4
    8020067c:	00578023          	sb	t0,0(a5)
				pos++;
    80200680:	00170793          	addi	a5,a4,1
				if (out && pos < n) {
    80200684:	00b7f663          	bgeu	a5,a1,80200690 <_vsnprintf+0x23c>
					out[pos] = 'x';
    80200688:	00f807b3          	add	a5,a6,a5
    8020068c:	00778023          	sb	t2,0(a5)
				long num = longarg ? va_arg(vl, long) : va_arg(vl, int);
    80200690:	0006ba03          	ld	s4,0(a3)
				pos++;
    80200694:	00270513          	addi	a0,a4,2
				long num = longarg ? va_arg(vl, long) : va_arg(vl, int);
    80200698:	00868693          	addi	a3,a3,8
				int hexdigits = 2*(longarg ? sizeof(long) : sizeof(int))-1;
    8020069c:	00f00713          	li	a4,15
    802006a0:	f3dff06f          	j	802005dc <_vsnprintf+0x188>
			format = 1;
    802006a4:	00100513          	li	a0,1
    802006a8:	e1dff06f          	j	802004c4 <_vsnprintf+0x70>
		out[pos] = 0;
    802006ac:	00e80733          	add	a4,a6,a4
    802006b0:	00070023          	sb	zero,0(a4)
}
    802006b4:	02813403          	ld	s0,40(sp)
    802006b8:	02013483          	ld	s1,32(sp)
    802006bc:	01813903          	ld	s2,24(sp)
    802006c0:	01013983          	ld	s3,16(sp)
    802006c4:	00813a03          	ld	s4,8(sp)
    802006c8:	03010113          	addi	sp,sp,48
    802006cc:	00008067          	ret
				long num = longarg ? va_arg(vl, long) : va_arg(vl, int);
    802006d0:	0006ba03          	ld	s4,0(a3)
				int hexdigits = 2*(longarg ? sizeof(long) : sizeof(int))-1;
    802006d4:	00070513          	mv	a0,a4
				long num = longarg ? va_arg(vl, long) : va_arg(vl, int);
    802006d8:	00078693          	mv	a3,a5
				int hexdigits = 2*(longarg ? sizeof(long) : sizeof(int))-1;
    802006dc:	00f00713          	li	a4,15
    802006e0:	efdff06f          	j	802005dc <_vsnprintf+0x188>
				long num = longarg ? va_arg(vl, long) : va_arg(vl, int);
    802006e4:	0006a683          	lw	a3,0(a3)
				if (num < 0) {
    802006e8:	e406dae3          	bgez	a3,8020053c <_vsnprintf+0xe8>
					num = -num;
    802006ec:	40d006b3          	neg	a3,a3
					if (out && pos < n) {
    802006f0:	00080863          	beqz	a6,80200700 <_vsnprintf+0x2ac>
    802006f4:	00b77663          	bgeu	a4,a1,80200700 <_vsnprintf+0x2ac>
						out[pos] = '-';
    802006f8:	00e807b3          	add	a5,a6,a4
    802006fc:	00878023          	sb	s0,0(a5)
					pos++;
    80200700:	00170713          	addi	a4,a4,1
    80200704:	e39ff06f          	j	8020053c <_vsnprintf+0xe8>
	for (; *s; s++) {
    80200708:	00000513          	li	a0,0
	size_t pos = 0;
    8020070c:	00000713          	li	a4,0
	if (out && pos < n) {
    80200710:	02080063          	beqz	a6,80200730 <_vsnprintf+0x2dc>
    80200714:	00b77863          	bgeu	a4,a1,80200724 <_vsnprintf+0x2d0>
		out[pos] = 0;
    80200718:	00e80733          	add	a4,a6,a4
    8020071c:	00070023          	sb	zero,0(a4)
    80200720:	00008067          	ret
	} else if (out && n) {
    80200724:	00058663          	beqz	a1,80200730 <_vsnprintf+0x2dc>
		out[n-1] = 0;
    80200728:	00b80733          	add	a4,a6,a1
    8020072c:	fe070fa3          	sb	zero,-1(a4)
}
    80200730:	00008067          	ret
				for (int i = digits-1; i >= 0; i--) {
    80200734:	00000793          	li	a5,0
    80200738:	e25ff06f          	j	8020055c <_vsnprintf+0x108>

000000008020073c <printf>:
	puts(out_buf);
	return res;
}

int printf(const char* s, ...)
{
    8020073c:	f9010113          	addi	sp,sp,-112
    80200740:	01213823          	sd	s2,16(sp)
	int res = 0;
	va_list vl;
	va_start(vl, s);
    80200744:	03810913          	addi	s2,sp,56
{
    80200748:	00913c23          	sd	s1,24(sp)
    8020074c:	02b13c23          	sd	a1,56(sp)
    80200750:	04c13023          	sd	a2,64(sp)
    80200754:	04d13423          	sd	a3,72(sp)
	int res = _vsnprintf(NULL, -1, s, vl);
    80200758:	00050613          	mv	a2,a0
    8020075c:	fff00593          	li	a1,-1
{
    80200760:	00050493          	mv	s1,a0
	int res = _vsnprintf(NULL, -1, s, vl);
    80200764:	00090693          	mv	a3,s2
    80200768:	00000513          	li	a0,0
{
    8020076c:	04f13c23          	sd	a5,88(sp)
    80200770:	02113423          	sd	ra,40(sp)
    80200774:	02813023          	sd	s0,32(sp)
    80200778:	04e13823          	sd	a4,80(sp)
    8020077c:	07013023          	sd	a6,96(sp)
    80200780:	07113423          	sd	a7,104(sp)
	va_start(vl, s);
    80200784:	01213423          	sd	s2,8(sp)
	int res = _vsnprintf(NULL, -1, s, vl);
    80200788:	ccdff0ef          	jal	ra,80200454 <_vsnprintf>
	if (res+1 >= sizeof(out_buf)) {
    8020078c:	0015059b          	addiw	a1,a0,1
    80200790:	3e700793          	li	a5,999
    80200794:	00b7fe63          	bgeu	a5,a1,802007b0 <printf+0x74>
		puts("error: output string size overflow\n");
    80200798:	00000517          	auipc	a0,0x0
    8020079c:	17850513          	addi	a0,a0,376 # 80200910 <_ZL11syscallPtrs+0x68>
    802007a0:	0000a797          	auipc	a5,0xa
    802007a4:	8687b783          	ld	a5,-1944(a5) # 8020a008 <puts>
    802007a8:	000780e7          	jalr	a5
		while(1) {}
    802007ac:	0000006f          	j	802007ac <printf+0x70>
	_vsnprintf(out_buf, res + 1, s, vl);
    802007b0:	00050413          	mv	s0,a0
    802007b4:	00090693          	mv	a3,s2
    802007b8:	00048613          	mv	a2,s1
    802007bc:	0000a517          	auipc	a0,0xa
    802007c0:	99450513          	addi	a0,a0,-1644 # 8020a150 <_ZL7out_buf>
    802007c4:	c91ff0ef          	jal	ra,80200454 <_vsnprintf>
	puts(out_buf);
    802007c8:	0000a517          	auipc	a0,0xa
    802007cc:	98850513          	addi	a0,a0,-1656 # 8020a150 <_ZL7out_buf>
    802007d0:	0000a797          	auipc	a5,0xa
    802007d4:	8387b783          	ld	a5,-1992(a5) # 8020a008 <puts>
    802007d8:	000780e7          	jalr	a5
	res = _vprintf(s, vl);
	va_end(vl);
	return res;
}
    802007dc:	02813083          	ld	ra,40(sp)
    802007e0:	00040513          	mv	a0,s0
    802007e4:	02013403          	ld	s0,32(sp)
    802007e8:	01813483          	ld	s1,24(sp)
    802007ec:	01013903          	ld	s2,16(sp)
    802007f0:	07010113          	addi	sp,sp,112
    802007f4:	00008067          	ret

00000000802007f8 <panic>:

void panic(char *s)
{
    802007f8:	ff010113          	addi	sp,sp,-16
    802007fc:	00813023          	sd	s0,0(sp)
    80200800:	00050413          	mv	s0,a0
	printf("panic: ");
    80200804:	00000517          	auipc	a0,0x0
    80200808:	13450513          	addi	a0,a0,308 # 80200938 <_ZL11syscallPtrs+0x90>
{
    8020080c:	00113423          	sd	ra,8(sp)
	printf("panic: ");
    80200810:	f2dff0ef          	jal	ra,8020073c <printf>
	printf(s);
    80200814:	00040513          	mv	a0,s0
    80200818:	f25ff0ef          	jal	ra,8020073c <printf>
	printf("\n");
    8020081c:	00000517          	auipc	a0,0x0
    80200820:	12450513          	addi	a0,a0,292 # 80200940 <_ZL11syscallPtrs+0x98>
    80200824:	f19ff0ef          	jal	ra,8020073c <printf>
	while(1){};
    80200828:	0000006f          	j	80200828 <panic+0x30>

000000008020082c <halt>:
}
void halt(){
	while(1)asm("wfi");
    8020082c:	10500073          	wfi
    80200830:	ffdff06f          	j	8020082c <halt>

Disassembly of section .rodata:

0000000080200838 <_ZL11syscallPtrs-0x70>:
    80200838:	6f4d2d53          	0x6f4d2d53
    8020083c:	6564                	ld	s1,200(a0)
    8020083e:	7420                	ld	s0,104(s0)
    80200840:	6d69                	lui	s10,0x1a
    80200842:	7265                	lui	tp,0xffff9
    80200844:	4920                	lw	s0,80(a0)
    80200846:	746e                	ld	s0,248(sp)
    80200848:	7265                	lui	tp,0xffff9
    8020084a:	7572                	ld	a0,312(sp)
    8020084c:	7470                	ld	a2,232(s0)
    8020084e:	5d64255b          	0x5d64255b
    80200852:	3a3a                	fld	fs4,424(sp)
    80200854:	6c25                	lui	s8,0x9
    80200856:	2064                	fld	fs1,192(s0)
    80200858:	6c25                	lui	s8,0x9
    8020085a:	3c64                	fld	fs1,248(s0)
    8020085c:	6c25                	lui	s8,0x9
    8020085e:	0a64                	addi	s1,sp,284
	...
    80200868:	6575                	lui	a0,0x1d
    8020086a:	6c6c6163          	bltu	s8,t1,80200f2c <_ZL11syscallPtrs+0x684>
    8020086e:	5b20                	lw	s0,112(a4)
    80200870:	6425                	lui	s0,0x9
    80200872:	0a5d                	addi	s4,s4,23
    80200874:	0000                	unimp
    80200876:	0000                	unimp
    80200878:	7865                	lui	a6,0xffff9
    8020087a:	74706563          	bltu	zero,t2,80200fc4 <_ZL11syscallPtrs+0x71c>
    8020087e:	6f69                	lui	t5,0x1a
    80200880:	0a6e                	slli	s4,s4,0x1b
    80200882:	0000                	unimp
    80200884:	0000                	unimp
    80200886:	0000                	unimp
    80200888:	6168                	ld	a0,192(a0)
    8020088a:	7472                	ld	s0,312(sp)
    8020088c:	253d                	addiw	a0,a0,15
    8020088e:	0a64                	addi	s1,sp,284
	...
    80200898:	6425                	lui	s0,0x9
    8020089a:	483a                	lw	a6,140(sp)
    8020089c:	6c65                	lui	s8,0x19
    8020089e:	6f6c                	ld	a1,216(a4)
    802008a0:	5220                	lw	s0,96(a2)
    802008a2:	4f56                	lw	t5,84(sp)
    802008a4:	000a2153          	fadd.s	ft2,fs4,ft0,rdn

00000000802008a8 <_ZL11syscallPtrs>:
    802008a8:	0004                	0x4
    802008aa:	8020                	0x8020
    802008ac:	0000                	unimp
    802008ae:	0000                	unimp
    802008b0:	0004                	0x4
    802008b2:	8020                	0x8020
    802008b4:	0000                	unimp
    802008b6:	0000                	unimp
    802008b8:	fce4                	sd	s1,248(s1)
    802008ba:	fc74ffff          	0xfc74ffff
    802008be:	fc0cffff          	0xfc0cffff
    802008c2:	fc0cffff          	0xfc0cffff
    802008c6:	fc0cffff          	0xfc0cffff
    802008ca:	fc0cffff          	0xfc0cffff
    802008ce:	fc0cffff          	0xfc0cffff
    802008d2:	fc0cffff          	0xfc0cffff
    802008d6:	fc0cffff          	0xfc0cffff
    802008da:	fc6cffff          	0xfc6cffff
    802008de:	fc0cffff          	0xfc0cffff
    802008e2:	fc0cffff          	0xfc0cffff
    802008e6:	fc0cffff          	0xfc0cffff
    802008ea:	fdb8ffff          	0xfdb8ffff
    802008ee:	fc0cffff          	0xfc0cffff
    802008f2:	fc0cffff          	0xfc0cffff
    802008f6:	fd70ffff          	0xfd70ffff
    802008fa:	fc0cffff          	0xfc0cffff
    802008fe:	fc0cffff          	0xfc0cffff
    80200902:	fc0cffff          	0xfc0cffff
    80200906:	fc0cffff          	0xfc0cffff
    8020090a:	fd0cffff          	0xfd0cffff
    8020090e:	7265ffff          	0x7265ffff
    80200912:	6f72                	ld	t5,280(sp)
    80200914:	3a72                	fld	fs4,312(sp)
    80200916:	6f20                	ld	s0,88(a4)
    80200918:	7475                	lui	s0,0xffffd
    8020091a:	7570                	ld	a2,232(a0)
    8020091c:	2074                	fld	fa3,192(s0)
    8020091e:	69727473          	csrrci	s0,0x697,4
    80200922:	676e                	ld	a4,216(sp)
    80200924:	7320                	ld	s0,96(a4)
    80200926:	7a69                	lui	s4,0xffffa
    80200928:	2065                	0x2065
    8020092a:	7265766f          	jal	a2,80258050 <_ZL7out_buf+0x4df00>
    8020092e:	6c66                	ld	s8,88(sp)
    80200930:	000a776f          	jal	a4,802a7930 <_ZL7out_buf+0x9d7e0>
    80200934:	0000                	unimp
    80200936:	0000                	unimp
    80200938:	6170                	ld	a2,192(a0)
    8020093a:	696e                	ld	s2,216(sp)
    8020093c:	00203a63          	0x203a63
    80200940:	000a                	c.slli	zero,0x2
    80200942:	0000                	unimp
    80200944:	0000                	unimp
	...

Disassembly of section .eh_frame:

0000000080200948 <.eh_frame>:
    80200948:	0010                	0x10
    8020094a:	0000                	unimp
    8020094c:	0000                	unimp
    8020094e:	0000                	unimp
    80200950:	7a01                	lui	s4,0xfffe0
    80200952:	0052                	c.slli	zero,0x14
    80200954:	7c01                	lui	s8,0xfffe0
    80200956:	0101                	addi	sp,sp,0
    80200958:	00020d1b          	sext.w	s10,tp
    8020095c:	0010                	0x10
    8020095e:	0000                	unimp
    80200960:	0018                	0x18
    80200962:	0000                	unimp
    80200964:	faa4                	sd	s1,112(a3)
    80200966:	0034ffff          	0x34ffff
    8020096a:	0000                	unimp
    8020096c:	0000                	unimp
    8020096e:	0000                	unimp
    80200970:	0010                	0x10
    80200972:	0000                	unimp
    80200974:	002c                	addi	a1,sp,8
    80200976:	0000                	unimp
    80200978:	f68c                	sd	a1,40(a3)
    8020097a:	0008ffff          	0x8ffff
    8020097e:	0000                	unimp
    80200980:	0000                	unimp
    80200982:	0000                	unimp
    80200984:	0024                	addi	s1,sp,8
    80200986:	0000                	unimp
    80200988:	0040                	addi	s0,sp,4
    8020098a:	0000                	unimp
    8020098c:	f680                	sd	s0,40(a3)
    8020098e:	00a4ffff          	0xa4ffff
    80200992:	0000                	unimp
    80200994:	4400                	lw	s0,8(s0)
    80200996:	200e                	fld	ft0,192(sp)
    80200998:	814c                	0x814c
    8020099a:	8802                	jr	a6
    8020099c:	8904                	0x8904
    8020099e:	0206                	slli	tp,tp,0x1
    802009a0:	c184                	sw	s1,0(a1)
    802009a2:	c844                	sw	s1,20(s0)
    802009a4:	c944                	sw	s1,20(a0)
    802009a6:	0e44                	addi	s1,sp,788
    802009a8:	0000                	unimp
    802009aa:	0000                	unimp
    802009ac:	0028                	addi	a0,sp,8
    802009ae:	0000                	unimp
    802009b0:	0068                	addi	a0,sp,12
    802009b2:	0000                	unimp
    802009b4:	f6fc                	sd	a5,232(a3)
    802009b6:	0070ffff          	0x70ffff
    802009ba:	0000                	unimp
    802009bc:	4400                	lw	s0,8(s0)
    802009be:	100e                	c.slli	zero,0x23
    802009c0:	8844                	0x8844
    802009c2:	5404                	lw	s1,40(s0)
    802009c4:	0281                	addi	t0,t0,0
    802009c6:	0a50                	addi	a2,sp,276
    802009c8:	44c1                	li	s1,16
    802009ca:	4cc8                	lw	a0,28(s1)
    802009cc:	000e                	c.slli	zero,0x3
    802009ce:	0b44                	addi	s1,sp,404
    802009d0:	c15c                	sw	a5,4(a0)
    802009d2:	c844                	sw	s1,20(s0)
    802009d4:	0e4c                	addi	a1,sp,788
    802009d6:	0000                	unimp
    802009d8:	003c                	addi	a5,sp,8
    802009da:	0000                	unimp
    802009dc:	0094                	addi	a3,sp,64
    802009de:	0000                	unimp
    802009e0:	f740                	sd	s0,168(a4)
    802009e2:	009cffff          	0x9cffff
    802009e6:	0000                	unimp
    802009e8:	4400                	lw	s0,8(s0)
    802009ea:	100e                	c.slli	zero,0x23
    802009ec:	8148                	0x8148
    802009ee:	8802                	jr	a6
    802009f0:	0204                	addi	s1,sp,256
    802009f2:	0a38                	addi	a4,sp,280
    802009f4:	44c1                	li	s1,16
    802009f6:	44c8                	lw	a0,12(s1)
    802009f8:	000e                	c.slli	zero,0x3
    802009fa:	0b44                	addi	s1,sp,404
    802009fc:	0a54                	addi	a3,sp,276
    802009fe:	44c8                	lw	a0,12(s1)
    80200a00:	44c1                	li	s1,16
    80200a02:	000e                	c.slli	zero,0x3
    80200a04:	0b44                	addi	s1,sp,404
    80200a06:	0a50                	addi	a2,sp,276
    80200a08:	44c1                	li	s1,16
    80200a0a:	44c8                	lw	a0,12(s1)
    80200a0c:	000e                	c.slli	zero,0x3
    80200a0e:	0b44                	addi	s1,sp,404
    80200a10:	c844                	sw	s1,20(s0)
    80200a12:	c144                	sw	s1,4(a0)
    80200a14:	0e44                	addi	s1,sp,788
    80200a16:	0000                	unimp
    80200a18:	0010                	0x10
    80200a1a:	0000                	unimp
    80200a1c:	00d4                	addi	a3,sp,68
    80200a1e:	0000                	unimp
    80200a20:	f79c                	sd	a5,40(a5)
    80200a22:	0100ffff          	0x100ffff
    80200a26:	0000                	unimp
    80200a28:	0000                	unimp
    80200a2a:	0000                	unimp
    80200a2c:	0028                	addi	a0,sp,8
    80200a2e:	0000                	unimp
    80200a30:	00e8                	addi	a0,sp,76
    80200a32:	0000                	unimp
    80200a34:	f888                	sd	a0,48(s1)
    80200a36:	014cffff          	0x14cffff
    80200a3a:	0000                	unimp
    80200a3c:	0200                	addi	s0,sp,256
    80200a3e:	0e5c                	addi	a5,sp,788
    80200a40:	5c20                	lw	s0,120(s0)
    80200a42:	0281                	addi	t0,t0,0
    80200a44:	0488                	addi	a0,sp,576
    80200a46:	0689                	addi	a3,a3,2
    80200a48:	0892                	slli	a7,a7,0x4
    80200a4a:	c002                	sw	zero,0(sp)
    80200a4c:	44c8                	lw	a0,12(s1)
    80200a4e:	44c1                	li	s1,16
    80200a50:	44c9                	li	s1,18
    80200a52:	44d2                	lw	s1,20(sp)
    80200a54:	000e                	c.slli	zero,0x3
    80200a56:	0000                	unimp
    80200a58:	0010                	0x10
    80200a5a:	0000                	unimp
    80200a5c:	0114                	addi	a3,sp,128
    80200a5e:	0000                	unimp
    80200a60:	f9dc                	sd	a5,176(a1)
    80200a62:	000cffff          	0xcffff
    80200a66:	0000                	unimp
    80200a68:	0000                	unimp
    80200a6a:	0000                	unimp
    80200a6c:	0018                	0x18
    80200a6e:	0000                	unimp
    80200a70:	0128                	addi	a0,sp,136
    80200a72:	0000                	unimp
    80200a74:	f9d4                	sd	a3,176(a1)
    80200a76:	000cffff          	0xcffff
    80200a7a:	0000                	unimp
    80200a7c:	4400                	lw	s0,8(s0)
    80200a7e:	100e                	c.slli	zero,0x23
    80200a80:	8144                	0x8144
    80200a82:	0002                	c.slli64	zero
    80200a84:	0000                	unimp
    80200a86:	0000                	unimp
    80200a88:	0054                	addi	a3,sp,4
    80200a8a:	0000                	unimp
    80200a8c:	0144                	addi	s1,sp,132
    80200a8e:	0000                	unimp
    80200a90:	f9c4                	sd	s1,176(a1)
    80200a92:	02e8ffff          	0x2e8ffff
    80200a96:	0000                	unimp
    80200a98:	5000                	lw	s0,32(s0)
    80200a9a:	300e                	fld	ft0,224(sp)
    80200a9c:	8854                	0x8854
    80200a9e:	8902                	jr	s2
    80200aa0:	9204                	0x9204
    80200aa2:	9306                	add	t1,t1,ra
    80200aa4:	9408                	0x9408
    80200aa6:	020a                	slli	tp,tp,0x2
    80200aa8:	0a74                	addi	a3,sp,284
    80200aaa:	44c8                	lw	a0,12(s1)
    80200aac:	44c9                	li	s1,18
    80200aae:	44d2                	lw	s1,20(sp)
    80200ab0:	44d444d3          	0x44d444d3
    80200ab4:	000e                	c.slli	zero,0x3
    80200ab6:	0b44                	addi	s1,sp,404
    80200ab8:	0a01b403          	ld	s0,160(gp)
    80200abc:	44c8                	lw	a0,12(s1)
    80200abe:	44c9                	li	s1,18
    80200ac0:	44d2                	lw	s1,20(sp)
    80200ac2:	44d444d3          	0x44d444d3
    80200ac6:	000e                	c.slli	zero,0x3
    80200ac8:	0b44                	addi	s1,sp,404
    80200aca:	0e78                	addi	a4,sp,796
    80200acc:	c800                	sw	s0,16(s0)
    80200ace:	d2c9                	beqz	a3,80200a50 <_ZL11syscallPtrs+0x1a8>
    80200ad0:	0e6cd4d3          	fsub.q	fs1,fs9,ft6,unknown
    80200ad4:	8830                	0x8830
    80200ad6:	8902                	jr	s2
    80200ad8:	9204                	0x9204
    80200ada:	9306                	add	t1,t1,ra
    80200adc:	9408                	0x9408
    80200ade:	000a                	c.slli	zero,0x2
    80200ae0:	0028                	addi	a0,sp,8
    80200ae2:	0000                	unimp
    80200ae4:	019c                	addi	a5,sp,192
    80200ae6:	0000                	unimp
    80200ae8:	fc54                	sd	a3,184(s0)
    80200aea:	00bcffff          	0xbcffff
    80200aee:	0000                	unimp
    80200af0:	4400                	lw	s0,8(s0)
    80200af2:	700e                	0x700e
    80200af4:	9244                	0x9244
    80200af6:	5c18                	lw	a4,56(s0)
    80200af8:	1689                	addi	a3,a3,-30
    80200afa:	8158                	0x8158
    80200afc:	8812                	mv	a6,tp
    80200afe:	0214                	addi	a3,sp,256
    80200b00:	c168                	sw	a0,68(a0)
    80200b02:	c848                	sw	a0,20(s0)
    80200b04:	c944                	sw	s1,20(a0)
    80200b06:	d244                	sw	s1,36(a2)
    80200b08:	0e44                	addi	s1,sp,788
    80200b0a:	0000                	unimp
    80200b0c:	0018                	0x18
    80200b0e:	0000                	unimp
    80200b10:	01c8                	addi	a0,sp,196
    80200b12:	0000                	unimp
    80200b14:	fce4                	sd	s1,248(s1)
    80200b16:	0034ffff          	0x34ffff
    80200b1a:	0000                	unimp
    80200b1c:	4400                	lw	s0,8(s0)
    80200b1e:	100e                	c.slli	zero,0x23
    80200b20:	8844                	0x8844
    80200b22:	5004                	lw	s1,32(s0)
    80200b24:	0281                	addi	t0,t0,0
    80200b26:	0000                	unimp
    80200b28:	0010                	0x10
    80200b2a:	0000                	unimp
    80200b2c:	01e4                	addi	s1,sp,204
    80200b2e:	0000                	unimp
    80200b30:	fcfc                	sd	a5,248(s1)
    80200b32:	0008ffff          	0x8ffff
    80200b36:	0000                	unimp
    80200b38:	0000                	unimp
	...

Disassembly of section .data:

0000000080200b40 <kernelPageTableRoot-0x4c0>:
	...

0000000080201000 <kernelPageTableRoot>:
pgtbl_t kernelPageTableRoot=reinterpret_cast<pgtbl_t>(kernelPageTableRootPage);
    80201000:	2000                	fld	fs0,0(s0)
    80201002:	8020                	0x8020
    80201004:	0000                	unimp
	...

Disassembly of section .pagetable:

0000000080201008 <kernelPageTableRootPage-0xff8>:
	...

0000000080202000 <kernelPageTableRootPage>:
	...

Disassembly of section .bss:

000000008020a000 <_ZZ21timerInterruptHandlervE3cnt>:
	...

000000008020a008 <puts>:
	...

000000008020a010 <_ZL5hooks>:
	...

000000008020a060 <_ZL3ctx>:
	...

000000008020a150 <_ZL7out_buf>:
	...

Disassembly of section .riscv.attributes:

0000000000000000 <.riscv.attributes>:
   0:	2541                	addiw	a0,a0,16
   2:	0000                	unimp
   4:	7200                	ld	s0,32(a2)
   6:	7369                	lui	t1,0xffffa
   8:	01007663          	bgeu	zero,a6,14 <_start-0x801fffec>
   c:	0000001b          	sext.w	zero,zero
  10:	1004                	addi	s1,sp,32
  12:	7205                	lui	tp,0xfffe1
  14:	3676                	fld	fa2,376(sp)
  16:	6934                	ld	a3,80(a0)
  18:	7032                	0x7032
  1a:	5f30                	lw	a2,120(a4)
  1c:	326d                	addiw	tp,tp,-5
  1e:	3070                	fld	fa2,224(s0)
  20:	615f 7032 0030      	0x307032615f

Disassembly of section .comment:

0000000000000000 <.comment>:
   0:	3a434347          	fmsub.d	ft6,ft6,ft4,ft7,rmm
   4:	2820                	fld	fs0,80(s0)
   6:	29554e47          	fmsub.s	ft8,fa0,fs5,ft5,rmm
   a:	3920                	fld	fs0,112(a0)
   c:	322e                	fld	ft4,232(sp)
   e:	302e                	fld	ft0,232(sp)
	...

Disassembly of section .debug_line:

0000000000000000 <.debug_line>:
       0:	0036                	c.slli	zero,0xd
       2:	0000                	unimp
       4:	001e0003          	lb	zero,1(t3)
       8:	0000                	unimp
       a:	0101                	addi	sp,sp,0
       c:	000d0efb          	0xd0efb
      10:	0101                	addi	sp,sp,0
      12:	0101                	addi	sp,sp,0
      14:	0000                	unimp
      16:	0100                	addi	s0,sp,128
      18:	0000                	unimp
      1a:	0001                	nop
      1c:	72617473          	csrrci	s0,0x726,2
      20:	2e74                	fld	fa3,216(a2)
      22:	00000053          	fadd.s	ft0,ft0,ft0,rne
      26:	0000                	unimp
      28:	0900                	addi	s0,sp,144
      2a:	0002                	c.slli64	zero
      2c:	2000                	fld	fs0,0(s0)
      2e:	0080                	addi	s0,sp,64
      30:	0000                	unimp
      32:	1500                	addi	s0,sp,672
      34:	0409                	addi	s0,s0,2
      36:	0000                	unimp
      38:	0101                	addi	sp,sp,0
      3a:	00000937          	lui	s2,0x0
      3e:	00dd0003          	lb	zero,13(s10) # 1a00d <_start-0x801e5ff3>
      42:	0000                	unimp
      44:	0101                	addi	sp,sp,0
      46:	000d0efb          	0xd0efb
      4a:	0101                	addi	sp,sp,0
      4c:	0101                	addi	sp,sp,0
      4e:	0000                	unimp
      50:	0100                	addi	s0,sp,128
      52:	0000                	unimp
      54:	2e01                	sext.w	t3,t3
      56:	2f2e                	fld	ft10,200(sp)
      58:	6e69                	lui	t3,0x1a
      5a:	64756c63          	bltu	a0,t2,6b2 <_start-0x801ff94e>
      5e:	0065                	c.nop	25
      60:	6d6f682f          	0x6d6f682f
      64:	2f65                	addiw	t5,t5,25
      66:	797a                	ld	s2,440(sp)
      68:	702e2f63          	0x702e2f63
      6c:	616c                	ld	a1,192(a0)
      6e:	6674                	ld	a3,200(a2)
      70:	696d726f          	jal	tp,d7706 <_start-0x801288fa>
      74:	61702f6f          	jal	t5,2e8a <_start-0x801fd176>
      78:	67616b63          	bltu	sp,s6,6ee <_start-0x801ff912>
      7c:	7365                	lui	t1,0xffff9
      7e:	6f6f742f          	0x6f6f742f
      82:	636c                	ld	a1,192(a4)
      84:	6168                	ld	a0,192(a0)
      86:	6e69                	lui	t3,0x1a
      88:	672d                	lui	a4,0xb
      8a:	3364                	fld	fs1,224(a4)
      8c:	7632                	ld	a2,296(sp)
      8e:	62696c2f          	0x62696c2f
      92:	6363672f          	0x6363672f
      96:	7369722f          	0x7369722f
      9a:	6e2d7663          	bgeu	s10,sp,786 <_start-0x801ff87a>
      9e:	6375                	lui	t1,0x1d
      a0:	656c                	ld	a1,200(a0)
      a2:	2d69                	addiw	s10,s10,26
      a4:	6c65                	lui	s8,0x19
      a6:	2f66                	fld	ft10,88(sp)
      a8:	2e39                	addiw	t3,t3,14
      aa:	2e32                	fld	ft8,264(sp)
      ac:	2f30                	fld	fa2,88(a4)
      ae:	6e69                	lui	t3,0x1a
      b0:	64756c63          	bltu	a0,t2,708 <_start-0x801ff8f8>
      b4:	0065                	c.nop	25
      b6:	6b00                	ld	s0,16(a4)
      b8:	696c                	ld	a1,208(a0)
      ba:	2e62                	fld	ft8,24(sp)
      bc:	6868                	ld	a0,208(s0)
      be:	0100                	addi	s0,sp,128
      c0:	0000                	unimp
      c2:	6c70                	ld	a2,216(s0)
      c4:	7461                	lui	s0,0xffff8
      c6:	6f66                	ld	t5,88(sp)
      c8:	6d72                	ld	s10,280(sp)
      ca:	682e                	ld	a6,200(sp)
      cc:	0100                	addi	s0,sp,128
      ce:	0000                	unimp
      d0:	6e72656b          	0x6e72656b
      d4:	6c65                	lui	s8,0x19
      d6:	632e                	ld	t1,200(sp)
      d8:	00000063          	beqz	zero,d8 <_start-0x801fff28>
      dc:	7300                	ld	s0,32(a4)
      de:	6962                	ld	s2,24(sp)
      e0:	682e                	ld	a6,200(sp)
      e2:	0068                	addi	a0,sp,12
      e4:	0001                	nop
      e6:	7200                	ld	s0,32(a2)
      e8:	6376                	ld	t1,344(sp)
      ea:	682e7273          	csrrci	tp,0x682,28
      ee:	0068                	addi	a0,sp,12
      f0:	0001                	nop
      f2:	7400                	ld	s0,40(s0)
      f4:	7079                	c.lui	zero,0xffffe
      f6:	7365                	lui	t1,0xffff9
      f8:	682e                	ld	a6,200(sp)
      fa:	0100                	addi	s0,sp,128
      fc:	0000                	unimp
      fe:	64647473          	csrrci	s0,0x646,8
     102:	6665                	lui	a2,0x19
     104:	682e                	ld	a6,200(sp)
     106:	0200                	addi	s0,sp,256
     108:	0000                	unimp
     10a:	6e72656b          	0x6e72656b
     10e:	6c65                	lui	s8,0x19
     110:	682e                	ld	a6,200(sp)
     112:	0068                	addi	a0,sp,12
     114:	0001                	nop
     116:	7600                	ld	s0,40(a2)
     118:	2e6d                	addiw	t3,t3,27
     11a:	6868                	ld	a0,208(s0)
     11c:	0100                	addi	s0,sp,128
     11e:	0000                	unimp
     120:	0500                	addi	s0,sp,640
     122:	0016                	c.slli	zero,0x5
     124:	0209                	addi	tp,tp,2
     126:	0408                	addi	a0,sp,512
     128:	8020                	0x8020
     12a:	0000                	unimp
     12c:	0000                	unimp
     12e:	05012103          	lw	sp,80(sp)
     132:	0305                	addi	t1,t1,1
     134:	0901                	addi	s2,s2,0
     136:	0000                	unimp
     138:	0501                	addi	a0,a0,0
     13a:	030c                	addi	a1,sp,384
     13c:	0900                	addi	s0,sp,144
     13e:	0000                	unimp
     140:	0501                	addi	a0,a0,0
     142:	0003060b          	0x3060b
     146:	0009                	c.nop	2
     148:	0100                	addi	s0,sp,128
     14a:	0c05                	addi	s8,s8,1
     14c:	04090003          	lb	zero,64(s2) # 40 <_start-0x801fffc0>
     150:	0100                	addi	s0,sp,128
     152:	0204                	addi	s1,sp,256
     154:	1705                	addi	a4,a4,-31
     156:	04090e03          	lb	t3,64(s2)
     15a:	0100                	addi	s0,sp,128
     15c:	2505                	addiw	a0,a0,1
     15e:	08090103          	lb	sp,128(s2)
     162:	0100                	addi	s0,sp,128
     164:	1705                	addi	a4,a4,-31
     166:	04097f03          	0x4097f03
     16a:	0100                	addi	s0,sp,128
     16c:	0104                	addi	s1,sp,128
     16e:	0e05                	addi	t3,t3,1
     170:	0200                	addi	s0,sp,256
     172:	0104                	addi	s1,sp,128
     174:	0306                	slli	t1,t1,0x1
     176:	0972                	slli	s2,s2,0x1c
     178:	0004                	0x4
     17a:	0501                	addi	a0,a0,0
     17c:	0030                	addi	a2,sp,8
     17e:	0402                	c.slli64	s0
     180:	0601                	addi	a2,a2,0
     182:	00090003          	lb	zero,0(s2)
     186:	0100                	addi	s0,sp,128
     188:	0204                	addi	s1,sp,256
     18a:	1105                	addi	sp,sp,-31
     18c:	0200                	addi	s0,sp,256
     18e:	0104                	addi	s1,sp,128
     190:	0306                	slli	t1,t1,0x1
     192:	090e                	slli	s2,s2,0x3
     194:	0004                	0x4
     196:	0501                	addi	a0,a0,0
     198:	04020017          	auipc	zero,0x4020
     19c:	0301                	addi	t1,t1,0
     19e:	0900                	addi	s0,sp,144
     1a0:	0000                	unimp
     1a2:	0501                	addi	a0,a0,0
     1a4:	0311                	addi	t1,t1,4
     1a6:	0901                	addi	s2,s2,0
     1a8:	0008                	0x8
     1aa:	0501                	addi	a0,a0,0
     1ac:	0625                	addi	a2,a2,9
     1ae:	00090003          	lb	zero,0(s2)
     1b2:	0100                	addi	s0,sp,128
     1b4:	0104                	addi	s1,sp,128
     1b6:	0505                	addi	a0,a0,1
     1b8:	0306                	slli	t1,t1,0x1
     1ba:	0971                	addi	s2,s2,28
     1bc:	0004                	0x4
     1be:	0501                	addi	a0,a0,0
     1c0:	030c                	addi	a1,sp,384
     1c2:	0900                	addi	s0,sp,144
     1c4:	0000                	unimp
     1c6:	0501                	addi	a0,a0,0
     1c8:	0003060b          	0x3060b
     1cc:	0009                	c.nop	2
     1ce:	0100                	addi	s0,sp,128
     1d0:	0c05                	addi	s8,s8,1
     1d2:	04090003          	lb	zero,64(s2)
     1d6:	0100                	addi	s0,sp,128
     1d8:	0305                	addi	t1,t1,1
     1da:	04090103          	lb	sp,64(s2)
     1de:	0100                	addi	s0,sp,128
     1e0:	0409                	addi	s0,s0,2
     1e2:	0000                	unimp
     1e4:	0101                	addi	sp,sp,0
     1e6:	0304                	addi	s1,sp,384
     1e8:	0b05                	addi	s6,s6,1
     1ea:	0900                	addi	s0,sp,144
     1ec:	0402                	c.slli64	s0
     1ee:	2000                	fld	fs0,0(s0)
     1f0:	0080                	addi	s0,sp,64
     1f2:	0000                	unimp
     1f4:	0300                	addi	s0,sp,384
     1f6:	011a                	slli	sp,sp,0x6
     1f8:	0505                	addi	a0,a0,1
     1fa:	00090103          	lb	sp,0(s2)
     1fe:	0100                	addi	s0,sp,128
     200:	0105                	addi	sp,sp,1
     202:	0306                	slli	t1,t1,0x1
     204:	0901                	addi	s2,s2,0
     206:	0000                	unimp
     208:	0501                	addi	a0,a0,0
     20a:	061d                	addi	a2,a2,7
     20c:	08097203          	0x8097203
     210:	0100                	addi	s0,sp,128
     212:	0505                	addi	a0,a0,1
     214:	00090103          	lb	sp,0(s2)
     218:	0100                	addi	s0,sp,128
     21a:	0404                	addi	s1,sp,512
     21c:	1d05                	addi	s10,s10,-31
     21e:	00090103          	lb	sp,0(s2)
     222:	0100                	addi	s0,sp,128
     224:	0905                	addi	s2,s2,1
     226:	00097b03          	0x97b03
     22a:	0100                	addi	s0,sp,128
     22c:	00090103          	lb	sp,0(s2)
     230:	0100                	addi	s0,sp,128
     232:	00090003          	lb	zero,0(s2)
     236:	0100                	addi	s0,sp,128
     238:	0304                	addi	s1,sp,384
     23a:	1d05                	addi	s10,s10,-31
     23c:	0306                	slli	t1,t1,0x1
     23e:	0902                	c.slli64	s2
     240:	0000                	unimp
     242:	0401                	addi	s0,s0,0
     244:	0504                	addi	s1,sp,640
     246:	0309                	addi	t1,t1,2
     248:	097e                	slli	s2,s2,0x1f
     24a:	0010                	0x10
     24c:	0501                	addi	a0,a0,0
     24e:	0618                	addi	a4,sp,768
     250:	04090003          	lb	zero,64(s2)
     254:	0100                	addi	s0,sp,128
     256:	0905                	addi	s2,s2,1
     258:	00090103          	lb	sp,0(s2)
     25c:	0100                	addi	s0,sp,128
     25e:	00090103          	lb	sp,0(s2)
     262:	0100                	addi	s0,sp,128
     264:	1005                	c.nop	-31
     266:	0306                	slli	t1,t1,0x1
     268:	0900                	addi	s0,sp,144
     26a:	0000                	unimp
     26c:	0401                	addi	s0,s0,0
     26e:	06050503          	lb	a0,96(a0) # 1d060 <_start-0x801e2fa0>
     272:	04090203          	lb	tp,64(s2)
     276:	0100                	addi	s0,sp,128
     278:	00090103          	lb	sp,0(s2)
     27c:	0100                	addi	s0,sp,128
     27e:	00090103          	lb	sp,0(s2)
     282:	0100                	addi	s0,sp,128
     284:	00090003          	lb	zero,0(s2)
     288:	0100                	addi	s0,sp,128
     28a:	1705                	addi	a4,a4,-31
     28c:	04090003          	lb	zero,64(s2)
     290:	0100                	addi	s0,sp,128
     292:	0505                	addi	a0,a0,1
     294:	00090103          	lb	sp,0(s2)
     298:	0100                	addi	s0,sp,128
     29a:	0204                	addi	s1,sp,256
     29c:	4005                	c.li	zero,1
     29e:	0306                	slli	t1,t1,0x1
     2a0:	00c6                	slli	ra,ra,0x11
     2a2:	0009                	c.nop	2
     2a4:	0100                	addi	s0,sp,128
     2a6:	4505                	li	a0,1
     2a8:	04090003          	lb	zero,64(s2)
     2ac:	0100                	addi	s0,sp,128
     2ae:	4005                	c.li	zero,1
     2b0:	04090003          	lb	zero,64(s2)
     2b4:	0100                	addi	s0,sp,128
     2b6:	0304                	addi	s1,sp,384
     2b8:	0b05                	addi	s6,s6,1
     2ba:	097fbc03          	ld	s8,151(t6)
     2be:	0004                	0x4
     2c0:	0501                	addi	a0,a0,0
     2c2:	033c                	addi	a5,sp,392
     2c4:	097e                	slli	s2,s2,0x1f
     2c6:	000c                	0xc
     2c8:	0501                	addi	a0,a0,0
     2ca:	0605                	addi	a2,a2,1
     2cc:	08090103          	lb	sp,128(s2)
     2d0:	0100                	addi	s0,sp,128
     2d2:	0204                	addi	s1,sp,256
     2d4:	3105                	addiw	sp,sp,-31
     2d6:	0900c503          	lbu	a0,144(ra)
     2da:	0000                	unimp
     2dc:	0401                	addi	s0,s0,0
     2de:	03050503          	lb	a0,48(a0)
     2e2:	7fbc                	ld	a5,120(a5)
     2e4:	0009                	c.nop	2
     2e6:	0100                	addi	s0,sp,128
     2e8:	0b05                	addi	s6,s6,1
     2ea:	0306                	slli	t1,t1,0x1
     2ec:	0900                	addi	s0,sp,144
     2ee:	0000                	unimp
     2f0:	0501                	addi	a0,a0,0
     2f2:	0605                	addi	a2,a2,1
     2f4:	18090103          	lb	sp,384(s2)
     2f8:	0100                	addi	s0,sp,128
     2fa:	0d05                	addi	s10,s10,1
     2fc:	0306                	slli	t1,t1,0x1
     2fe:	0900                	addi	s0,sp,144
     300:	0000                	unimp
     302:	0501                	addi	a0,a0,0
     304:	0605                	addi	a2,a2,1
     306:	14090103          	lb	sp,320(s2)
     30a:	0100                	addi	s0,sp,128
     30c:	1405                	addi	s0,s0,-31
     30e:	00090003          	lb	zero,0(s2)
     312:	0100                	addi	s0,sp,128
     314:	2205                	addiw	tp,tp,1
     316:	0200                	addi	s0,sp,256
     318:	0204                	addi	s1,sp,256
     31a:	10090003          	lb	zero,256(s2)
     31e:	0100                	addi	s0,sp,128
     320:	0e05                	addi	t3,t3,1
     322:	0200                	addi	s0,sp,256
     324:	0204                	addi	s1,sp,256
     326:	0306                	slli	t1,t1,0x1
     328:	0900                	addi	s0,sp,144
     32a:	0000                	unimp
     32c:	0501                	addi	a0,a0,0
     32e:	001a                	c.slli	zero,0x6
     330:	0402                	c.slli64	s0
     332:	0602                	c.slli64	a2
     334:	04090003          	lb	zero,64(s2)
     338:	0100                	addi	s0,sp,128
     33a:	2605                	addiw	a2,a2,1
     33c:	0200                	addi	s0,sp,256
     33e:	0304                	addi	s1,sp,384
     340:	0306                	slli	t1,t1,0x1
     342:	0900                	addi	s0,sp,144
     344:	0008                	0x8
     346:	0501                	addi	a0,a0,0
     348:	0005                	c.nop	1
     34a:	0402                	c.slli64	s0
     34c:	0605                	addi	a2,a2,1
     34e:	04090003          	lb	zero,64(s2)
     352:	0100                	addi	s0,sp,128
     354:	1405                	addi	s0,s0,-31
     356:	0200                	addi	s0,sp,256
     358:	0504                	addi	s1,sp,640
     35a:	00090003          	lb	zero,0(s2)
     35e:	0100                	addi	s0,sp,128
     360:	0505                	addi	a0,a0,1
     362:	04090103          	lb	sp,64(s2)
     366:	0100                	addi	s0,sp,128
     368:	0404                	addi	s1,sp,512
     36a:	1c05                	addi	s8,s8,-31
     36c:	00097903          	0x97903
     370:	0100                	addi	s0,sp,128
     372:	0905                	addi	s2,s2,1
     374:	00097a03          	0x97a03
     378:	0100                	addi	s0,sp,128
     37a:	00090103          	lb	sp,0(s2)
     37e:	0100                	addi	s0,sp,128
     380:	00090003          	lb	zero,0(s2)
     384:	0100                	addi	s0,sp,128
     386:	1805                	addi	a6,a6,-31
     388:	04090003          	lb	zero,64(s2)
     38c:	0100                	addi	s0,sp,128
     38e:	0905                	addi	s2,s2,1
     390:	00090103          	lb	sp,0(s2)
     394:	0100                	addi	s0,sp,128
     396:	00090103          	lb	sp,0(s2)
     39a:	0100                	addi	s0,sp,128
     39c:	0304                	addi	s1,sp,384
     39e:	0105                	addi	sp,sp,1
     3a0:	0306                	slli	t1,t1,0x1
     3a2:	0000090b          	0x90b
     3a6:	0501                	addi	a0,a0,0
     3a8:	0615                	addi	a2,a2,5
     3aa:	14090503          	lb	a0,320(s2)
     3ae:	0100                	addi	s0,sp,128
     3b0:	0505                	addi	a0,a0,1
     3b2:	00090103          	lb	sp,0(s2)
     3b6:	0100                	addi	s0,sp,128
     3b8:	00090103          	lb	sp,0(s2)
     3bc:	0100                	addi	s0,sp,128
     3be:	00090103          	lb	sp,0(s2)
     3c2:	0100                	addi	s0,sp,128
     3c4:	1505                	addi	a0,a0,-31
     3c6:	0306                	slli	t1,t1,0x1
     3c8:	097d                	addi	s2,s2,31
     3ca:	0000                	unimp
     3cc:	0501                	addi	a0,a0,0
     3ce:	0903030b          	0x903030b
     3d2:	0008                	0x8
     3d4:	0501                	addi	a0,a0,0
     3d6:	0315                	addi	t1,t1,5
     3d8:	097d                	addi	s2,s2,31
     3da:	0010                	0x10
     3dc:	0501                	addi	a0,a0,0
     3de:	0903030b          	0x903030b
     3e2:	0004                	0x4
     3e4:	0501                	addi	a0,a0,0
     3e6:	0605                	addi	a2,a2,1
     3e8:	04090103          	lb	sp,64(s2)
     3ec:	0100                	addi	s0,sp,128
     3ee:	00090103          	lb	sp,0(s2)
     3f2:	0100                	addi	s0,sp,128
     3f4:	0a05                	addi	s4,s4,1
     3f6:	08090103          	lb	sp,128(s2)
     3fa:	0100                	addi	s0,sp,128
     3fc:	0105                	addi	sp,sp,1
     3fe:	0306                	slli	t1,t1,0x1
     400:	0901                	addi	s2,s2,0
     402:	0000                	unimp
     404:	0501                	addi	a0,a0,0
     406:	097f030f          	0x97f030f
     40a:	0008                	0x8
     40c:	0501                	addi	a0,a0,0
     40e:	0301                	addi	t1,t1,0
     410:	0901                	addi	s2,s2,0
     412:	0008                	0x8
     414:	0501                	addi	a0,a0,0
     416:	001a                	c.slli	zero,0x6
     418:	0402                	c.slli64	s0
     41a:	0601                	addi	a2,a2,0
     41c:	08097e03          	0x8097e03
     420:	0100                	addi	s0,sp,128
     422:	3305                	addiw	t1,t1,-31
     424:	0200                	addi	s0,sp,256
     426:	0104                	addi	s1,sp,128
     428:	0306                	slli	t1,t1,0x1
     42a:	0900                	addi	s0,sp,144
     42c:	0000                	unimp
     42e:	0501                	addi	a0,a0,0
     430:	0034                	addi	a3,sp,8
     432:	0402                	c.slli64	s0
     434:	0301                	addi	t1,t1,0
     436:	0900                	addi	s0,sp,144
     438:	0010                	0x10
     43a:	0501                	addi	a0,a0,0
     43c:	0001                	nop
     43e:	0402                	c.slli64	s0
     440:	0301                	addi	t1,t1,0
     442:	0902                	c.slli64	s2
     444:	0008                	0x8
     446:	0501                	addi	a0,a0,0
     448:	0034                	addi	a3,sp,8
     44a:	0402                	c.slli64	s0
     44c:	0301                	addi	t1,t1,0
     44e:	097e                	slli	s2,s2,0x1f
     450:	0008                	0x8
     452:	0501                	addi	a0,a0,0
     454:	0001                	nop
     456:	0402                	c.slli64	s0
     458:	0301                	addi	t1,t1,0
     45a:	0902                	c.slli64	s2
     45c:	0008                	0x8
     45e:	0501                	addi	a0,a0,0
     460:	061f 0203 0809      	0x8090203061f
     466:	0100                	addi	s0,sp,128
     468:	0505                	addi	a0,a0,1
     46a:	00090103          	lb	sp,0(s2)
     46e:	0100                	addi	s0,sp,128
     470:	1105                	addi	sp,sp,-31
     472:	00090003          	lb	zero,0(s2)
     476:	0100                	addi	s0,sp,128
     478:	00090003          	lb	zero,0(s2)
     47c:	0100                	addi	s0,sp,128
     47e:	1f05                	addi	t5,t5,-31
     480:	0306                	slli	t1,t1,0x1
     482:	0000097f          	radd16	s2,zero,zero
     486:	0501                	addi	a0,a0,0
     488:	0311                	addi	t1,t1,4
     48a:	0901                	addi	s2,s2,0
     48c:	000c                	0xc
     48e:	0501                	addi	a0,a0,0
     490:	00030623          	sb	zero,12(t1) # ffffffffffff900c <_ZL7out_buf+0xffffffff7fdeeebc>
     494:	0409                	addi	s0,s0,2
     496:	0100                	addi	s0,sp,128
     498:	0505                	addi	a0,a0,1
     49a:	00090103          	lb	sp,0(s2)
     49e:	0100                	addi	s0,sp,128
     4a0:	1405                	addi	s0,s0,-31
     4a2:	00090003          	lb	zero,0(s2)
     4a6:	0100                	addi	s0,sp,128
     4a8:	00090003          	lb	zero,0(s2)
     4ac:	0100                	addi	s0,sp,128
     4ae:	2a05                	addiw	s4,s4,1
     4b0:	04090003          	lb	zero,64(s2)
     4b4:	0100                	addi	s0,sp,128
     4b6:	0505                	addi	a0,a0,1
     4b8:	00090303          	lb	t1,0(s2)
     4bc:	0100                	addi	s0,sp,128
     4be:	0504                	addi	s1,sp,640
     4c0:	3305                	addiw	t1,t1,-31
     4c2:	00090403          	lb	s0,0(s2)
     4c6:	0100                	addi	s0,sp,128
     4c8:	0304                	addi	s1,sp,384
     4ca:	0505                	addi	a0,a0,1
     4cc:	0306                	slli	t1,t1,0x1
     4ce:	097c                	addi	a5,sp,156
     4d0:	0000                	unimp
     4d2:	0501                	addi	a0,a0,0
     4d4:	0609                	addi	a2,a2,2
     4d6:	04091503          	lh	a0,64(s2)
     4da:	0100                	addi	s0,sp,128
     4dc:	0d05                	addi	s10,s10,1
     4de:	10090503          	lb	a0,256(s2)
     4e2:	0100                	addi	s0,sp,128
     4e4:	1105                	addi	sp,sp,-31
     4e6:	00090103          	lb	sp,0(s2)
     4ea:	0100                	addi	s0,sp,128
     4ec:	1705                	addi	a4,a4,-31
     4ee:	0306                	slli	t1,t1,0x1
     4f0:	0900                	addi	s0,sp,144
     4f2:	0000                	unimp
     4f4:	0501                	addi	a0,a0,0
     4f6:	0611                	addi	a2,a2,4
     4f8:	0c090103          	lb	sp,192(s2)
     4fc:	0100                	addi	s0,sp,128
     4fe:	1505                	addi	a0,a0,-31
     500:	0306                	slli	t1,t1,0x1
     502:	0900                	addi	s0,sp,144
     504:	0000                	unimp
     506:	0501                	addi	a0,a0,0
     508:	0609                	addi	a2,a2,2
     50a:	04090203          	lb	tp,64(s2)
     50e:	0100                	addi	s0,sp,128
     510:	00090003          	lb	zero,0(s2)
     514:	0100                	addi	s0,sp,128
     516:	1e05                	addi	t3,t3,-31
     518:	08090003          	lb	zero,128(s2)
     51c:	0100                	addi	s0,sp,128
     51e:	0105                	addi	sp,sp,1
     520:	0306                	slli	t1,t1,0x1
     522:	00000903          	lb	s2,0(zero) # 0 <_start-0x80200000>
     526:	0501                	addi	a0,a0,0
     528:	0609                	addi	a2,a2,2
     52a:	10096003          	lwu	zero,256(s2)
     52e:	0100                	addi	s0,sp,128
     530:	1905                	addi	s2,s2,-31
     532:	0306                	slli	t1,t1,0x1
     534:	0900                	addi	s0,sp,144
     536:	0000                	unimp
     538:	0501                	addi	a0,a0,0
     53a:	0309                	addi	t1,t1,2
     53c:	0900                	addi	s0,sp,144
     53e:	0008                	0x8
     540:	0501                	addi	a0,a0,0
     542:	060d                	addi	a2,a2,3
     544:	08091003          	lh	zero,128(s2)
     548:	0100                	addi	s0,sp,128
     54a:	1105                	addi	sp,sp,-31
     54c:	00090103          	lb	sp,0(s2)
     550:	0100                	addi	s0,sp,128
     552:	0105                	addi	sp,sp,1
     554:	0306                	slli	t1,t1,0x1
     556:	0000090f          	0x90f
     55a:	0501                	addi	a0,a0,0
     55c:	0315                	addi	t1,t1,5
     55e:	0971                	addi	s2,s2,28
     560:	000c                	0xc
     562:	0501                	addi	a0,a0,0
     564:	060d                	addi	a2,a2,3
     566:	04090403          	lb	s0,64(s2)
     56a:	0100                	addi	s0,sp,128
     56c:	00090103          	lb	sp,0(s2)
     570:	0100                	addi	s0,sp,128
     572:	1905                	addi	s2,s2,-31
     574:	00090003          	lb	zero,0(s2)
     578:	0100                	addi	s0,sp,128
     57a:	2605                	addiw	a2,a2,1
     57c:	0306                	slli	t1,t1,0x1
     57e:	0900                	addi	s0,sp,144
     580:	0000                	unimp
     582:	0501                	addi	a0,a0,0
     584:	0629                	addi	a2,a2,10
     586:	04090003          	lb	zero,64(s2)
     58a:	0100                	addi	s0,sp,128
     58c:	0905                	addi	s2,s2,1
     58e:	00090703          	lb	a4,0(s2)
     592:	0100                	addi	s0,sp,128
     594:	00090003          	lb	zero,0(s2)
     598:	0100                	addi	s0,sp,128
     59a:	1e05                	addi	t3,t3,-31
     59c:	08090003          	lb	zero,128(s2)
     5a0:	0100                	addi	s0,sp,128
     5a2:	0105                	addi	sp,sp,1
     5a4:	0306                	slli	t1,t1,0x1
     5a6:	00000903          	lb	s2,0(zero) # 0 <_start-0x80200000>
     5aa:	0501                	addi	a0,a0,0
     5ac:	060d                	addi	a2,a2,3
     5ae:	10096103          	lwu	sp,256(s2)
     5b2:	0100                	addi	s0,sp,128
     5b4:	00090703          	lb	a4,0(s2)
     5b8:	0100                	addi	s0,sp,128
     5ba:	1705                	addi	a4,a4,-31
     5bc:	00090003          	lb	zero,0(s2)
     5c0:	0100                	addi	s0,sp,128
     5c2:	0105                	addi	sp,sp,1
     5c4:	0306                	slli	t1,t1,0x1
     5c6:	0918                	addi	a4,sp,144
     5c8:	0000                	unimp
     5ca:	0501                	addi	a0,a0,0
     5cc:	032c                	addi	a1,sp,392
     5ce:	0968                	addi	a0,sp,156
     5d0:	000c                	0xc
     5d2:	0501                	addi	a0,a0,0
     5d4:	0636                	slli	a2,a2,0xd
     5d6:	04091903          	lh	s2,64(s2)
     5da:	0100                	addi	s0,sp,128
     5dc:	0505                	addi	a0,a0,1
     5de:	00090103          	lb	sp,0(s2)
     5e2:	0100                	addi	s0,sp,128
     5e4:	00090003          	lb	zero,0(s2)
     5e8:	0100                	addi	s0,sp,128
     5ea:	1905                	addi	s2,s2,-31
     5ec:	04090003          	lb	zero,64(s2)
     5f0:	0100                	addi	s0,sp,128
     5f2:	0505                	addi	a0,a0,1
     5f4:	00090103          	lb	sp,0(s2)
     5f8:	0100                	addi	s0,sp,128
     5fa:	1205                	addi	tp,tp,-31
     5fc:	0306                	slli	t1,t1,0x1
     5fe:	0900                	addi	s0,sp,144
     600:	0000                	unimp
     602:	0501                	addi	a0,a0,0
     604:	0605                	addi	a2,a2,1
     606:	78090103          	lb	sp,1920(s2)
     60a:	0100                	addi	s0,sp,128
     60c:	1105                	addi	sp,sp,-31
     60e:	0306                	slli	t1,t1,0x1
     610:	0900                	addi	s0,sp,144
     612:	0000                	unimp
     614:	0501                	addi	a0,a0,0
     616:	0605                	addi	a2,a2,1
     618:	04090103          	lb	sp,64(s2)
     61c:	0100                	addi	s0,sp,128
     61e:	1505                	addi	a0,a0,-31
     620:	0306                	slli	t1,t1,0x1
     622:	0900                	addi	s0,sp,144
     624:	0000                	unimp
     626:	0501                	addi	a0,a0,0
     628:	0605                	addi	a2,a2,1
     62a:	78090103          	lb	sp,1920(s2)
     62e:	0100                	addi	s0,sp,128
     630:	00090003          	lb	zero,0(s2)
     634:	0100                	addi	s0,sp,128
     636:	1905                	addi	s2,s2,-31
     638:	04090003          	lb	zero,64(s2)
     63c:	0100                	addi	s0,sp,128
     63e:	0505                	addi	a0,a0,1
     640:	00090103          	lb	sp,0(s2)
     644:	0100                	addi	s0,sp,128
     646:	00090003          	lb	zero,0(s2)
     64a:	0100                	addi	s0,sp,128
     64c:	1305                	addi	t1,t1,-31
     64e:	04090003          	lb	zero,64(s2)
     652:	0100                	addi	s0,sp,128
     654:	0105                	addi	sp,sp,1
     656:	0306                	slli	t1,t1,0x1
     658:	0901                	addi	s2,s2,0
     65a:	0000                	unimp
     65c:	0501                	addi	a0,a0,0
     65e:	0614                	addi	a3,sp,768
     660:	00092103          	lw	sp,0(s2)
     664:	0100                	addi	s0,sp,128
     666:	0505                	addi	a0,a0,1
     668:	00090103          	lb	sp,0(s2)
     66c:	0100                	addi	s0,sp,128
     66e:	3b05                	addiw	s6,s6,-31
     670:	0306                	slli	t1,t1,0x1
     672:	0972                	slli	s2,s2,0x1c
     674:	0000                	unimp
     676:	0501                	addi	a0,a0,0
     678:	0320                	addi	s0,sp,392
     67a:	0906                	slli	s2,s2,0x1
     67c:	0008                	0x8
     67e:	0301                	addi	t1,t1,0
     680:	097c                	addi	a5,sp,156
     682:	0008                	0x8
     684:	0301                	addi	t1,t1,0
     686:	0902                	c.slli64	s2
     688:	0004                	0x4
     68a:	0301                	addi	t1,t1,0
     68c:	0902                	c.slli64	s2
     68e:	0004                	0x4
     690:	0301                	addi	t1,t1,0
     692:	097c                	addi	a5,sp,156
     694:	0008                	0x8
     696:	0301                	addi	t1,t1,0
     698:	0904                	addi	s1,sp,144
     69a:	0008                	0x8
     69c:	0501                	addi	a0,a0,0
     69e:	0309                	addi	t1,t1,2
     6a0:	0908                	addi	a0,sp,144
     6a2:	0004                	0x4
     6a4:	0501                	addi	a0,a0,0
     6a6:	0320                	addi	s0,sp,392
     6a8:	0974                	addi	a3,sp,156
     6aa:	0008                	0x8
     6ac:	0301                	addi	t1,t1,0
     6ae:	0902                	c.slli64	s2
     6b0:	0004                	0x4
     6b2:	0501                	addi	a0,a0,0
     6b4:	0309                	addi	t1,t1,2
     6b6:	090a                	slli	s2,s2,0x2
     6b8:	0004                	0x4
     6ba:	0501                	addi	a0,a0,0
     6bc:	0605                	addi	a2,a2,1
     6be:	08090103          	lb	sp,128(s2)
     6c2:	0100                	addi	s0,sp,128
     6c4:	00096e03          	lwu	t3,0(s2)
     6c8:	0100                	addi	s0,sp,128
     6ca:	00090103          	lb	sp,0(s2)
     6ce:	0100                	addi	s0,sp,128
     6d0:	00090103          	lb	sp,0(s2)
     6d4:	0100                	addi	s0,sp,128
     6d6:	00090103          	lb	sp,0(s2)
     6da:	0100                	addi	s0,sp,128
     6dc:	2005                	0x2005
     6de:	0306                	slli	t1,t1,0x1
     6e0:	0904                	addi	s1,sp,144
     6e2:	0000                	unimp
     6e4:	0501                	addi	a0,a0,0
     6e6:	030d                	addi	t1,t1,3
     6e8:	097c                	addi	a5,sp,156
     6ea:	000c                	0xc
     6ec:	0501                	addi	a0,a0,0
     6ee:	0320                	addi	s0,sp,392
     6f0:	0906                	slli	s2,s2,0x1
     6f2:	0004                	0x4
     6f4:	0501                	addi	a0,a0,0
     6f6:	0314                	addi	a3,sp,384
     6f8:	00040907          	0x40907
     6fc:	0501                	addi	a0,a0,0
     6fe:	030d                	addi	t1,t1,3
     700:	00040973          	0x40973
     704:	0501                	addi	a0,a0,0
     706:	0900033b          	0x900033b
     70a:	0004                	0x4
     70c:	0501                	addi	a0,a0,0
     70e:	0320                	addi	s0,sp,392
     710:	0906                	slli	s2,s2,0x1
     712:	0004                	0x4
     714:	0501                	addi	a0,a0,0
     716:	0314                	addi	a3,sp,384
     718:	00040907          	0x40907
     71c:	0501                	addi	a0,a0,0
     71e:	030d                	addi	t1,t1,3
     720:	00100973          	0x100973
     724:	0501                	addi	a0,a0,0
     726:	0320                	addi	s0,sp,392
     728:	0902                	c.slli64	s2
     72a:	0008                	0x8
     72c:	0301                	addi	t1,t1,0
     72e:	0904                	addi	s1,sp,144
     730:	0004                	0x4
     732:	0501                	addi	a0,a0,0
     734:	030d                	addi	t1,t1,3
     736:	097a                	slli	s2,s2,0x1e
     738:	0004                	0x4
     73a:	0501                	addi	a0,a0,0
     73c:	0605                	addi	a2,a2,1
     73e:	04090103          	lb	sp,64(s2)
     742:	0100                	addi	s0,sp,128
     744:	00090103          	lb	sp,0(s2)
     748:	0100                	addi	s0,sp,128
     74a:	00090103          	lb	sp,0(s2)
     74e:	0100                	addi	s0,sp,128
     750:	00090103          	lb	sp,0(s2)
     754:	0100                	addi	s0,sp,128
     756:	00090103          	lb	sp,0(s2)
     75a:	0100                	addi	s0,sp,128
     75c:	00090103          	lb	sp,0(s2)
     760:	0100                	addi	s0,sp,128
     762:	2005                	0x2005
     764:	0306                	slli	t1,t1,0x1
     766:	097c                	addi	a5,sp,156
     768:	0000                	unimp
     76a:	0301                	addi	t1,t1,0
     76c:	0902                	c.slli64	s2
     76e:	0004                	0x4
     770:	0301                	addi	t1,t1,0
     772:	0902                	c.slli64	s2
     774:	0004                	0x4
     776:	0501                	addi	a0,a0,0
     778:	0605                	addi	a2,a2,1
     77a:	04090103          	lb	sp,64(s2)
     77e:	0100                	addi	s0,sp,128
     780:	00090003          	lb	zero,0(s2)
     784:	0100                	addi	s0,sp,128
     786:	0504                	addi	s1,sp,640
     788:	0d05                	addi	s10,s10,1
     78a:	00094e03          	lbu	t3,0(s2)
     78e:	0100                	addi	s0,sp,128
     790:	0304                	addi	s1,sp,384
     792:	0505                	addi	a0,a0,1
     794:	0306                	slli	t1,t1,0x1
     796:	0932                	slli	s2,s2,0xc
     798:	0000                	unimp
     79a:	0501                	addi	a0,a0,0
     79c:	0620                	addi	s0,sp,776
     79e:	04090003          	lb	zero,64(s2)
     7a2:	0100                	addi	s0,sp,128
     7a4:	0505                	addi	a0,a0,1
     7a6:	00090103          	lb	sp,0(s2)
     7aa:	0100                	addi	s0,sp,128
     7ac:	00090003          	lb	zero,0(s2)
     7b0:	0100                	addi	s0,sp,128
     7b2:	1905                	addi	s2,s2,-31
     7b4:	04090003          	lb	zero,64(s2)
     7b8:	0100                	addi	s0,sp,128
     7ba:	0505                	addi	a0,a0,1
     7bc:	00090803          	lb	a6,0(s2)
     7c0:	0100                	addi	s0,sp,128
     7c2:	00090003          	lb	zero,0(s2)
     7c6:	0100                	addi	s0,sp,128
     7c8:	1f05                	addi	t5,t5,-31
     7ca:	0c090003          	lb	zero,192(s2)
     7ce:	0100                	addi	s0,sp,128
     7d0:	0505                	addi	a0,a0,1
     7d2:	00090103          	lb	sp,0(s2)
     7d6:	0100                	addi	s0,sp,128
     7d8:	00090003          	lb	zero,0(s2)
     7dc:	0100                	addi	s0,sp,128
     7de:	2105                	addiw	sp,sp,1
     7e0:	0c090003          	lb	zero,192(s2)
     7e4:	0100                	addi	s0,sp,128
     7e6:	0505                	addi	a0,a0,1
     7e8:	00090103          	lb	sp,0(s2)
     7ec:	0100                	addi	s0,sp,128
     7ee:	00090003          	lb	zero,0(s2)
     7f2:	0100                	addi	s0,sp,128
     7f4:	2b05                	addiw	s6,s6,1
     7f6:	08090003          	lb	zero,128(s2)
     7fa:	0100                	addi	s0,sp,128
     7fc:	0505                	addi	a0,a0,1
     7fe:	00090103          	lb	sp,0(s2)
     802:	0100                	addi	s0,sp,128
     804:	00090003          	lb	zero,0(s2)
     808:	0100                	addi	s0,sp,128
     80a:	2405                	addiw	s0,s0,1
     80c:	04090003          	lb	zero,64(s2)
     810:	0100                	addi	s0,sp,128
     812:	0505                	addi	a0,a0,1
     814:	00090103          	lb	sp,0(s2)
     818:	0100                	addi	s0,sp,128
     81a:	00095a03          	lhu	s4,0(s2)
     81e:	0100                	addi	s0,sp,128
     820:	0404                	addi	s1,sp,512
     822:	1d05                	addi	s10,s10,-31
     824:	097fb903          	ld	s2,151(t6)
     828:	0000                	unimp
     82a:	0501                	addi	a0,a0,0
     82c:	0309                	addi	t1,t1,2
     82e:	0000097b          	0x97b
     832:	0301                	addi	t1,t1,0
     834:	0901                	addi	s2,s2,0
     836:	0000                	unimp
     838:	0301                	addi	t1,t1,0
     83a:	0900                	addi	s0,sp,144
     83c:	0000                	unimp
     83e:	0501                	addi	a0,a0,0
     840:	0318                	addi	a4,sp,384
     842:	0900                	addi	s0,sp,144
     844:	0004                	0x4
     846:	0501                	addi	a0,a0,0
     848:	0309                	addi	t1,t1,2
     84a:	0901                	addi	s2,s2,0
     84c:	0000                	unimp
     84e:	0301                	addi	t1,t1,0
     850:	0901                	addi	s2,s2,0
     852:	0000                	unimp
     854:	0501                	addi	a0,a0,0
     856:	0610                	addi	a2,sp,768
     858:	00090003          	lb	zero,0(s2)
     85c:	0100                	addi	s0,sp,128
     85e:	0304                	addi	s1,sp,384
     860:	0505                	addi	a0,a0,1
     862:	0306                	slli	t1,t1,0x1
     864:	00ca                	slli	ra,ra,0x12
     866:	0409                	addi	s0,s0,2
     868:	0100                	addi	s0,sp,128
     86a:	0b05                	addi	s6,s6,1
     86c:	0306                	slli	t1,t1,0x1
     86e:	0900                	addi	s0,sp,144
     870:	0000                	unimp
     872:	0501                	addi	a0,a0,0
     874:	0605                	addi	a2,a2,1
     876:	10090103          	lb	sp,256(s2)
     87a:	0100                	addi	s0,sp,128
     87c:	0204                	addi	s1,sp,256
     87e:	3105                	addiw	sp,sp,-31
     880:	00090003          	lb	zero,0(s2)
     884:	0100                	addi	s0,sp,128
     886:	0304                	addi	s1,sp,384
     888:	4105                	li	sp,1
     88a:	0306                	slli	t1,t1,0x1
     88c:	0900                	addi	s0,sp,144
     88e:	0000                	unimp
     890:	0501                	addi	a0,a0,0
     892:	0359                	addi	t1,t1,22
     894:	0900                	addi	s0,sp,144
     896:	0004                	0x4
     898:	0401                	addi	s0,s0,0
     89a:	0502                	c.slli64	a0
     89c:	0345                	addi	t1,t1,17
     89e:	0900                	addi	s0,sp,144
     8a0:	0004                	0x4
     8a2:	0401                	addi	s0,s0,0
     8a4:	03340503          	lb	a0,51(s0) # ffffffffffff8033 <_ZL7out_buf+0xffffffff7fdedee3>
     8a8:	0900                	addi	s0,sp,144
     8aa:	0004                	0x4
     8ac:	0501                	addi	a0,a0,0
     8ae:	0359                	addi	t1,t1,22
     8b0:	0900                	addi	s0,sp,144
     8b2:	0008                	0x8
     8b4:	0501                	addi	a0,a0,0
     8b6:	0334                	addi	a3,sp,392
     8b8:	0900                	addi	s0,sp,144
     8ba:	000c                	0xc
     8bc:	0501                	addi	a0,a0,0
     8be:	0605                	addi	a2,a2,1
     8c0:	04090103          	lb	sp,64(s2)
     8c4:	0100                	addi	s0,sp,128
     8c6:	00090003          	lb	zero,0(s2)
     8ca:	0100                	addi	s0,sp,128
     8cc:	2405                	addiw	s0,s0,1
     8ce:	08090003          	lb	zero,128(s2)
     8d2:	0100                	addi	s0,sp,128
     8d4:	1205                	addi	tp,tp,-31
     8d6:	00092603          	lw	a2,0(s2)
     8da:	0100                	addi	s0,sp,128
     8dc:	0d05                	addi	s10,s10,1
     8de:	0306                	slli	t1,t1,0x1
     8e0:	0900                	addi	s0,sp,144
     8e2:	0000                	unimp
     8e4:	0501                	addi	a0,a0,0
     8e6:	0901030f          	0x901030f
     8ea:	0004                	0x4
     8ec:	0501                	addi	a0,a0,0
     8ee:	0312                	slli	t1,t1,0x4
     8f0:	0008097f          	radd16	s2,a6,zero
     8f4:	0501                	addi	a0,a0,0
     8f6:	0009                	c.nop	2
     8f8:	0402                	c.slli64	s0
     8fa:	0602                	c.slli64	a2
     8fc:	04090103          	lb	sp,64(s2)
     900:	0100                	addi	s0,sp,128
     902:	0f05                	addi	t5,t5,1
     904:	0200                	addi	s0,sp,256
     906:	0204                	addi	s1,sp,256
     908:	0306                	slli	t1,t1,0x1
     90a:	0900                	addi	s0,sp,144
     90c:	0000                	unimp
     90e:	0501                	addi	a0,a0,0
     910:	0005                	c.nop	1
     912:	0402                	c.slli64	s0
     914:	0302                	c.slli64	t1
     916:	0008097f          	radd16	s2,a6,zero
     91a:	0501                	addi	a0,a0,0
     91c:	0402000f          	0x402000f
     920:	0302                	c.slli64	t1
     922:	0901                	addi	s2,s2,0
     924:	0004                	0x4
     926:	0501                	addi	a0,a0,0
     928:	0005                	c.nop	1
     92a:	0402                	c.slli64	s0
     92c:	0602                	c.slli64	a2
     92e:	04097f03          	0x4097f03
     932:	0100                	addi	s0,sp,128
     934:	1205                	addi	tp,tp,-31
     936:	0200                	addi	s0,sp,256
     938:	0204                	addi	s1,sp,256
     93a:	00090003          	lb	zero,0(s2)
     93e:	0100                	addi	s0,sp,128
     940:	0505                	addi	a0,a0,1
     942:	04090203          	lb	tp,64(s2)
     946:	0100                	addi	s0,sp,128
     948:	00090003          	lb	zero,0(s2)
     94c:	0100                	addi	s0,sp,128
     94e:	2c05                	addiw	s8,s8,1
     950:	08090003          	lb	zero,128(s2)
     954:	0100                	addi	s0,sp,128
     956:	0505                	addi	a0,a0,1
     958:	00090103          	lb	sp,0(s2)
     95c:	0100                	addi	s0,sp,128
     95e:	0105                	addi	sp,sp,1
     960:	0306                	slli	t1,t1,0x1
     962:	00000903          	lb	s2,0(zero) # 0 <_start-0x80200000>
     966:	0501                	addi	a0,a0,0
     968:	0309                	addi	t1,t1,2
     96a:	097d                	addi	s2,s2,31
     96c:	0014                	0x14
     96e:	0901                	addi	s2,s2,0
     970:	0004                	0x4
     972:	0100                	addi	s0,sp,128
     974:	e401                	bnez	s0,97c <_start-0x801ff684>
     976:	0000                	unimp
     978:	0300                	addi	s0,sp,384
     97a:	4200                	lw	s0,0(a2)
     97c:	0000                	unimp
     97e:	0100                	addi	s0,sp,128
     980:	fb01                	bnez	a4,890 <_start-0x801ff770>
     982:	0d0e                	slli	s10,s10,0x3
     984:	0100                	addi	s0,sp,128
     986:	0101                	addi	sp,sp,0
     988:	0001                	nop
     98a:	0000                	unimp
     98c:	0001                	nop
     98e:	0100                	addi	s0,sp,128
     990:	2e2e                	fld	ft8,200(sp)
     992:	636e692f          	0x636e692f
     996:	756c                	ld	a1,232(a0)
     998:	6564                	ld	s1,200(a0)
     99a:	0000                	unimp
     99c:	7375                	lui	t1,0xffffd
     99e:	7265                	lui	tp,0xffff9
     9a0:	632e                	ld	t1,200(sp)
     9a2:	00000063          	beqz	zero,9a2 <_start-0x801ff65e>
     9a6:	6b00                	ld	s0,16(a4)
     9a8:	7265                	lui	tp,0xffff9
     9aa:	656e                	ld	a0,216(sp)
     9ac:	2e6c                	fld	fa1,216(a2)
     9ae:	6868                	ld	a0,208(s0)
     9b0:	0100                	addi	s0,sp,128
     9b2:	0000                	unimp
     9b4:	7672                	ld	a2,312(sp)
     9b6:	2e727363          	bgeu	tp,t2,c9c <_start-0x801ff364>
     9ba:	6868                	ld	a0,208(s0)
     9bc:	0100                	addi	s0,sp,128
     9be:	0000                	unimp
     9c0:	0500                	addi	s0,sp,640
     9c2:	0010                	0x10
     9c4:	0209                	addi	tp,tp,2
     9c6:	043c                	addi	a5,sp,520
     9c8:	8020                	0x8020
     9ca:	0000                	unimp
     9cc:	0000                	unimp
     9ce:	0514                	addi	a3,sp,640
     9d0:	0005                	c.nop	1
     9d2:	0402                	c.slli64	s0
     9d4:	0301                	addi	t1,t1,0
     9d6:	0901                	addi	s2,s2,0
     9d8:	0000                	unimp
     9da:	0501                	addi	a0,a0,0
     9dc:	0009                	c.nop	2
     9de:	0402                	c.slli64	s0
     9e0:	0301                	addi	t1,t1,0
     9e2:	0901                	addi	s2,s2,0
     9e4:	0000                	unimp
     9e6:	0401                	addi	s0,s0,0
     9e8:	0002                	c.slli64	zero
     9ea:	0402                	c.slli64	s0
     9ec:	0301                	addi	t1,t1,0
     9ee:	0908                	addi	a0,sp,144
     9f0:	0000                	unimp
     9f2:	0001                	nop
     9f4:	0402                	c.slli64	s0
     9f6:	0301                	addi	t1,t1,0
     9f8:	0901                	addi	s2,s2,0
     9fa:	0000                	unimp
     9fc:	0001                	nop
     9fe:	0402                	c.slli64	s0
     a00:	0301                	addi	t1,t1,0
     a02:	0900                	addi	s0,sp,144
     a04:	0000                	unimp
     a06:	0501                	addi	a0,a0,0
     a08:	0018                	0x18
     a0a:	0402                	c.slli64	s0
     a0c:	0301                	addi	t1,t1,0
     a0e:	0900                	addi	s0,sp,144
     a10:	0004                	0x4
     a12:	0501                	addi	a0,a0,0
     a14:	0009                	c.nop	2
     a16:	0402                	c.slli64	s0
     a18:	0301                	addi	t1,t1,0
     a1a:	0901                	addi	s2,s2,0
     a1c:	0000                	unimp
     a1e:	0001                	nop
     a20:	0402                	c.slli64	s0
     a22:	0301                	addi	t1,t1,0
     a24:	0901                	addi	s2,s2,0
     a26:	0000                	unimp
     a28:	0401                	addi	s0,s0,0
     a2a:	0001                	nop
     a2c:	0402                	c.slli64	s0
     a2e:	0301                	addi	t1,t1,0
     a30:	0976                	slli	s2,s2,0x1d
     a32:	0000                	unimp
     a34:	0001                	nop
     a36:	0402                	c.slli64	s0
     a38:	0301                	addi	t1,t1,0
     a3a:	0900                	addi	s0,sp,144
     a3c:	0000                	unimp
     a3e:	0501                	addi	a0,a0,0
     a40:	0016                	c.slli	zero,0x5
     a42:	0402                	c.slli64	s0
     a44:	0301                	addi	t1,t1,0
     a46:	0900                	addi	s0,sp,144
     a48:	0004                	0x4
     a4a:	0501                	addi	a0,a0,0
     a4c:	0005                	c.nop	1
     a4e:	0402                	c.slli64	s0
     a50:	0301                	addi	t1,t1,0
     a52:	097e                	slli	s2,s2,0x1f
     a54:	0000                	unimp
     a56:	0901                	addi	s2,s2,0
     a58:	0010                	0x10
     a5a:	0100                	addi	s0,sp,128
     a5c:	2d01                	sext.w	s10,s10
     a5e:	0009                	c.nop	2
     a60:	0300                	addi	s0,sp,384
     a62:	b300                	fsd	fs0,32(a4)
     a64:	0000                	unimp
     a66:	0100                	addi	s0,sp,128
     a68:	fb01                	bnez	a4,978 <_start-0x801ff688>
     a6a:	0d0e                	slli	s10,s10,0x3
     a6c:	0100                	addi	s0,sp,128
     a6e:	0101                	addi	sp,sp,0
     a70:	0001                	nop
     a72:	0000                	unimp
     a74:	0001                	nop
     a76:	0100                	addi	s0,sp,128
     a78:	2e2e                	fld	ft8,200(sp)
     a7a:	2f00                	fld	fs0,24(a4)
     a7c:	6f68                	ld	a0,216(a4)
     a7e:	656d                	lui	a0,0x1b
     a80:	63797a2f          	0x63797a2f
     a84:	6c702e2f          	0x6c702e2f
     a88:	7461                	lui	s0,0xffff8
     a8a:	6f66                	ld	t5,88(sp)
     a8c:	6d72                	ld	s10,280(sp)
     a8e:	6f69                	lui	t5,0x1a
     a90:	6361702f          	0x6361702f
     a94:	6567616b          	0x6567616b
     a98:	6f742f73          	csrrs	t5,0x6f7,s0
     a9c:	68636c6f          	jal	s8,37122 <_start-0x801c8ede>
     aa0:	6961                	lui	s2,0x18
     aa2:	2d6e                	fld	fs10,216(sp)
     aa4:	32336467          	0x32336467
     aa8:	2f76                	fld	ft10,344(sp)
     aaa:	696c                	ld	a1,208(a0)
     aac:	2f62                	fld	ft10,24(sp)
     aae:	2f636367          	0x2f636367
     ab2:	6972                	ld	s2,280(sp)
     ab4:	2d766373          	csrrsi	t1,0x2d7,12
     ab8:	756e                	ld	a0,248(sp)
     aba:	69656c63          	bltu	a0,s6,1152 <_start-0x801feeae>
     abe:	652d                	lui	a0,0xb
     ac0:	666c                	ld	a1,200(a2)
     ac2:	322e392f          	0x322e392f
     ac6:	302e                	fld	ft0,232(sp)
     ac8:	636e692f          	0x636e692f
     acc:	756c                	ld	a1,232(a0)
     ace:	6564                	ld	s1,200(a0)
     ad0:	2e00                	fld	fs0,24(a2)
     ad2:	2f2e                	fld	ft10,200(sp)
     ad4:	6e69                	lui	t3,0x1a
     ad6:	64756c63          	bltu	a0,t2,112e <_start-0x801feed2>
     ada:	0065                	c.nop	25
     adc:	6b00                	ld	s0,16(a4)
     ade:	696c                	ld	a1,208(a0)
     ae0:	2e62                	fld	ft8,24(sp)
     ae2:	01006363          	bltu	zero,a6,ae8 <_start-0x801ff518>
     ae6:	0000                	unimp
     ae8:	64647473          	csrrci	s0,0x646,8
     aec:	6665                	lui	a2,0x19
     aee:	682e                	ld	a6,200(sp)
     af0:	0200                	addi	s0,sp,256
     af2:	0000                	unimp
     af4:	61647473          	csrrci	s0,0x616,8
     af8:	6772                	ld	a4,280(sp)
     afa:	682e                	ld	a6,200(sp)
     afc:	0200                	addi	s0,sp,256
     afe:	0000                	unimp
     b00:	6c70                	ld	a2,216(s0)
     b02:	7461                	lui	s0,0xffff8
     b04:	6f66                	ld	t5,88(sp)
     b06:	6d72                	ld	s10,280(sp)
     b08:	682e                	ld	a6,200(sp)
     b0a:	0300                	addi	s0,sp,384
     b0c:	0000                	unimp
     b0e:	62696c6b          	0x62696c6b
     b12:	682e                	ld	a6,200(sp)
     b14:	0068                	addi	a0,sp,12
     b16:	00000003          	lb	zero,0(zero) # 0 <_start-0x80200000>
     b1a:	0105                	addi	sp,sp,1
     b1c:	0900                	addi	s0,sp,144
     b1e:	5402                	lw	s0,32(sp)
     b20:	2004                	fld	fs1,0(s0)
     b22:	0080                	addi	s0,sp,64
     b24:	0000                	unimp
     b26:	1a00                	addi	s0,sp,304
     b28:	0205                	addi	tp,tp,1
     b2a:	00090103          	lb	sp,0(s2) # 18000 <_start-0x801e8000>
     b2e:	0100                	addi	s0,sp,128
     b30:	00090103          	lb	sp,0(s2)
     b34:	0100                	addi	s0,sp,128
     b36:	00090103          	lb	sp,0(s2)
     b3a:	0100                	addi	s0,sp,128
     b3c:	00090103          	lb	sp,0(s2)
     b40:	0100                	addi	s0,sp,128
     b42:	0a05                	addi	s4,s4,1
     b44:	00090003          	lb	zero,0(s2)
     b48:	0100                	addi	s0,sp,128
     b4a:	0905                	addi	s2,s2,1
     b4c:	0306                	slli	t1,t1,0x1
     b4e:	0900                	addi	s0,sp,144
     b50:	0000                	unimp
     b52:	0501                	addi	a0,a0,0
     b54:	0301                	addi	t1,t1,0
     b56:	097c                	addi	a5,sp,156
     b58:	0004                	0x4
     b5a:	0501                	addi	a0,a0,0
     b5c:	030a                	slli	t1,t1,0x2
     b5e:	0904                	addi	s1,sp,144
     b60:	0004                	0x4
     b62:	0501                	addi	a0,a0,0
     b64:	0301                	addi	t1,t1,0
     b66:	097c                	addi	a5,sp,156
     b68:	0004                	0x4
     b6a:	0501                	addi	a0,a0,0
     b6c:	0309                	addi	t1,t1,2
     b6e:	00180903          	lb	s2,1(a6) # ffffffffffff9001 <_ZL7out_buf+0xffffffff7fdeeeb1>
     b72:	0501                	addi	a0,a0,0
     b74:	0306                	slli	t1,t1,0x1
     b76:	0004097f          	radd16	s2,s0,zero
     b7a:	0301                	addi	t1,t1,0
     b7c:	0004097f          	radd16	s2,s0,zero
     b80:	0501                	addi	a0,a0,0
     b82:	030a                	slli	t1,t1,0x2
     b84:	00d2                	slli	ra,ra,0x14
     b86:	0409                	addi	s0,s0,2
     b88:	0100                	addi	s0,sp,128
     b8a:	1c05                	addi	s8,s8,-31
     b8c:	10095b03          	lhu	s6,256(s2)
     b90:	0100                	addi	s0,sp,128
     b92:	1005                	c.nop	-31
     b94:	04097b03          	0x4097b03
     b98:	0100                	addi	s0,sp,128
     b9a:	04097303          	0x4097303
     b9e:	0100                	addi	s0,sp,128
     ba0:	0f05                	addi	t5,t5,1
     ba2:	04097603          	0x4097603
     ba6:	0100                	addi	s0,sp,128
     ba8:	04097c03          	0x4097c03
     bac:	0100                	addi	s0,sp,128
     bae:	0305                	addi	t1,t1,1
     bb0:	0306                	slli	t1,t1,0x1
     bb2:	00040977          	0x40977
     bb6:	0501                	addi	a0,a0,0
     bb8:	030a                	slli	t1,t1,0x2
     bba:	00ce                	slli	ra,ra,0x13
     bbc:	0409                	addi	s0,s0,2
     bbe:	0100                	addi	s0,sp,128
     bc0:	0405                	addi	s0,s0,1
     bc2:	04090303          	lb	t1,64(s2)
     bc6:	0100                	addi	s0,sp,128
     bc8:	0c05                	addi	s8,s8,1
     bca:	0200                	addi	s0,sp,256
     bcc:	0104                	addi	s1,sp,128
     bce:	0306                	slli	t1,t1,0x1
     bd0:	0900                	addi	s0,sp,144
     bd2:	0004                	0x4
     bd4:	0501                	addi	a0,a0,0
     bd6:	0605                	addi	a2,a2,1
     bd8:	04090103          	lb	sp,64(s2)
     bdc:	0100                	addi	s0,sp,128
     bde:	0e05                	addi	t3,t3,1
     be0:	0306                	slli	t1,t1,0x1
     be2:	0900                	addi	s0,sp,144
     be4:	0000                	unimp
     be6:	0501                	addi	a0,a0,0
     be8:	0604                	addi	s1,sp,768
     bea:	08090203          	lb	tp,128(s2)
     bee:	0100                	addi	s0,sp,128
     bf0:	0705                	addi	a4,a4,1
     bf2:	0306                	slli	t1,t1,0x1
     bf4:	0900                	addi	s0,sp,144
     bf6:	0000                	unimp
     bf8:	0501                	addi	a0,a0,0
     bfa:	0602                	c.slli64	a2
     bfc:	097fab03          	lw	s6,151(t6)
     c00:	0004                	0x4
     c02:	0501                	addi	a0,a0,0
     c04:	0609                	addi	a2,a2,2
     c06:	00090003          	lb	zero,0(s2)
     c0a:	0100                	addi	s0,sp,128
     c0c:	0205                	addi	tp,tp,1
     c0e:	04090003          	lb	zero,64(s2)
     c12:	0100                	addi	s0,sp,128
     c14:	0306                	slli	t1,t1,0x1
     c16:	0900                	addi	s0,sp,144
     c18:	0004                	0x4
     c1a:	0501                	addi	a0,a0,0
     c1c:	030a                	slli	t1,t1,0x2
     c1e:	0900                	addi	s0,sp,144
     c20:	0000                	unimp
     c22:	0501                	addi	a0,a0,0
     c24:	0302                	c.slli64	t1
     c26:	00d8                	addi	a4,sp,68
     c28:	0809                	addi	a6,a6,2
     c2a:	0100                	addi	s0,sp,128
     c2c:	0a05                	addi	s4,s4,1
     c2e:	0200                	addi	s0,sp,256
     c30:	0104                	addi	s1,sp,128
     c32:	0306                	slli	t1,t1,0x1
     c34:	0900                	addi	s0,sp,144
     c36:	0004                	0x4
     c38:	0501                	addi	a0,a0,0
     c3a:	0009                	c.nop	2
     c3c:	0402                	c.slli64	s0
     c3e:	0601                	addi	a2,a2,0
     c40:	04090203          	lb	tp,64(s2)
     c44:	0100                	addi	s0,sp,128
     c46:	1105                	addi	sp,sp,-31
     c48:	0200                	addi	s0,sp,256
     c4a:	0104                	addi	s1,sp,128
     c4c:	0306                	slli	t1,t1,0x1
     c4e:	0900                	addi	s0,sp,144
     c50:	0000                	unimp
     c52:	0501                	addi	a0,a0,0
     c54:	01030603          	lb	a2,16(t1) # ffffffffffffd010 <_ZL7out_buf+0xffffffff7fdf2ec0>
     c58:	0409                	addi	s0,s0,2
     c5a:	0100                	addi	s0,sp,128
     c5c:	0c05                	addi	s8,s8,1
     c5e:	0306                	slli	t1,t1,0x1
     c60:	0900                	addi	s0,sp,144
     c62:	0000                	unimp
     c64:	0501                	addi	a0,a0,0
     c66:	0602                	c.slli64	a2
     c68:	08090203          	lb	tp,128(s2)
     c6c:	0100                	addi	s0,sp,128
     c6e:	0105                	addi	sp,sp,1
     c70:	0306                	slli	t1,t1,0x1
     c72:	0901                	addi	s2,s2,0
     c74:	0000                	unimp
     c76:	0501                	addi	a0,a0,0
     c78:	0604                	addi	s1,sp,768
     c7a:	097fa403          	lw	s0,151(t6)
     c7e:	001c                	0x1c
     c80:	0501                	addi	a0,a0,0
     c82:	7f030603          	lb	a2,2032(t1)
     c86:	2009                	0x2009
     c88:	0100                	addi	s0,sp,128
     c8a:	0405                	addi	s0,s0,1
     c8c:	0306                	slli	t1,t1,0x1
     c8e:	091f 0008 0501      	0x5010008091f
     c94:	030e                	slli	t1,t1,0x3
     c96:	0900                	addi	s0,sp,144
     c98:	0000                	unimp
     c9a:	0501                	addi	a0,a0,0
     c9c:	0305                	addi	t1,t1,1
     c9e:	0901                	addi	s2,s2,0
     ca0:	0000                	unimp
     ca2:	0501                	addi	a0,a0,0
     ca4:	0618                	addi	a4,sp,768
     ca6:	04090003          	lb	zero,64(s2)
     caa:	0100                	addi	s0,sp,128
     cac:	0505                	addi	a0,a0,1
     cae:	0306                	slli	t1,t1,0x1
     cb0:	0901                	addi	s2,s2,0
     cb2:	0008                	0x8
     cb4:	0301                	addi	t1,t1,0
     cb6:	00040907          	0x40907
     cba:	0301                	addi	t1,t1,0
     cbc:	0901                	addi	s2,s2,0
     cbe:	0000                	unimp
     cc0:	0501                	addi	a0,a0,0
     cc2:	031f 0900 0000      	0x900031f
     cc8:	0501                	addi	a0,a0,0
     cca:	061c                	addi	a5,sp,768
     ccc:	00090003          	lb	zero,0(s2)
     cd0:	0100                	addi	s0,sp,128
     cd2:	0a05                	addi	s4,s4,1
     cd4:	04097f03          	0x4097f03
     cd8:	0100                	addi	s0,sp,128
     cda:	1f05                	addi	t5,t5,-31
     cdc:	04090103          	lb	sp,64(s2)
     ce0:	0100                	addi	s0,sp,128
     ce2:	0505                	addi	a0,a0,1
     ce4:	0200                	addi	s0,sp,256
     ce6:	0204                	addi	s1,sp,256
     ce8:	0306                	slli	t1,t1,0x1
     cea:	0900                	addi	s0,sp,144
     cec:	0004                	0x4
     cee:	0501                	addi	a0,a0,0
     cf0:	001c                	0x1c
     cf2:	0402                	c.slli64	s0
     cf4:	0602                	c.slli64	a2
     cf6:	00090003          	lb	zero,0(s2)
     cfa:	0100                	addi	s0,sp,128
     cfc:	0505                	addi	a0,a0,1
     cfe:	0200                	addi	s0,sp,256
     d00:	0204                	addi	s1,sp,256
     d02:	04090003          	lb	zero,64(s2)
     d06:	0100                	addi	s0,sp,128
     d08:	1f05                	addi	t5,t5,-31
     d0a:	0200                	addi	s0,sp,256
     d0c:	0204                	addi	s1,sp,256
     d0e:	0306                	slli	t1,t1,0x1
     d10:	0900                	addi	s0,sp,144
     d12:	0004                	0x4
     d14:	0501                	addi	a0,a0,0
     d16:	0305                	addi	t1,t1,1
     d18:	0901                	addi	s2,s2,0
     d1a:	0004                	0x4
     d1c:	0501                	addi	a0,a0,0
     d1e:	060e                	slli	a2,a2,0x3
     d20:	00090003          	lb	zero,0(s2)
     d24:	0100                	addi	s0,sp,128
     d26:	1e05                	addi	t3,t3,-31
     d28:	0306                	slli	t1,t1,0x1
     d2a:	0900                	addi	s0,sp,144
     d2c:	0004                	0x4
     d2e:	0501                	addi	a0,a0,0
     d30:	0306                	slli	t1,t1,0x1
     d32:	0901                	addi	s2,s2,0
     d34:	0004                	0x4
     d36:	0501                	addi	a0,a0,0
     d38:	000e                	c.slli	zero,0x3
     d3a:	0402                	c.slli64	s0
     d3c:	0601                	addi	a2,a2,0
     d3e:	04090003          	lb	zero,64(s2)
     d42:	0100                	addi	s0,sp,128
     d44:	0705                	addi	a4,a4,1
     d46:	0306                	slli	t1,t1,0x1
     d48:	0901                	addi	s2,s2,0
     d4a:	0008                	0x8
     d4c:	0501                	addi	a0,a0,0
     d4e:	0621                	addi	a2,a2,8
     d50:	00090003          	lb	zero,0(s2)
     d54:	0100                	addi	s0,sp,128
     d56:	1405                	addi	s0,s0,-31
     d58:	04090003          	lb	zero,64(s2)
     d5c:	0100                	addi	s0,sp,128
     d5e:	1a05                	addi	s4,s4,-31
     d60:	04090003          	lb	zero,64(s2)
     d64:	0100                	addi	s0,sp,128
     d66:	1405                	addi	s0,s0,-31
     d68:	04090003          	lb	zero,64(s2)
     d6c:	0100                	addi	s0,sp,128
     d6e:	0605                	addi	a2,a2,1
     d70:	0200                	addi	s0,sp,256
     d72:	0204                	addi	s1,sp,256
     d74:	0306                	slli	t1,t1,0x1
     d76:	0902                	c.slli64	s2
     d78:	0004                	0x4
     d7a:	0501                	addi	a0,a0,0
     d7c:	001e                	c.slli	zero,0x7
     d7e:	0402                	c.slli64	s0
     d80:	0602                	c.slli64	a2
     d82:	04097c03          	0x4097c03
     d86:	0100                	addi	s0,sp,128
     d88:	0a05                	addi	s4,s4,1
     d8a:	0200                	addi	s0,sp,256
     d8c:	0204                	addi	s1,sp,256
     d8e:	04090403          	lb	s0,64(s2)
     d92:	0100                	addi	s0,sp,128
     d94:	0505                	addi	a0,a0,1
     d96:	0200                	addi	s0,sp,256
     d98:	0204                	addi	s1,sp,256
     d9a:	0306                	slli	t1,t1,0x1
     d9c:	097c                	addi	a5,sp,156
     d9e:	0004                	0x4
     da0:	0501                	addi	a0,a0,0
     da2:	001e                	c.slli	zero,0x7
     da4:	0402                	c.slli64	s0
     da6:	0302                	c.slli64	t1
     da8:	0900                	addi	s0,sp,144
     daa:	0000                	unimp
     dac:	0501                	addi	a0,a0,0
     dae:	0305                	addi	t1,t1,1
     db0:	0906                	slli	s2,s2,0x1
     db2:	0004                	0x4
     db4:	0501                	addi	a0,a0,0
     db6:	0609                	addi	a2,a2,2
     db8:	00090003          	lb	zero,0(s2)
     dbc:	0100                	addi	s0,sp,128
     dbe:	0505                	addi	a0,a0,1
     dc0:	0306                	slli	t1,t1,0x1
     dc2:	0901                	addi	s2,s2,0
     dc4:	0004                	0x4
     dc6:	0301                	addi	t1,t1,0
     dc8:	0901                	addi	s2,s2,0
     dca:	0000                	unimp
     dcc:	0301                	addi	t1,t1,0
     dce:	0901                	addi	s2,s2,0
     dd0:	0000                	unimp
     dd2:	0501                	addi	a0,a0,0
     dd4:	060d                	addi	a2,a2,3
     dd6:	04097e03          	0x4097e03
     dda:	0100                	addi	s0,sp,128
     ddc:	0c05                	addi	s8,s8,1
     dde:	04090103          	lb	sp,64(s2)
     de2:	0100                	addi	s0,sp,128
     de4:	0505                	addi	a0,a0,1
     de6:	04090103          	lb	sp,64(s2)
     dea:	0100                	addi	s0,sp,128
     dec:	0405                	addi	s0,s0,1
     dee:	0306                	slli	t1,t1,0x1
     df0:	0004090f          	0x4090f
     df4:	0501                	addi	a0,a0,0
     df6:	030e                	slli	t1,t1,0x3
     df8:	0900                	addi	s0,sp,144
     dfa:	0000                	unimp
     dfc:	0501                	addi	a0,a0,0
     dfe:	0305                	addi	t1,t1,1
     e00:	0901                	addi	s2,s2,0
     e02:	0000                	unimp
     e04:	0501                	addi	a0,a0,0
     e06:	000d                	c.nop	3
     e08:	0402                	c.slli64	s0
     e0a:	0601                	addi	a2,a2,0
     e0c:	04090003          	lb	zero,64(s2)
     e10:	0100                	addi	s0,sp,128
     e12:	0605                	addi	a2,a2,1
     e14:	0306                	slli	t1,t1,0x1
     e16:	0901                	addi	s2,s2,0
     e18:	0004                	0x4
     e1a:	0501                	addi	a0,a0,0
     e1c:	0003060f          	0x3060f
     e20:	0009                	c.nop	2
     e22:	0100                	addi	s0,sp,128
     e24:	1705                	addi	a4,a4,-31
     e26:	08090003          	lb	zero,128(s2)
     e2a:	0100                	addi	s0,sp,128
     e2c:	0f05                	addi	t5,t5,1
     e2e:	04090003          	lb	zero,64(s2)
     e32:	0100                	addi	s0,sp,128
     e34:	0505                	addi	a0,a0,1
     e36:	0306                	slli	t1,t1,0x1
     e38:	0902                	c.slli64	s2
     e3a:	0004                	0x4
     e3c:	0501                	addi	a0,a0,0
     e3e:	0608                	addi	a0,sp,768
     e40:	00090003          	lb	zero,0(s2)
     e44:	0100                	addi	s0,sp,128
     e46:	0505                	addi	a0,a0,1
     e48:	0306                	slli	t1,t1,0x1
     e4a:	0901                	addi	s2,s2,0
     e4c:	0004                	0x4
     e4e:	0301                	addi	t1,t1,0
     e50:	0901                	addi	s2,s2,0
     e52:	0000                	unimp
     e54:	0301                	addi	t1,t1,0
     e56:	0901                	addi	s2,s2,0
     e58:	0000                	unimp
     e5a:	0501                	addi	a0,a0,0
     e5c:	060d                	addi	a2,a2,3
     e5e:	00097e03          	0x97e03
     e62:	0100                	addi	s0,sp,128
     e64:	0c05                	addi	s8,s8,1
     e66:	04090103          	lb	sp,64(s2)
     e6a:	0100                	addi	s0,sp,128
     e6c:	0505                	addi	a0,a0,1
     e6e:	04090103          	lb	sp,64(s2)
     e72:	0100                	addi	s0,sp,128
     e74:	0405                	addi	s0,s0,1
     e76:	0306                	slli	t1,t1,0x1
     e78:	0948                	addi	a0,sp,148
     e7a:	0004                	0x4
     e7c:	0501                	addi	a0,a0,0
     e7e:	030e                	slli	t1,t1,0x3
     e80:	0900                	addi	s0,sp,144
     e82:	0000                	unimp
     e84:	0501                	addi	a0,a0,0
     e86:	0305                	addi	t1,t1,1
     e88:	0901                	addi	s2,s2,0
     e8a:	0000                	unimp
     e8c:	0501                	addi	a0,a0,0
     e8e:	0618                	addi	a4,sp,768
     e90:	04090003          	lb	zero,64(s2)
     e94:	0100                	addi	s0,sp,128
     e96:	0505                	addi	a0,a0,1
     e98:	0306                	slli	t1,t1,0x1
     e9a:	0901                	addi	s2,s2,0
     e9c:	0008                	0x8
     e9e:	0501                	addi	a0,a0,0
     ea0:	0618                	addi	a4,sp,768
     ea2:	00097f03          	0x97f03
     ea6:	0100                	addi	s0,sp,128
     ea8:	2d05                	addiw	s10,s10,1
     eaa:	04090003          	lb	zero,64(s2)
     eae:	0100                	addi	s0,sp,128
     eb0:	0905                	addi	s2,s2,1
     eb2:	04090103          	lb	sp,64(s2)
     eb6:	0100                	addi	s0,sp,128
     eb8:	1e05                	addi	t3,t3,-31
     eba:	0200                	addi	s0,sp,256
     ebc:	0104                	addi	s1,sp,128
     ebe:	0306                	slli	t1,t1,0x1
     ec0:	0901                	addi	s2,s2,0
     ec2:	0004                	0x4
     ec4:	0501                	addi	a0,a0,0
     ec6:	0306                	slli	t1,t1,0x1
     ec8:	0901                	addi	s2,s2,0
     eca:	0010                	0x10
     ecc:	0301                	addi	t1,t1,0
     ece:	0901                	addi	s2,s2,0
     ed0:	0000                	unimp
     ed2:	0501                	addi	a0,a0,0
     ed4:	000e                	c.slli	zero,0x3
     ed6:	0402                	c.slli64	s0
     ed8:	0601                	addi	a2,a2,0
     eda:	04090003          	lb	zero,64(s2)
     ede:	0100                	addi	s0,sp,128
     ee0:	1305                	addi	t1,t1,-31
     ee2:	04097f03          	0x4097f03
     ee6:	0100                	addi	s0,sp,128
     ee8:	0705                	addi	a4,a4,1
     eea:	0306                	slli	t1,t1,0x1
     eec:	0902                	c.slli64	s2
     eee:	0010                	0x10
     ef0:	0501                	addi	a0,a0,0
     ef2:	0610                	addi	a2,sp,768
     ef4:	00090003          	lb	zero,0(s2)
     ef8:	0100                	addi	s0,sp,128
     efa:	0200                	addi	s0,sp,256
     efc:	0104                	addi	s1,sp,128
     efe:	08090003          	lb	zero,128(s2)
     f02:	0100                	addi	s0,sp,128
     f04:	0200                	addi	s0,sp,256
     f06:	0404                	addi	s1,sp,512
     f08:	04090003          	lb	zero,64(s2)
     f0c:	0100                	addi	s0,sp,128
     f0e:	0605                	addi	a2,a2,1
     f10:	0200                	addi	s0,sp,256
     f12:	0204                	addi	s1,sp,256
     f14:	0306                	slli	t1,t1,0x1
     f16:	0902                	c.slli64	s2
     f18:	0008                	0x8
     f1a:	0501                	addi	a0,a0,0
     f1c:	0009                	c.nop	2
     f1e:	0402                	c.slli64	s0
     f20:	0602                	c.slli64	a2
     f22:	00090003          	lb	zero,0(s2)
     f26:	0100                	addi	s0,sp,128
     f28:	0505                	addi	a0,a0,1
     f2a:	0200                	addi	s0,sp,256
     f2c:	0204                	addi	s1,sp,256
     f2e:	0306                	slli	t1,t1,0x1
     f30:	0004097b          	0x4097b
     f34:	0501                	addi	a0,a0,0
     f36:	001e                	c.slli	zero,0x7
     f38:	0402                	c.slli64	s0
     f3a:	0302                	c.slli64	t1
     f3c:	0900                	addi	s0,sp,144
     f3e:	0000                	unimp
     f40:	0501                	addi	a0,a0,0
     f42:	0304                	addi	s1,sp,384
     f44:	0921                	addi	s2,s2,8
     f46:	000c                	0xc
     f48:	0501                	addi	a0,a0,0
     f4a:	030e                	slli	t1,t1,0x3
     f4c:	0900                	addi	s0,sp,144
     f4e:	0000                	unimp
     f50:	0501                	addi	a0,a0,0
     f52:	0305                	addi	t1,t1,1
     f54:	0901                	addi	s2,s2,0
     f56:	0000                	unimp
     f58:	0501                	addi	a0,a0,0
     f5a:	0616                	slli	a2,a2,0x5
     f5c:	00090003          	lb	zero,0(s2)
     f60:	0100                	addi	s0,sp,128
     f62:	0505                	addi	a0,a0,1
     f64:	0306                	slli	t1,t1,0x1
     f66:	0901                	addi	s2,s2,0
     f68:	0008                	0x8
     f6a:	0501                	addi	a0,a0,0
     f6c:	030d                	addi	t1,t1,3
     f6e:	0900                	addi	s0,sp,144
     f70:	0000                	unimp
     f72:	0501                	addi	a0,a0,0
     f74:	060c                	addi	a1,sp,768
     f76:	00090003          	lb	zero,0(s2)
     f7a:	0100                	addi	s0,sp,128
     f7c:	0d05                	addi	s10,s10,1
     f7e:	04090003          	lb	zero,64(s2)
     f82:	0100                	addi	s0,sp,128
     f84:	0605                	addi	a2,a2,1
     f86:	0306                	slli	t1,t1,0x1
     f88:	0901                	addi	s2,s2,0
     f8a:	0008                	0x8
     f8c:	0501                	addi	a0,a0,0
     f8e:	000e                	c.slli	zero,0x3
     f90:	0402                	c.slli64	s0
     f92:	0601                	addi	a2,a2,0
     f94:	04090003          	lb	zero,64(s2)
     f98:	0100                	addi	s0,sp,128
     f9a:	0705                	addi	a4,a4,1
     f9c:	0306                	slli	t1,t1,0x1
     f9e:	0901                	addi	s2,s2,0
     fa0:	0004                	0x4
     fa2:	0501                	addi	a0,a0,0
     fa4:	0610                	addi	a2,sp,768
     fa6:	00090003          	lb	zero,0(s2)
     faa:	0100                	addi	s0,sp,128
     fac:	0605                	addi	a2,a2,1
     fae:	0306                	slli	t1,t1,0x1
     fb0:	0902                	c.slli64	s2
     fb2:	0008                	0x8
     fb4:	0501                	addi	a0,a0,0
     fb6:	0609                	addi	a2,a2,2
     fb8:	00090003          	lb	zero,0(s2)
     fbc:	0100                	addi	s0,sp,128
     fbe:	0605                	addi	a2,a2,1
     fc0:	0306                	slli	t1,t1,0x1
     fc2:	0901                	addi	s2,s2,0
     fc4:	0004                	0x4
     fc6:	0501                	addi	a0,a0,0
     fc8:	0305                	addi	t1,t1,1
     fca:	0000097b          	0x97b
     fce:	0501                	addi	a0,a0,0
     fd0:	030d                	addi	t1,t1,3
     fd2:	0900                	addi	s0,sp,144
     fd4:	0000                	unimp
     fd6:	0501                	addi	a0,a0,0
     fd8:	060c                	addi	a1,sp,768
     fda:	00090003          	lb	zero,0(s2)
     fde:	0100                	addi	s0,sp,128
     fe0:	0d05                	addi	s10,s10,1
     fe2:	0c090003          	lb	zero,192(s2)
     fe6:	0100                	addi	s0,sp,128
     fe8:	0905                	addi	s2,s2,1
     fea:	04090403          	lb	s0,64(s2)
     fee:	0100                	addi	s0,sp,128
     ff0:	0d05                	addi	s10,s10,1
     ff2:	04090303          	lb	t1,64(s2)
     ff6:	0100                	addi	s0,sp,128
     ff8:	0c05                	addi	s8,s8,1
     ffa:	04090103          	lb	sp,64(s2)
     ffe:	0100                	addi	s0,sp,128
    1000:	0405                	addi	s0,s0,1
    1002:	0306                	slli	t1,t1,0x1
    1004:	00080947          	fmsub.s	fs2,fa6,ft0,ft0,rne
    1008:	0501                	addi	a0,a0,0
    100a:	030e                	slli	t1,t1,0x3
    100c:	0900                	addi	s0,sp,144
    100e:	0000                	unimp
    1010:	0501                	addi	a0,a0,0
    1012:	0305                	addi	t1,t1,1
    1014:	0901                	addi	s2,s2,0
    1016:	0000                	unimp
    1018:	0301                	addi	t1,t1,0
    101a:	0901                	addi	s2,s2,0
    101c:	0000                	unimp
    101e:	0501                	addi	a0,a0,0
    1020:	000d                	c.nop	3
    1022:	0402                	c.slli64	s0
    1024:	0601                	addi	a2,a2,0
    1026:	04090003          	lb	zero,64(s2)
    102a:	0100                	addi	s0,sp,128
    102c:	0605                	addi	a2,a2,1
    102e:	0306                	slli	t1,t1,0x1
    1030:	0901                	addi	s2,s2,0
    1032:	0004                	0x4
    1034:	0501                	addi	a0,a0,0
    1036:	0003060f          	0x3060f
    103a:	0009                	c.nop	2
    103c:	0100                	addi	s0,sp,128
    103e:	0505                	addi	a0,a0,1
    1040:	0306                	slli	t1,t1,0x1
    1042:	0902                	c.slli64	s2
    1044:	0008                	0x8
    1046:	0501                	addi	a0,a0,0
    1048:	0608                	addi	a0,sp,768
    104a:	00090003          	lb	zero,0(s2)
    104e:	0100                	addi	s0,sp,128
    1050:	0505                	addi	a0,a0,1
    1052:	0306                	slli	t1,t1,0x1
    1054:	0901                	addi	s2,s2,0
    1056:	0004                	0x4
    1058:	0501                	addi	a0,a0,0
    105a:	060d                	addi	a2,a2,3
    105c:	00090003          	lb	zero,0(s2)
    1060:	0100                	addi	s0,sp,128
    1062:	0605                	addi	a2,a2,1
    1064:	0306                	slli	t1,t1,0x1
    1066:	0901                	addi	s2,s2,0
    1068:	0004                	0x4
    106a:	0501                	addi	a0,a0,0
    106c:	0003060f          	0x3060f
    1070:	0009                	c.nop	2
    1072:	0100                	addi	s0,sp,128
    1074:	0505                	addi	a0,a0,1
    1076:	0306                	slli	t1,t1,0x1
    1078:	0902                	c.slli64	s2
    107a:	0008                	0x8
    107c:	0501                	addi	a0,a0,0
    107e:	0618                	addi	a4,sp,768
    1080:	00090303          	lb	t1,0(s2)
    1084:	0100                	addi	s0,sp,128
    1086:	0805                	addi	a6,a6,1
    1088:	04097d03          	0x4097d03
    108c:	0100                	addi	s0,sp,128
    108e:	0405                	addi	s0,s0,1
    1090:	0306                	slli	t1,t1,0x1
    1092:	0902                	c.slli64	s2
    1094:	0004                	0x4
    1096:	0501                	addi	a0,a0,0
    1098:	030e                	slli	t1,t1,0x3
    109a:	0900                	addi	s0,sp,144
    109c:	0000                	unimp
    109e:	0501                	addi	a0,a0,0
    10a0:	0305                	addi	t1,t1,1
    10a2:	0901                	addi	s2,s2,0
    10a4:	0000                	unimp
    10a6:	0501                	addi	a0,a0,0
    10a8:	0618                	addi	a4,sp,768
    10aa:	00090003          	lb	zero,0(s2)
    10ae:	0100                	addi	s0,sp,128
    10b0:	0905                	addi	s2,s2,1
    10b2:	04090103          	lb	sp,64(s2)
    10b6:	0100                	addi	s0,sp,128
    10b8:	0b05                	addi	s6,s6,1
    10ba:	08093c03          	ld	s8,128(s2)
    10be:	0100                	addi	s0,sp,128
    10c0:	0305                	addi	t1,t1,1
    10c2:	0306                	slli	t1,t1,0x1
    10c4:	0909                	addi	s2,s2,2
    10c6:	0008                	0x8
    10c8:	0501                	addi	a0,a0,0
    10ca:	060c                	addi	a1,sp,768
    10cc:	00090003          	lb	zero,0(s2)
    10d0:	0100                	addi	s0,sp,128
    10d2:	0105                	addi	sp,sp,1
    10d4:	08090503          	lb	a0,128(s2)
    10d8:	0100                	addi	s0,sp,128
    10da:	1805                	addi	a6,a6,-31
    10dc:	097fb503          	ld	a0,151(t6)
    10e0:	001c                	0x1c
    10e2:	0501                	addi	a0,a0,0
    10e4:	0605                	addi	a2,a2,1
    10e6:	04090103          	lb	sp,64(s2)
    10ea:	0100                	addi	s0,sp,128
    10ec:	1805                	addi	a6,a6,-31
    10ee:	0306                	slli	t1,t1,0x1
    10f0:	0004097f          	radd16	s2,s0,zero
    10f4:	0501                	addi	a0,a0,0
    10f6:	0309                	addi	t1,t1,2
    10f8:	0901                	addi	s2,s2,0
    10fa:	0004                	0x4
    10fc:	0501                	addi	a0,a0,0
    10fe:	0318                	addi	a4,sp,384
    1100:	090d                	addi	s2,s2,3
    1102:	0008                	0x8
    1104:	0501                	addi	a0,a0,0
    1106:	0605                	addi	a2,a2,1
    1108:	04090103          	lb	sp,64(s2)
    110c:	0100                	addi	s0,sp,128
    110e:	0605                	addi	a2,a2,1
    1110:	04090103          	lb	sp,64(s2)
    1114:	0100                	addi	s0,sp,128
    1116:	0a05                	addi	s4,s4,1
    1118:	0306                	slli	t1,t1,0x1
    111a:	0900                	addi	s0,sp,144
    111c:	0000                	unimp
    111e:	0501                	addi	a0,a0,0
    1120:	0606                	slli	a2,a2,0x1
    1122:	04090103          	lb	sp,64(s2)
    1126:	0100                	addi	s0,sp,128
    1128:	0e05                	addi	t3,t3,1
    112a:	0200                	addi	s0,sp,256
    112c:	0104                	addi	s1,sp,128
    112e:	0306                	slli	t1,t1,0x1
    1130:	0900                	addi	s0,sp,144
    1132:	0004                	0x4
    1134:	0501                	addi	a0,a0,0
    1136:	01030607          	0x1030607
    113a:	0409                	addi	s0,s0,2
    113c:	0100                	addi	s0,sp,128
    113e:	1005                	c.nop	-31
    1140:	0306                	slli	t1,t1,0x1
    1142:	0900                	addi	s0,sp,144
    1144:	0000                	unimp
    1146:	0501                	addi	a0,a0,0
    1148:	0606                	slli	a2,a2,0x1
    114a:	08090203          	lb	tp,128(s2)
    114e:	0100                	addi	s0,sp,128
    1150:	0905                	addi	s2,s2,1
    1152:	0306                	slli	t1,t1,0x1
    1154:	0900                	addi	s0,sp,144
    1156:	0000                	unimp
    1158:	0501                	addi	a0,a0,0
    115a:	030a                	slli	t1,t1,0x2
    115c:	0959                	addi	s2,s2,22
    115e:	0008                	0x8
    1160:	0501                	addi	a0,a0,0
    1162:	0309                	addi	t1,t1,2
    1164:	0004097f          	radd16	s2,s0,zero
    1168:	0501                	addi	a0,a0,0
    116a:	0602                	c.slli64	a2
    116c:	0900d903          	lhu	s2,144(ra)
    1170:	0004                	0x4
    1172:	0501                	addi	a0,a0,0
    1174:	060a                	slli	a2,a2,0x2
    1176:	04090003          	lb	zero,64(s2)
    117a:	0100                	addi	s0,sp,128
    117c:	0305                	addi	t1,t1,1
    117e:	0306                	slli	t1,t1,0x1
    1180:	0901                	addi	s2,s2,0
    1182:	0004                	0x4
    1184:	0501                	addi	a0,a0,0
    1186:	060c                	addi	a1,sp,768
    1188:	00090003          	lb	zero,0(s2)
    118c:	0100                	addi	s0,sp,128
    118e:	0905                	addi	s2,s2,1
    1190:	0306                	slli	t1,t1,0x1
    1192:	0901                	addi	s2,s2,0
    1194:	000c                	0xc
    1196:	0501                	addi	a0,a0,0
    1198:	0611                	addi	a2,a2,4
    119a:	00090003          	lb	zero,0(s2)
    119e:	0100                	addi	s0,sp,128
    11a0:	0305                	addi	t1,t1,1
    11a2:	0306                	slli	t1,t1,0x1
    11a4:	0901                	addi	s2,s2,0
    11a6:	0004                	0x4
    11a8:	0501                	addi	a0,a0,0
    11aa:	060c                	addi	a1,sp,768
    11ac:	00090003          	lb	zero,0(s2)
    11b0:	0100                	addi	s0,sp,128
    11b2:	0205                	addi	tp,tp,1
    11b4:	0306                	slli	t1,t1,0x1
    11b6:	0902                	c.slli64	s2
    11b8:	0008                	0x8
    11ba:	0501                	addi	a0,a0,0
    11bc:	0601                	addi	a2,a2,0
    11be:	00090103          	lb	sp,0(s2)
    11c2:	0100                	addi	s0,sp,128
    11c4:	0e05                	addi	t3,t3,1
    11c6:	04094d03          	lbu	s10,64(s2)
    11ca:	0100                	addi	s0,sp,128
    11cc:	0105                	addi	sp,sp,1
    11ce:	0306                	slli	t1,t1,0x1
    11d0:	00c4                	addi	s1,sp,68
    11d2:	0809                	addi	a6,a6,2
    11d4:	0100                	addi	s0,sp,128
    11d6:	0205                	addi	tp,tp,1
    11d8:	00090103          	lb	sp,0(s2)
    11dc:	0100                	addi	s0,sp,128
    11de:	00090103          	lb	sp,0(s2)
    11e2:	0100                	addi	s0,sp,128
    11e4:	00090103          	lb	sp,0(s2)
    11e8:	0100                	addi	s0,sp,128
    11ea:	0105                	addi	sp,sp,1
    11ec:	0306                	slli	t1,t1,0x1
    11ee:	097d                	addi	s2,s2,31
    11f0:	0000                	unimp
    11f2:	0501                	addi	a0,a0,0
    11f4:	0302                	c.slli64	t1
    11f6:	00080903          	lb	s2,0(a6)
    11fa:	0501                	addi	a0,a0,0
    11fc:	0301                	addi	t1,t1,0
    11fe:	097d                	addi	s2,s2,31
    1200:	0004                	0x4
    1202:	0501                	addi	a0,a0,0
    1204:	0316                	slli	t1,t1,0x5
    1206:	0975                	addi	s2,s2,29
    1208:	0010                	0x10
    120a:	0501                	addi	a0,a0,0
    120c:	0301                	addi	t1,t1,0
    120e:	0008090b          	0x8090b
    1212:	0501                	addi	a0,a0,0
    1214:	0316                	slli	t1,t1,0x5
    1216:	0975                	addi	s2,s2,29
    1218:	0004                	0x4
    121a:	0501                	addi	a0,a0,0
    121c:	0301                	addi	t1,t1,0
    121e:	0008090b          	0x8090b
    1222:	0301                	addi	t1,t1,0
    1224:	0900                	addi	s0,sp,144
    1226:	000c                	0xc
    1228:	0501                	addi	a0,a0,0
    122a:	0302                	c.slli64	t1
    122c:	000c0903          	lb	s2,0(s8) # 19000 <_start-0x801e7000>
    1230:	0601                	addi	a2,a2,0
    1232:	04090103          	lb	sp,64(s2)
    1236:	0100                	addi	s0,sp,128
    1238:	00097103          	0x97103
    123c:	0100                	addi	s0,sp,128
    123e:	1605                	addi	a2,a2,-31
    1240:	0306                	slli	t1,t1,0x1
    1242:	0900                	addi	s0,sp,144
    1244:	0000                	unimp
    1246:	0501                	addi	a0,a0,0
    1248:	0602                	c.slli64	a2
    124a:	04090103          	lb	sp,64(s2)
    124e:	0100                	addi	s0,sp,128
    1250:	0905                	addi	s2,s2,1
    1252:	0306                	slli	t1,t1,0x1
    1254:	0900                	addi	s0,sp,144
    1256:	0000                	unimp
    1258:	0501                	addi	a0,a0,0
    125a:	0302                	c.slli64	t1
    125c:	0900                	addi	s0,sp,144
    125e:	0004                	0x4
    1260:	0501                	addi	a0,a0,0
    1262:	01030603          	lb	a2,16(t1)
    1266:	0809                	addi	a6,a6,2
    1268:	0100                	addi	s0,sp,128
    126a:	0705                	addi	a4,a4,1
    126c:	0306                	slli	t1,t1,0x1
    126e:	0900                	addi	s0,sp,144
    1270:	0000                	unimp
    1272:	0501                	addi	a0,a0,0
    1274:	01030603          	lb	a2,16(t1)
    1278:	1409                	addi	s0,s0,-30
    127a:	0100                	addi	s0,sp,128
    127c:	00090003          	lb	zero,0(s2)
    1280:	0100                	addi	s0,sp,128
    1282:	00090003          	lb	zero,0(s2)
    1286:	0100                	addi	s0,sp,128
    1288:	00090003          	lb	zero,0(s2)
    128c:	0100                	addi	s0,sp,128
    128e:	0205                	addi	tp,tp,1
    1290:	04090203          	lb	tp,64(s2)
    1294:	0100                	addi	s0,sp,128
    1296:	0c05                	addi	s8,s8,1
    1298:	0306                	slli	t1,t1,0x1
    129a:	0900                	addi	s0,sp,144
    129c:	0004                	0x4
    129e:	0501                	addi	a0,a0,0
    12a0:	0602                	c.slli64	a2
    12a2:	14090103          	lb	sp,320(s2)
    12a6:	0100                	addi	s0,sp,128
    12a8:	0605                	addi	a2,a2,1
    12aa:	0306                	slli	t1,t1,0x1
    12ac:	0900                	addi	s0,sp,144
    12ae:	0000                	unimp
    12b0:	0501                	addi	a0,a0,0
    12b2:	0602                	c.slli64	a2
    12b4:	14090103          	lb	sp,320(s2)
    12b8:	0100                	addi	s0,sp,128
    12ba:	00090903          	lb	s2,0(s2)
    12be:	0100                	addi	s0,sp,128
    12c0:	00090103          	lb	sp,0(s2)
    12c4:	0100                	addi	s0,sp,128
    12c6:	0105                	addi	sp,sp,1
    12c8:	0306                	slli	t1,t1,0x1
    12ca:	0901                	addi	s2,s2,0
    12cc:	0000                	unimp
    12ce:	0601                	addi	a2,a2,0
    12d0:	1c090303          	lb	t1,448(s2)
    12d4:	0100                	addi	s0,sp,128
    12d6:	0205                	addi	tp,tp,1
    12d8:	00090103          	lb	sp,0(s2)
    12dc:	0100                	addi	s0,sp,128
    12de:	0105                	addi	sp,sp,1
    12e0:	0306                	slli	t1,t1,0x1
    12e2:	0000097f          	radd16	s2,zero,zero
    12e6:	0501                	addi	a0,a0,0
    12e8:	0308                	addi	a0,sp,384
    12ea:	0901                	addi	s2,s2,0
    12ec:	000c                	0xc
    12ee:	0501                	addi	a0,a0,0
    12f0:	0301                	addi	t1,t1,0
    12f2:	0008097f          	radd16	s2,a6,zero
    12f6:	0501                	addi	a0,a0,0
    12f8:	0308                	addi	a0,sp,384
    12fa:	0901                	addi	s2,s2,0
    12fc:	0004                	0x4
    12fe:	0501                	addi	a0,a0,0
    1300:	0602                	c.slli64	a2
    1302:	04090103          	lb	sp,64(s2)
    1306:	0100                	addi	s0,sp,128
    1308:	0805                	addi	a6,a6,1
    130a:	0306                	slli	t1,t1,0x1
    130c:	0900                	addi	s0,sp,144
    130e:	0000                	unimp
    1310:	0501                	addi	a0,a0,0
    1312:	0602                	c.slli64	a2
    1314:	08090103          	lb	sp,128(s2)
    1318:	0100                	addi	s0,sp,128
    131a:	0805                	addi	a6,a6,1
    131c:	0306                	slli	t1,t1,0x1
    131e:	0900                	addi	s0,sp,144
    1320:	0000                	unimp
    1322:	0501                	addi	a0,a0,0
    1324:	0002                	c.slli64	zero
    1326:	0402                	c.slli64	s0
    1328:	0601                	addi	a2,a2,0
    132a:	0c090103          	lb	sp,192(s2)
    132e:	0100                	addi	s0,sp,128
    1330:	0200                	addi	s0,sp,256
    1332:	0104                	addi	s1,sp,128
    1334:	00090003          	lb	zero,0(s2)
    1338:	0100                	addi	s0,sp,128
    133a:	0200                	addi	s0,sp,256
    133c:	0104                	addi	s1,sp,128
    133e:	00090003          	lb	zero,0(s2)
    1342:	0100                	addi	s0,sp,128
    1344:	0200                	addi	s0,sp,256
    1346:	0104                	addi	s1,sp,128
    1348:	00090003          	lb	zero,0(s2)
    134c:	0100                	addi	s0,sp,128
    134e:	0c05                	addi	s8,s8,1
    1350:	04090203          	lb	tp,64(s2)
    1354:	0100                	addi	s0,sp,128
    1356:	0205                	addi	tp,tp,1
    1358:	0200                	addi	s0,sp,256
    135a:	0104                	addi	s1,sp,128
    135c:	00090103          	lb	sp,0(s2)
    1360:	0100                	addi	s0,sp,128
    1362:	0a05                	addi	s4,s4,1
    1364:	0200                	addi	s0,sp,256
    1366:	0104                	addi	s1,sp,128
    1368:	00090003          	lb	zero,0(s2)
    136c:	0100                	addi	s0,sp,128
    136e:	1405                	addi	s0,s0,-31
    1370:	0200                	addi	s0,sp,256
    1372:	0104                	addi	s1,sp,128
    1374:	0306                	slli	t1,t1,0x1
    1376:	0900                	addi	s0,sp,144
    1378:	0000                	unimp
    137a:	0501                	addi	a0,a0,0
    137c:	0002                	c.slli64	zero
    137e:	0402                	c.slli64	s0
    1380:	0601                	addi	a2,a2,0
    1382:	04090003          	lb	zero,64(s2)
    1386:	0100                	addi	s0,sp,128
    1388:	0409                	addi	s0,s0,2
    138a:	0000                	unimp
    138c:	0101                	addi	sp,sp,0

Disassembly of section .debug_info:

0000000000000000 <.debug_info>:
       0:	002a                	c.slli	zero,0xa
       2:	0000                	unimp
       4:	0002                	c.slli64	zero
       6:	0000                	unimp
       8:	0000                	unimp
       a:	0108                	addi	a0,sp,128
       c:	0000                	unimp
       e:	0000                	unimp
      10:	0000                	unimp
      12:	8020                	0x8020
      14:	0000                	unimp
      16:	0000                	unimp
      18:	0004                	0x4
      1a:	8020                	0x8020
	...
      24:	0008                	0x8
      26:	0000                	unimp
      28:	0025                	c.nop	9
      2a:	0000                	unimp
      2c:	8001                	c.srli64	s0
      2e:	0f24                	addi	s1,sp,920
      30:	0000                	unimp
      32:	0004                	0x4
      34:	0014                	0x14
      36:	0000                	unimp
      38:	0108                	addi	a0,sp,128
      3a:	00c2                	slli	ra,ra,0x10
      3c:	0000                	unimp
      3e:	c704                	sw	s1,8(a4)
      40:	0001                	nop
      42:	0800                	addi	s0,sp,16
      44:	0000                	unimp
      46:	d000                	sw	s0,32(s0)
      48:	0001                	nop
	...
      52:	3a00                	fld	fs0,48(a2)
      54:	0000                	unimp
      56:	0200                	addi	s0,sp,256
      58:	01b8                	addi	a4,sp,200
      5a:	0000                	unimp
      5c:	0106                	slli	sp,sp,0x1
      5e:	0000350f          	0x350f
      62:	0300                	addi	s0,sp,384
      64:	0208                	addi	a0,sp,256
      66:	055f 0000 0206      	0x2060000055f
      6c:	4d19                	li	s10,6
      6e:	0000                	unimp
      70:	0400                	addi	s0,sp,512
      72:	00000037          	lui	zero,0x0
      76:	3705                	addiw	a4,a4,-31
      78:	0000                	unimp
      7a:	0600                	addi	s0,sp,768
      7c:	0708                	addi	a0,sp,896
      7e:	0000027f          	radd16	tp,zero,zero
      82:	4d05                	li	s10,1
      84:	0000                	unimp
      86:	0600                	addi	s0,sp,768
      88:	0704                	addi	s1,sp,896
      8a:	0284                	addi	s1,sp,320
      8c:	0000                	unimp
      8e:	f802                	sd	zero,48(sp)
      90:	0005                	c.nop	1
      92:	0600                	addi	s0,sp,768
      94:	1804                	addi	s1,sp,48
      96:	006c                	addi	a1,sp,12
      98:	0000                	unimp
      9a:	0106                	slli	sp,sp,0x1
      9c:	7a08                	ld	a0,48(a2)
      9e:	0004                	0x4
      a0:	0200                	addi	s0,sp,256
      a2:	04ad                	addi	s1,s1,11
      a4:	0000                	unimp
      a6:	0506                	slli	a0,a0,0x1
      a8:	7f10                	ld	a2,56(a4)
      aa:	0000                	unimp
      ac:	0700                	addi	s0,sp,896
      ae:	8508                	0x8508
      b0:	0000                	unimp
      b2:	0800                	addi	s0,sp,16
      b4:	5602                	lw	a2,32(sp)
      b6:	0000                	unimp
      b8:	0600                	addi	s0,sp,768
      ba:	0f06                	slli	t5,t5,0x1
      bc:	00000097          	auipc	ra,0x0
      c0:	8604                	0x8604
      c2:	0000                	unimp
      c4:	0700                	addi	s0,sp,896
      c6:	9d08                	0x9d08
      c8:	0000                	unimp
      ca:	0900                	addi	s0,sp,144
      cc:	00a2                	slli	ra,ra,0x8
      ce:	0000                	unimp
      d0:	040a                	slli	s0,s0,0x2
      d2:	6905                	lui	s2,0x1
      d4:	746e                	ld	s0,248(sp)
      d6:	0400                	addi	s0,sp,512
      d8:	00a2                	slli	ra,ra,0x8
      da:	0000                	unimp
      dc:	0806                	slli	a6,a6,0x1
      de:	5b05                	li	s6,-31
      e0:	0001                	nop
      e2:	0400                	addi	s0,sp,512
      e4:	00ae                	slli	ra,ra,0xb
      e6:	0000                	unimp
      e8:	6002                	0x6002
      ea:	0000                	unimp
      ec:	0700                	addi	s0,sp,896
      ee:	17d1                	addi	a5,a5,-12
      f0:	004d                	c.nop	19
      f2:	0000                	unimp
      f4:	0806                	slli	a6,a6,0x1
      f6:	5605                	li	a2,-31
      f8:	0001                	nop
      fa:	0600                	addi	s0,sp,768
      fc:	0410                	addi	a2,sp,512
      fe:	03ed                	addi	t2,t2,27
     100:	0000                	unimp
     102:	0003830b          	0x3830b
     106:	0c00                	addi	s0,sp,528
     108:	0422                	slli	s0,s0,0x8
     10a:	0000                	unimp
     10c:	1302                	slli	t1,t1,0x20
     10e:	0002900b          	0x2900b
     112:	0c00                	addi	s0,sp,528
     114:	02a6                	slli	t0,t0,0x9
     116:	0000                	unimp
     118:	1402                	slli	s0,s0,0x20
     11a:	0001d30f          	0x1d30f
     11e:	0d00                	addi	s0,sp,656
     120:	7269                	lui	tp,0xffffa
     122:	0071                	c.nop	28
     124:	1602                	slli	a2,a2,0x20
     126:	a918                	fsd	fa4,16(a0)
     128:	0000                	unimp
     12a:	0a00                	addi	s0,sp,272
     12c:	cf0e                	sw	gp,156(sp)
     12e:	02000003          	lb	zero,32(zero) # 20 <_start-0x801fffe0>
     132:	00b51817          	auipc	a6,0xb51
     136:	0000                	unimp
     138:	0000                	unimp
     13a:	1000                	addi	s0,sp,32
     13c:	0004f90f          	0x4f90f
     140:	0700                	addi	s0,sp,896
     142:	5904                	lw	s1,48(a0)
     144:	0000                	unimp
     146:	0200                	addi	s0,sp,256
     148:	0e18                	addi	a4,sp,784
     14a:	0169                	addi	sp,sp,26
     14c:	0000                	unimp
     14e:	5210                	lw	a2,32(a2)
     150:	5248                	lw	a0,36(a2)
     152:	0000                	unimp
     154:	5410                	lw	a2,40(s0)
     156:	5248                	lw	a0,36(a2)
     158:	0000                	unimp
     15a:	4410                	lw	a2,8(s0)
     15c:	4c4c                	lw	a1,28(s0)
     15e:	0000                	unimp
     160:	4910                	lw	a2,16(a0)
     162:	5245                	li	tp,-15
     164:	0100                	addi	s0,sp,128
     166:	4410                	lw	a2,8(s0)
     168:	4d4c                	lw	a1,28(a0)
     16a:	0100                	addi	s0,sp,128
     16c:	4610                	lw	a2,8(a2)
     16e:	02005243          	fmadd.d	ft4,ft0,ft0,ft0,unknown
     172:	4910                	lw	a2,16(a0)
     174:	02005253          	fadd.d	ft4,ft0,ft0,unknown
     178:	4c10                	lw	a2,24(s0)
     17a:	03005243          	fmadd.d	ft4,ft0,fa6,ft0,unknown
     17e:	4d10                	lw	a2,24(a0)
     180:	04005243          	0x4005243
     184:	4c10                	lw	a2,24(s0)
     186:	05005253          	0x5005253
     18a:	4d10                	lw	a2,24(a0)
     18c:	06005253          	fadd.q	ft4,ft0,ft0,unknown
     190:	5310                	lw	a2,32(a4)
     192:	5250                	lw	a2,36(a2)
     194:	0700                	addi	s0,sp,896
     196:	1100                	addi	s0,sp,160
     198:	736c                	ld	a1,224(a4)
     19a:	0072                	c.slli	zero,0x1c
     19c:	0201                	addi	tp,tp,0
     19e:	01b71027          	0x1b71027
     1a2:	0000                	unimp
     1a4:	d412                	sw	tp,40(sp)
     1a6:	02000003          	lb	zero,32(zero) # 20 <_start-0x801fffe0>
     1aa:	1529                	addi	a0,a0,-22
     1ac:	0060                	addi	s0,sp,12
     1ae:	0000                	unimp
     1b0:	0101                	addi	sp,sp,0
     1b2:	db120007          	0xdb120007
     1b6:	02000003          	lb	zero,32(zero) # 20 <_start-0x801fffe0>
     1ba:	152a                	slli	a0,a0,0x2a
     1bc:	0060                	addi	s0,sp,12
     1be:	0000                	unimp
     1c0:	0401                	addi	s0,s0,0
     1c2:	6b120003          	lb	zero,1713(tp) # ffffffffffffa6b1 <_ZL7out_buf+0xffffffff7fdf0561>
     1c6:	0002                	c.slli64	zero
     1c8:	0200                	addi	s0,sp,256
     1ca:	0060152b          	0x60152b
     1ce:	0000                	unimp
     1d0:	0101                	addi	sp,sp,0
     1d2:	0002                	c.slli64	zero
     1d4:	4212                	lw	tp,4(sp)
     1d6:	0000                	unimp
     1d8:	0200                	addi	s0,sp,256
     1da:	152c                	addi	a1,sp,680
     1dc:	0060                	addi	s0,sp,12
     1de:	0000                	unimp
     1e0:	0201                	addi	tp,tp,0
     1e2:	0000                	unimp
     1e4:	1300                	addi	s0,sp,416
     1e6:	04df 0000 2e02      	0x2e02000004df
     1ec:	037e1413          	slli	s0,t3,0x37
     1f0:	0000                	unimp
     1f2:	3002                	fld	ft0,32(sp)
     1f4:	1a19                	addi	s4,s4,-26
     1f6:	0006                	c.slli	zero,0x1
     1f8:	1500                	addi	s0,sp,672
     1fa:	000003d3          	fadd.s	ft7,ft0,ft0,rne
     1fe:	0000                	unimp
     200:	0c00                	addi	s0,sp,528
     202:	0462                	slli	s0,s0,0x18
     204:	0000                	unimp
     206:	4702                	lw	a4,0(sp)
     208:	0002400f          	0x2400f
     20c:	0e00                	addi	s0,sp,784
     20e:	000003cf          	fnmadd.s	ft7,ft0,ft0,ft0,rne
     212:	4902                	lw	s2,0(sp)
     214:	b518                	fsd	fa4,40(a0)
     216:	0000                	unimp
     218:	0000                	unimp
     21a:	0000                	unimp
     21c:	0e0c                	addi	a1,sp,784
     21e:	0340                	addi	s0,sp,388
     220:	0000                	unimp
     222:	4a02                	lw	s4,0(sp)
     224:	b50d                	j	46 <_start-0x801fffba>
     226:	0000                	unimp
     228:	0000                	unimp
     22a:	0000                	unimp
     22c:	0e0c                	addi	a1,sp,784
     22e:	02f0                	addi	a2,sp,332
     230:	0000                	unimp
     232:	4b02                	lw	s6,0(sp)
     234:	b50d                	j	56 <_start-0x801fffaa>
     236:	0000                	unimp
     238:	0000                	unimp
     23a:	0010                	0x10
     23c:	0e0c                	addi	a1,sp,784
     23e:	01d6                	slli	gp,gp,0x15
     240:	0000                	unimp
     242:	4c02                	lw	s8,0(sp)
     244:	b50d                	j	66 <_start-0x801fff9a>
     246:	0000                	unimp
     248:	0000                	unimp
     24a:	0020                	addi	s0,sp,8
     24c:	0e0c                	addi	a1,sp,784
     24e:	0470                	addi	a2,sp,524
     250:	0000                	unimp
     252:	4d02                	lw	s10,0(sp)
     254:	b50d                	j	76 <_start-0x801fff8a>
     256:	0000                	unimp
     258:	0000                	unimp
     25a:	2000                	fld	fs0,0(s0)
     25c:	0e0c                	addi	a1,sp,784
     25e:	00000223          	sb	zero,4(zero) # 4 <_start-0x801ffffc>
     262:	4e02                	lw	t3,0(sp)
     264:	b50d                	j	86 <_start-0x801fff7a>
     266:	0000                	unimp
     268:	0400                	addi	s0,sp,512
     26a:	2000                	fld	fs0,0(s0)
     26c:	000c                	0xc
     26e:	0003e713          	ori	a4,t2,0
     272:	0200                	addi	s0,sp,256
     274:	0f54                	addi	a3,sp,916
     276:	cf0e                	sw	gp,156(sp)
     278:	02000003          	lb	zero,32(zero) # 20 <_start-0x801fffe0>
     27c:	1856                	slli	a6,a6,0x35
     27e:	00b5                	addi	ra,ra,13
     280:	0000                	unimp
     282:	0000                	unimp
     284:	0200                	addi	s0,sp,256
     286:	fe0e                	sd	gp,312(sp)
     288:	0004                	0x4
     28a:	0200                	addi	s0,sp,256
     28c:	00b50d57          	0xb50d57
     290:	0000                	unimp
     292:	bff8                	fsd	fa4,248(a5)
     294:	0200                	addi	s0,sp,256
     296:	660e                	ld	a2,192(sp)
     298:	0005                	c.nop	1
     29a:	0200                	addi	s0,sp,256
     29c:	0d58                	addi	a4,sp,660
     29e:	00b5                	addi	ra,ra,13
     2a0:	0000                	unimp
     2a2:	4000                	lw	s0,0(s0)
     2a4:	0200                	addi	s0,sp,256
     2a6:	4b16                	lw	s6,68(sp)
     2a8:	0001                	nop
     2aa:	0200                	addi	s0,sp,256
     2ac:	1a5a                	slli	s4,s4,0x36
     2ae:	02ac                	addi	a1,sp,328
     2b0:	0000                	unimp
     2b2:	00000037          	lui	zero,0x0
     2b6:	a215                	j	3da <_start-0x801ffc26>
     2b8:	0000                	unimp
     2ba:	0000                	unimp
     2bc:	0000                	unimp
     2be:	0000f117          	auipc	sp,0xf
     2c2:	1700                	addi	s0,sp,928
     2c4:	00fe                	slli	ra,ra,0x1f
     2c6:	0000                	unimp
     2c8:	0001df17          	auipc	t5,0x1d
     2cc:	1700                	addi	s0,sp,928
     2ce:	000001ef          	jal	gp,2ce <_start-0x801ffd32>
     2d2:	0001ff17          	auipc	t5,0x1f
     2d6:	1700                	addi	s0,sp,928
     2d8:	0000020f          	0x20f
     2dc:	00021f17          	auipc	t5,0x21
     2e0:	1700                	addi	s0,sp,928
     2e2:	0000022f          	0x22f
     2e6:	00024817          	auipc	a6,0x24
     2ea:	1700                	addi	s0,sp,928
     2ec:	0258                	addi	a4,sp,260
     2ee:	0000                	unimp
     2f0:	00026817          	auipc	a6,0x26
     2f4:	1800                	addi	s0,sp,48
     2f6:	00000307          	0x307
     2fa:	0190                	addi	a2,sp,192
     2fc:	0808                	addi	a0,sp,16
     2fe:	000003c3          	fmadd.s	ft7,ft0,ft0,ft0,rne
     302:	6419                	lui	s0,0x6
     304:	0001                	nop
     306:	0100                	addi	s0,sp,128
     308:	040a                	slli	s0,s0,0x2
     30a:	000003c3          	fmadd.s	ft7,ft0,ft0,ft0,rne
     30e:	1900                	addi	s0,sp,176
     310:	04f4                	addi	a3,sp,588
     312:	0000                	unimp
     314:	0b01                	addi	s6,s6,0
     316:	ba09                	j	fffffffffffffc28 <_ZL7out_buf+0xffffffff7fdf5ad8>
     318:	0000                	unimp
     31a:	8000                	0x8000
     31c:	e219                	bnez	a2,322 <_start-0x801ffcde>
     31e:	01000003          	lb	zero,16(zero) # 10 <_start-0x801ffff0>
     322:	00ba0e0b          	0xba0e0b
     326:	0000                	unimp
     328:	1a88                	addi	a0,sp,368
     32a:	00000123          	sb	zero,2(zero) # 2 <_start-0x801ffffe>
     32e:	0c01                	addi	s8,s8,0
     330:	2b16                	fld	fs6,320(sp)
     332:	0004                	0x4
     334:	ba00                	fsd	fs0,48(a2)
     336:	0000                	unimp
     338:	1300                	addi	s0,sp,416
     33a:	1e000003          	lb	zero,480(zero) # 1e0 <_start-0x801ffe20>
     33e:	1b000003          	lb	zero,432(zero) # 1b0 <_start-0x801ffe50>
     342:	03df 0000 ba15      	0xba15000003df
     348:	0000                	unimp
     34a:	0000                	unimp
     34c:	701c                	ld	a5,32(s0)
     34e:	7475                	lui	s0,0xffffd
     350:	0100                	addi	s0,sp,128
     352:	070d                	addi	a4,a4,3
     354:	06a9                	addi	a3,a3,10
     356:	0000                	unimp
     358:	0332                	slli	t1,t1,0xc
     35a:	0000                	unimp
     35c:	033d                	addi	t1,t1,15
     35e:	0000                	unimp
     360:	0003df1b          	srliw	t5,t2,0x0
     364:	1500                	addi	s0,sp,672
     366:	000003d3          	fadd.s	ft7,ft0,ft0,rne
     36a:	1c00                	addi	s0,sp,560
     36c:	6f70                	ld	a2,216(a4)
     36e:	0070                	addi	a2,sp,12
     370:	1101                	addi	sp,sp,-32
     372:	00064207          	flq	ft4,0(a2) # 19000 <_start-0x801e7000>
     376:	5100                	lw	s0,32(a0)
     378:	57000003          	lb	zero,1392(zero) # 570 <_start-0x801ffa90>
     37c:	1b000003          	lb	zero,432(zero) # 1b0 <_start-0x801ffe50>
     380:	03df 0000 1d00      	0x1d00000003df
     386:	00746567          	0x746567
     38a:	1401                	addi	s0,s0,-32
     38c:	2804                	fld	fs1,16(s0)
     38e:	0001                	nop
     390:	d300                	sw	s0,32(a4)
     392:	6f000003          	lb	zero,1776(zero) # 6f0 <_start-0x801ff910>
     396:	75000003          	lb	zero,1872(zero) # 750 <_start-0x801ff8b0>
     39a:	1b000003          	lb	zero,432(zero) # 1b0 <_start-0x801ffe50>
     39e:	03df 0000 1a00      	0x1a00000003df
     3a4:	0196                	slli	gp,gp,0x5
     3a6:	0000                	unimp
     3a8:	1701                	addi	a4,a4,-32
     3aa:	00009b07          	0x9b07
     3ae:	e500                	sd	s0,8(a0)
     3b0:	8d000003          	lb	zero,-1840(zero) # fffffffffffff8d0 <_ZL7out_buf+0xffffffff7fdf5780>
     3b4:	93000003          	lb	zero,-1744(zero) # fffffffffffff930 <_ZL7out_buf+0xffffffff7fdf57e0>
     3b8:	1b000003          	lb	zero,432(zero) # 1b0 <_start-0x801ffe50>
     3bc:	03df 0000 1a00      	0x1a00000003df
     3c2:	03f9                	addi	t2,t2,30
     3c4:	0000                	unimp
     3c6:	1a01                	addi	s4,s4,-32
     3c8:	c508                	sw	a0,8(a0)
     3ca:	0005                	c.nop	1
     3cc:	e500                	sd	s0,8(a0)
     3ce:	ab000003          	lb	zero,-1360(zero) # fffffffffffffab0 <_ZL7out_buf+0xffffffff7fdf5960>
     3d2:	b1000003          	lb	zero,-1264(zero) # fffffffffffffb10 <_ZL7out_buf+0xffffffff7fdf59c0>
     3d6:	1b000003          	lb	zero,432(zero) # 1b0 <_start-0x801ffe50>
     3da:	03df 0000 1e00      	0x1e00000003df
     3e0:	0054                	addi	a3,sp,4
     3e2:	000003d3          	fadd.s	ft7,ft0,ft0,rne
     3e6:	0c1f 0006 4d00      	0x4d0000060c1f
     3ec:	0000                	unimp
     3ee:	8000                	0x8000
     3f0:	2000                	fld	fs0,0(s0)
     3f2:	000003d3          	fadd.s	ft7,ft0,ft0,rne
     3f6:	000003d3          	fadd.s	ft7,ft0,ft0,rne
     3fa:	4d21                	li	s10,8
     3fc:	0000                	unimp
     3fe:	7f00                	ld	s0,56(a4)
     400:	0600                	addi	s0,sp,768
     402:	0801                	addi	a6,a6,0
     404:	00000483          	lb	s1,0(zero) # 0 <_start-0x80200000>
     408:	d304                	sw	s1,32(a4)
     40a:	07000003          	lb	zero,112(zero) # 70 <_start-0x801fff90>
     40e:	c708                	sw	a0,8(a4)
     410:	0002                	c.slli64	zero
     412:	0600                	addi	s0,sp,768
     414:	0201                	addi	tp,tp,0
     416:	0000036b          	0x36b
     41a:	6222                	ld	tp,8(sp)
     41c:	6675                	lui	a2,0x1d
     41e:	0100                	addi	s0,sp,128
     420:	161e                	slli	a2,a2,0x27
     422:	000002c7          	fmsub.s	ft5,ft0,ft0,ft0,rne
     426:	004f4923          	0x4f4923
     42a:	0101                	addi	sp,sp,0
     42c:	0720                	addi	s0,sp,904
     42e:	0444                	addi	s1,sp,516
     430:	0000                	unimp
     432:	7024                	ld	s1,96(s0)
     434:	01000003          	lb	zero,16(zero) # 10 <_start-0x801ffff0>
     438:	1622                	slli	a2,a2,0x28
     43a:	0532                	slli	a0,a0,0xc
     43c:	0000                	unimp
     43e:	1b01                	addi	s6,s6,-32
     440:	0004                	0x4
     442:	1500                	addi	s0,sp,672
     444:	0444                	addi	s1,sp,516
     446:	0000                	unimp
     448:	2400                	fld	fs0,8(s0)
     44a:	000005a7          	0x5a7
     44e:	2501                	sext.w	a0,a0
     450:	7916                	ld	s2,352(sp)
     452:	0001                	nop
     454:	0100                	addi	s0,sp,128
     456:	0432                	slli	s0,s0,0xc
     458:	0000                	unimp
     45a:	4415                	li	s0,5
     45c:	0004                	0x4
     45e:	0000                	unimp
     460:	2325                	addiw	t1,t1,9
     462:	0001                	nop
     464:	0100                	addi	s0,sp,128
     466:	162e                	slli	a2,a2,0x2b
     468:	0231                	addi	tp,tp,12
     46a:	0000                	unimp
     46c:	000003d3          	fadd.s	ft7,ft0,ft0,rne
     470:	0001                	nop
     472:	03da0807          	0x3da0807
     476:	0000                	unimp
     478:	5526                	lw	a0,104(sp)
     47a:	0004                	0x4
     47c:	1500                	addi	s0,sp,672
     47e:	0444                	addi	s1,sp,516
     480:	0000                	unimp
     482:	2700                	fld	fs0,8(a4)
     484:	0379                	addi	t1,t1,30
     486:	0000                	unimp
     488:	3b01                	addiw	s6,s6,-32
     48a:	0004610f          	0x4610f
     48e:	0700                	addi	s0,sp,896
     490:	4a08                	lw	a0,16(a2)
     492:	0004                	0x4
     494:	2800                	fld	fs0,16(s0)
     496:	00727363          	bgeu	tp,t2,49c <_start-0x801ffb64>
     49a:	1205                	addi	tp,tp,-31
     49c:	0006350b          	0x6350b
     4a0:	2800                	fld	fs0,16(s0)
     4a2:	696d                	lui	s2,0x1b
     4a4:	0065                	c.nop	25
     4a6:	1405                	addi	s0,s0,-31
     4a8:	0004d70f          	0x4d70f
     4ac:	2900                	fld	fs0,16(a0)
     4ae:	021c                	addi	a5,sp,256
     4b0:	0000                	unimp
     4b2:	00590407          	0x590407
     4b6:	0000                	unimp
     4b8:	1605                	addi	a2,a2,-31
     4ba:	2a0e                	fld	fs4,192(sp)
     4bc:	011e                	slli	sp,sp,0x7
     4be:	0000                	unimp
     4c0:	2a00                	fld	fs0,16(a2)
     4c2:	0272                	slli	tp,tp,0x1c
     4c4:	0000                	unimp
     4c6:	2a01                	sext.w	s4,s4
     4c8:	0201                	addi	tp,tp,0
     4ca:	0000                	unimp
     4cc:	2a02                	fld	fs4,0(sp)
     4ce:	04da                	slli	s1,s1,0x16
     4d0:	0000                	unimp
     4d2:	063d2a03          	lw	s4,99(s10)
     4d6:	0000                	unimp
     4d8:	2a04                	fld	fs1,16(a2)
     4da:	0174                	addi	a3,sp,140
     4dc:	0000                	unimp
     4de:	2a05                	addiw	s4,s4,1
     4e0:	0091                	addi	ra,ra,4
     4e2:	0000                	unimp
     4e4:	2a06                	fld	fs4,64(sp)
     4e6:	03fe                	slli	t2,t2,0x1f
     4e8:	0000                	unimp
     4ea:	04882a07          	flw	fs4,72(a6) # 26338 <_start-0x801d9cc8>
     4ee:	0000                	unimp
     4f0:	2a08                	fld	fa0,16(a2)
     4f2:	05e1                	addi	a1,a1,24
     4f4:	0000                	unimp
     4f6:	2a09                	addiw	s4,s4,2
     4f8:	00000523          	sb	zero,10(zero) # a <_start-0x801ffff6>
     4fc:	2a0a                	fld	fs4,128(sp)
     4fe:	01d1                	addi	gp,gp,20
     500:	0000                	unimp
     502:	2b00000b          	0x2b00000b
     506:	696d                	lui	s2,0x1b
     508:	0070                	addi	a2,sp,12
     50a:	1c05                	addi	s8,s8,-31
     50c:	02e10c0f          	0x2e10c0f
     510:	0000                	unimp
     512:	2505                	addiw	a0,a0,1
     514:	0005880f          	0x5880f
     518:	0f00                	addi	s0,sp,912
     51a:	0291                	addi	t0,t0,4
     51c:	0000                	unimp
     51e:	00590407          	0x590407
     522:	0000                	unimp
     524:	2605                	addiw	a2,a2,1
     526:	460e                	lw	a2,192(sp)
     528:	0005                	c.nop	1
     52a:	1000                	addi	s0,sp,32
     52c:	7375                	lui	t1,0xffffd
     52e:	0069                	c.nop	26
     530:	1000                	addi	s0,sp,32
     532:	00697373          	csrrci	t1,0x6,18
     536:	1001                	c.nop	-32
     538:	7368                	ld	a0,224(a4)
     53a:	0069                	c.nop	26
     53c:	1002                	c.slli	zero,0x20
     53e:	736d                	lui	t1,0xffffb
     540:	0069                	c.nop	26
     542:	74751003          	lh	zero,1863(a0) # b747 <_start-0x801f48b9>
     546:	0069                	c.nop	26
     548:	1004                	addi	s1,sp,32
     54a:	00697473          	csrrci	s0,0x6,18
     54e:	1005                	c.nop	-31
     550:	7468                	ld	a0,232(s0)
     552:	0069                	c.nop	26
     554:	1006                	c.slli	zero,0x21
     556:	746d                	lui	s0,0xffffb
     558:	0069                	c.nop	26
     55a:	65751007          	0x65751007
     55e:	0069                	c.nop	26
     560:	1008                	addi	a0,sp,32
     562:	00696573          	csrrsi	a0,0x6,18
     566:	1009                	c.nop	-30
     568:	6568                	ld	a0,200(a0)
     56a:	0069                	c.nop	26
     56c:	100a                	c.slli	zero,0x22
     56e:	656d                	lui	a0,0x1b
     570:	0069                	c.nop	26
     572:	860f000b          	0x860f000b
     576:	0000                	unimp
     578:	0700                	addi	s0,sp,896
     57a:	5904                	lw	s1,48(a0)
     57c:	0000                	unimp
     57e:	0500                	addi	s0,sp,640
     580:	05710e2b          	0x5710e2b
     584:	0000                	unimp
     586:	ad2a                	fsd	fa0,152(sp)
     588:	0001                	nop
     58a:	0300                	addi	s0,sp,384
     58c:	9c2a                	add	s8,s8,a0
     58e:	0001                	nop
     590:	0700                	addi	s0,sp,896
     592:	3b2a                	fld	fs6,168(sp)
     594:	0000                	unimp
     596:	0800                	addi	s0,sp,16
     598:	ad2a                	fsd	fa0,152(sp)
     59a:	09000003          	lb	zero,144(zero) # 90 <_start-0x801fff70>
     59e:	1600                	addi	s0,sp,800
     5a0:	06c4                	addi	s1,sp,836
     5a2:	0000                	unimp
     5a4:	3105                	addiw	sp,sp,-31
     5a6:	2218                	fld	fa4,0(a2)
     5a8:	e5000003          	lb	zero,-432(zero) # fffffffffffffe50 <_ZL7out_buf+0xffffffff7fdf5d00>
     5ac:	15000003          	lb	zero,336(zero) # 150 <_start-0x801ffeb0>
     5b0:	00000037          	lui	zero,0x0
     5b4:	0000                	unimp
     5b6:	6f0c                	ld	a1,24(a4)
     5b8:	0005                	c.nop	1
     5ba:	0500                	addi	s0,sp,640
     5bc:	05e00f33          	0x5e00f33
     5c0:	0000                	unimp
     5c2:	1c29                	addi	s8,s8,-22
     5c4:	0002                	c.slli64	zero
     5c6:	0700                	addi	s0,sp,896
     5c8:	5904                	lw	s1,48(a0)
     5ca:	0000                	unimp
     5cc:	0500                	addi	s0,sp,640
     5ce:	0e34                	addi	a3,sp,792
     5d0:	7510                	ld	a2,40(a0)
     5d2:	6569                	lui	a0,0x1a
     5d4:	0000                	unimp
     5d6:	7310                	ld	a2,32(a4)
     5d8:	6569                	lui	a0,0x1a
     5da:	0100                	addi	s0,sp,128
     5dc:	6810                	ld	a2,16(s0)
     5de:	6569                	lui	a0,0x1a
     5e0:	0200                	addi	s0,sp,256
     5e2:	6d10                	ld	a2,24(a0)
     5e4:	6569                	lui	a0,0x1a
     5e6:	0300                	addi	s0,sp,384
     5e8:	a82a                	fsd	fa0,16(sp)
     5ea:	0004                	0x4
     5ec:	0400                	addi	s0,sp,512
     5ee:	e62a                	sd	a0,264(sp)
     5f0:	0005                	c.nop	1
     5f2:	0500                	addi	s0,sp,640
     5f4:	2d2a                	fld	fs10,136(sp)
     5f6:	0005                	c.nop	1
     5f8:	0600                	addi	s0,sp,768
     5fa:	ed2a                	sd	a0,152(sp)
     5fc:	0001                	nop
     5fe:	0700                	addi	s0,sp,896
     600:	7310                	ld	a2,32(a4)
     602:	7070                	ld	a2,224(s0)
     604:	0800                	addi	s0,sp,16
     606:	6d10                	ld	a2,24(a0)
     608:	7070                	ld	a2,224(s0)
     60a:	0b00                	addi	s0,sp,400
     60c:	0000                	unimp
     60e:	812c                	0x812c
     610:	0000                	unimp
     612:	0800                	addi	s0,sp,16
     614:	3a05                	addiw	s4,s4,-31
     616:	2d0c                	fld	fa1,24(a0)
     618:	7070                	ld	a2,224(s0)
     61a:	006e                	c.slli	zero,0x1b
     61c:	3b05                	addiw	s6,s6,-31
     61e:	3710                	fld	fa2,40(a4)
     620:	0000                	unimp
     622:	0800                	addi	s0,sp,16
     624:	142c                	addi	a1,sp,552
     626:	1200                	addi	s0,sp,288
     628:	06d0                	addi	a2,sp,836
     62a:	0000                	unimp
     62c:	3c05                	addiw	s8,s8,-31
     62e:	3710                	fld	fa2,40(a4)
     630:	0000                	unimp
     632:	0800                	addi	s0,sp,16
     634:	0410                	addi	a2,sp,512
     636:	1200                	addi	s0,sp,288
     638:	0504                	addi	s1,sp,640
     63a:	0000                	unimp
     63c:	3d05                	addiw	s10,s10,-31
     63e:	3710                	fld	fa2,40(a4)
     640:	0000                	unimp
     642:	0800                	addi	s0,sp,16
     644:	0004                	0x4
     646:	2e00                	fld	fs0,24(a2)
     648:	025f 0000 3e05      	0x3e050000025f
     64e:	00050e17          	auipc	t3,0x50
     652:	3700                	fld	fs0,40(a4)
     654:	0000                	unimp
     656:	2d00                	fld	fs0,24(a0)
     658:	0006                	c.slli	zero,0x1
     65a:	1b00                	addi	s0,sp,432
     65c:	0635                	addi	a2,a2,13
     65e:	0000                	unimp
     660:	0000                	unimp
     662:	0700                	addi	s0,sp,896
     664:	e008                	sd	a0,0(s0)
     666:	0005                	c.nop	1
     668:	0400                	addi	s0,sp,512
     66a:	0635                	addi	a2,a2,13
     66c:	0000                	unimp
     66e:	7328                	ld	a0,96(a4)
     670:	6962                	ld	s2,24(sp)
     672:	0400                	addi	s0,sp,512
     674:	06ae0b03          	lb	s6,106(t3) # 506b8 <_start-0x801af948>
     678:	0000                	unimp
     67a:	00041b0f          	0x41b0f
     67e:	0700                	addi	s0,sp,896
     680:	5904                	lw	s1,48(a0)
     682:	0000                	unimp
     684:	0400                	addi	s0,sp,512
     686:	0a05                	addi	s4,s4,1
     688:	00000677          	0x677
     68c:	852a                	mv	a0,a0
     68e:	0006                	c.slli	zero,0x1
     690:	0000                	unimp
     692:	e82a                	sd	a0,16(sp)
     694:	0004                	0x4
     696:	0100                	addi	s0,sp,128
     698:	472a                	lw	a4,136(sp)
     69a:	0004                	0x4
     69c:	0200                	addi	s0,sp,256
     69e:	5d2a                	lw	s10,168(sp)
     6a0:	0006                	c.slli	zero,0x1
     6a2:	0300                	addi	s0,sp,384
     6a4:	2f00                	fld	fs0,24(a4)
     6a6:	00000077          	0x77
     6aa:	1204                	addi	s1,sp,288
     6ac:	8a10                	0x8a10
     6ae:	0006                	c.slli	zero,0x1
     6b0:	a200                	fsd	fs0,0(a2)
     6b2:	0000                	unimp
     6b4:	2f00                	fld	fs0,24(a4)
     6b6:	0169                	addi	sp,sp,26
     6b8:	0000                	unimp
     6ba:	1104                	addi	s1,sp,160
     6bc:	4910                	lw	a2,16(a0)
     6be:	0002                	c.slli64	zero
     6c0:	a200                	fsd	fs0,0(a2)
     6c2:	0000                	unimp
     6c4:	1600                	addi	s0,sp,800
     6c6:	03ae                	slli	t2,t2,0xb
     6c8:	0000                	unimp
     6ca:	0b04                	addi	s1,sp,400
     6cc:	6710                	ld	a2,8(a4)
     6ce:	0000                	unimp
     6d0:	a200                	fsd	fs0,0(a2)
     6d2:	0000                	unimp
     6d4:	1500                	addi	s0,sp,672
     6d6:	00a2                	slli	ra,ra,0x8
     6d8:	0000                	unimp
     6da:	0000                	unimp
     6dc:	7328                	ld	a0,96(a4)
     6de:	7379                	lui	t1,0xffffe
     6e0:	0800                	addi	s0,sp,16
     6e2:	0b05                	addi	s6,s6,1
     6e4:	0714                	addi	a3,sp,896
     6e6:	0000                	unimp
     6e8:	0002130f          	0x2130f
     6ec:	0700                	addi	s0,sp,896
     6ee:	5904                	lw	s1,48(a0)
     6f0:	0000                	unimp
     6f2:	0800                	addi	s0,sp,16
     6f4:	06df0a07          	0x6df0a07
     6f8:	0000                	unimp
     6fa:	852a                	mv	a0,a0
     6fc:	0006                	c.slli	zero,0x1
     6fe:	0000                	unimp
     700:	6f10                	ld	a2,24(a4)
     702:	656e                	ld	a0,216(sp)
     704:	0100                	addi	s0,sp,128
     706:	3f2a                	fld	ft10,168(sp)
     708:	0002                	c.slli64	zero
     70a:	0200                	addi	s0,sp,256
     70c:	2c00                	fld	fs0,24(s0)
     70e:	02e8                	addi	a0,sp,332
     710:	0000                	unimp
     712:	08f0                	addi	a2,sp,92
     714:	67300c13          	li	s8,1651
     718:	7270                	ld	a2,224(a2)
     71a:	0800                	addi	s0,sp,16
     71c:	1015                	c.nop	-27
     71e:	0714                	addi	a3,sp,896
     720:	0000                	unimp
     722:	3100                	fld	fs0,32(a0)
     724:	0078                	addi	a4,sp,12
     726:	1608                	addi	a0,sp,800
     728:	0003491b          	0x3491b
     72c:	2400                	fld	fs0,8(s0)
     72e:	07000007          	0x7000007
     732:	1b000007          	0x1b000007
     736:	072a                	slli	a4,a4,0xa
     738:	0000                	unimp
     73a:	a215                	j	85e <_start-0x801ff7a2>
     73c:	0000                	unimp
     73e:	0000                	unimp
     740:	0000                	unimp
     742:	3720                	fld	fs0,104(a4)
     744:	0000                	unimp
     746:	2400                	fld	fs0,8(s0)
     748:	21000007          	0x21000007
     74c:	004d                	c.nop	19
     74e:	0000                	unimp
     750:	001d                	c.nop	7
     752:	0832                	slli	a6,a6,0xc
     754:	00000037          	lui	zero,0x0
     758:	06df0807          	0x6df0807
     75c:	0000                	unimp
     75e:	7628                	ld	a0,104(a2)
     760:	006d                	c.nop	27
     762:	0309                	addi	t1,t1,2
     764:	0007c20b          	0x7c20b
     768:	1800                	addi	s0,sp,48
     76a:	00000577          	0x577
     76e:	0908                	addi	a0,sp,144
     770:	0c05                	addi	s8,s8,1
     772:	0799                	addi	a5,a5,6
     774:	0000                	unimp
     776:	bd12                	fsd	ft4,184(sp)
     778:	0000                	unimp
     77a:	0900                	addi	s0,sp,144
     77c:	00371407          	0x371407
     780:	0000                	unimp
     782:	0908                	addi	a0,sp,144
     784:	09120037          	lui	zero,0x9120
     788:	0005                	c.nop	1
     78a:	0900                	addi	s0,sp,144
     78c:	1015                	c.nop	-27
     78e:	00000037          	lui	zero,0x0
     792:	0208                	addi	a0,sp,256
     794:	0035                	c.nop	13
     796:	b412                	fsd	ft4,40(sp)
     798:	09000003          	lb	zero,144(zero) # 90 <_start-0x801fff70>
     79c:	1016                	c.slli	zero,0x25
     79e:	00000037          	lui	zero,0x0
     7a2:	0908                	addi	a0,sp,144
     7a4:	002c                	addi	a1,sp,8
     7a6:	b912                	fsd	ft4,176(sp)
     7a8:	09000003          	lb	zero,144(zero) # 90 <_start-0x801fff70>
     7ac:	00371017          	auipc	zero,0x371
     7b0:	0000                	unimp
     7b2:	0908                	addi	a0,sp,144
     7b4:	be120023          	sb	ra,-1056(tp) # fffffffffffffbe0 <_ZL7out_buf+0xffffffff7fdf5a90>
     7b8:	09000003          	lb	zero,144(zero) # 90 <_start-0x801fff70>
     7bc:	1018                	addi	a4,sp,32
     7be:	00000037          	lui	zero,0x0
     7c2:	0908                	addi	a0,sp,144
     7c4:	001a                	c.slli	zero,0x6
     7c6:	3300                	fld	fs0,32(a4)
     7c8:	01be                	slli	gp,gp,0xf
     7ca:	0000                	unimp
     7cc:	1f09                	addi	t5,t5,-30
     7ce:	4316                	lw	t1,68(sp)
     7d0:	0000                	unimp
     7d2:	0000                	unimp
     7d4:	3310                	fld	fa2,32(a4)
     7d6:	0229                	addi	tp,tp,10
     7d8:	0000                	unimp
     7da:	2009                	0x2009
     7dc:	4316                	lw	t1,68(sp)
     7de:	0000                	unimp
     7e0:	ff00                	sd	s0,56(a4)
     7e2:	0201                	addi	tp,tp,0
     7e4:	00000143          	fmadd.s	ft2,ft0,ft0,ft0,rne
     7e8:	2109                	addiw	sp,sp,2
     7ea:	cc1d                	beqz	s0,828 <_start-0x801ff7d8>
     7ec:	00000007          	0x7
     7f0:	00079917          	auipc	s2,0x79
     7f4:	1700                	addi	s0,sp,928
     7f6:	000007a7          	0x7a7
     7fa:	073b0807          	0x73b0807
     7fe:	0000                	unimp
     800:	6334                	ld	a3,64(a4)
     802:	7874                	ld	a3,240(s0)
     804:	0300                	addi	s0,sp,384
     806:	1508                	addi	a0,sp,672
     808:	06df 0000 0309      	0x309000006df
     80e:	a060                	fsd	fs0,192(s0)
     810:	8020                	0x8020
     812:	0000                	unimp
     814:	0000                	unimp
     816:	7320                	ld	s0,96(a4)
     818:	0000                	unimp
     81a:	f800                	sd	s0,48(s0)
     81c:	21000007          	0x21000007
     820:	004d                	c.nop	19
     822:	0000                	unimp
     824:	0009                	c.nop	2
     826:	8635                	srai	a2,a2,0xd
     828:	0005                	c.nop	1
     82a:	0300                	addi	s0,sp,384
     82c:	0f09                	addi	t5,t5,2
     82e:	07e8                	addi	a0,sp,972
     830:	0000                	unimp
     832:	0309                	addi	t1,t1,2
     834:	a010                	fsd	fa2,0(s0)
     836:	8020                	0x8020
     838:	0000                	unimp
     83a:	0000                	unimp
     83c:	3720                	fld	fs0,104(a4)
     83e:	0000                	unimp
     840:	1f00                	addi	s0,sp,944
     842:	0008                	0x8
     844:	3600                	fld	fs0,40(a2)
     846:	004d                	c.nop	19
     848:	0000                	unimp
     84a:	37000fff          	ukcrsa16	t6,zero,a6
     84e:	0395                	addi	t2,t2,5
     850:	0000                	unimp
     852:	0e080b03          	lb	s6,224(a6)
     856:	0008                	0x8
     858:	0900                	addi	s0,sp,144
     85a:	20200003          	lb	zero,514(zero) # 202 <_start-0x801ffdfe>
     85e:	0080                	addi	s0,sp,64
     860:	0000                	unimp
     862:	3800                	fld	fs0,48(s0)
     864:	b50b0c03          	lb	s8,-1200(s6)
     868:	37000007          	0x37000007
     86c:	02cd                	addi	t0,t0,19
     86e:	0000                	unimp
     870:	b5090d03          	lb	s10,-1200(s2) # 79340 <_start-0x80186cc0>
     874:	09000007          	0x9000007
     878:	20100003          	lb	zero,513(zero) # 201 <_start-0x801ffdff>
     87c:	0080                	addi	s0,sp,64
     87e:	0000                	unimp
     880:	2000                	fld	fs0,0(s0)
     882:	0092                	slli	ra,ra,0x4
     884:	0000                	unimp
     886:	00000863          	beqz	zero,896 <_start-0x801ff76a>
     88a:	4d21                	li	s10,8
     88c:	0000                	unimp
     88e:	0100                	addi	s0,sp,128
     890:	0400                	addi	s0,sp,512
     892:	00000853          	fadd.s	fa6,ft0,ft0,rne
     896:	0039                	c.nop	14
     898:	0006                	c.slli	zero,0x1
     89a:	0300                	addi	s0,sp,384
     89c:	1c1e                	slli	s8,s8,0x27
     89e:	00000863          	beqz	zero,8ae <_start-0x801ff752>
     8a2:	0309                	addi	t1,t1,2
     8a4:	08a8                	addi	a0,sp,88
     8a6:	8020                	0x8020
     8a8:	0000                	unimp
     8aa:	0000                	unimp
     8ac:	033a                	slli	t1,t1,0xe
     8ae:	0004                	0x4
     8b0:	0200                	addi	s0,sp,256
     8b2:	1110                	addi	a2,sp,160
     8b4:	01f2                	slli	gp,gp,0x1c
     8b6:	0000                	unimp
     8b8:	000008a7          	0x8a7
     8bc:	a701                	j	fbc <_start-0x801ff044>
     8be:	0008                	0x8
     8c0:	1e00                	addi	s0,sp,816
     8c2:	0054                	addi	a3,sp,4
     8c4:	004d                	c.nop	19
     8c6:	0000                	unimp
     8c8:	0000b83b          	0xb83b
     8cc:	0200                	addi	s0,sp,256
     8ce:	1d10                	addi	a2,sp,688
     8d0:	00000037          	lui	zero,0x0
     8d4:	3200                	fld	fs0,32(a2)
     8d6:	4d08                	lw	a0,24(a0)
     8d8:	0000                	unimp
     8da:	3a00                	fld	fs0,48(a2)
     8dc:	04b9                	addi	s1,s1,14
     8de:	0000                	unimp
     8e0:	1002                	c.slli	zero,0x20
     8e2:	dd11                	beqz	a0,7fe <_start-0x801ff802>
     8e4:	0001                	nop
     8e6:	d600                	sw	s0,40(a2)
     8e8:	0008                	0x8
     8ea:	0100                	addi	s0,sp,128
     8ec:	08d6                	slli	a7,a7,0x15
     8ee:	0000                	unimp
     8f0:	541e                	lw	s0,228(sp)
     8f2:	5400                	lw	s0,40(s0)
     8f4:	0000                	unimp
     8f6:	3b00                	fld	fs0,48(a4)
     8f8:	00b8                	addi	a4,sp,72
     8fa:	0000                	unimp
     8fc:	1002                	c.slli	zero,0x20
     8fe:	371d                	addiw	a4,a4,-25
     900:	0000                	unimp
     902:	0000                	unimp
     904:	0832                	slli	a6,a6,0xc
     906:	0054                	addi	a3,sp,4
     908:	0000                	unimp
     90a:	9e3a                	add	t3,t3,a4
     90c:	0006                	c.slli	zero,0x1
     90e:	0200                	addi	s0,sp,256
     910:	1110                	addi	a2,sp,160
     912:	02f8                	addi	a4,sp,332
     914:	0000                	unimp
     916:	0905                	addi	s2,s2,1
     918:	0000                	unimp
     91a:	0501                	addi	a0,a0,0
     91c:	0009                	c.nop	2
     91e:	1e00                	addi	s0,sp,816
     920:	0054                	addi	a3,sp,4
     922:	000003d3          	fadd.s	ft7,ft0,ft0,rne
     926:	0000b83b          	0xb83b
     92a:	0200                	addi	s0,sp,256
     92c:	1d10                	addi	a2,sp,688
     92e:	00000037          	lui	zero,0x0
     932:	3200                	fld	fs0,32(a2)
     934:	d308                	sw	a0,32(a4)
     936:	3a000003          	lb	zero,928(zero) # 3a0 <_start-0x801ffc60>
     93a:	058c                	addi	a1,sp,704
     93c:	0000                	unimp
     93e:	1002                	c.slli	zero,0x20
     940:	6211                	lui	tp,0x4
     942:	0006                	c.slli	zero,0x1
     944:	3400                	fld	fs0,40(s0)
     946:	0009                	c.nop	2
     948:	0100                	addi	s0,sp,128
     94a:	0934                	addi	a3,sp,152
     94c:	0000                	unimp
     94e:	541e                	lw	s0,228(sp)
     950:	6900                	ld	s0,16(a0)
     952:	0001                	nop
     954:	3b00                	fld	fs0,48(a4)
     956:	00b8                	addi	a4,sp,72
     958:	0000                	unimp
     95a:	1002                	c.slli	zero,0x20
     95c:	371d                	addiw	a4,a4,-25
     95e:	0000                	unimp
     960:	0000                	unimp
     962:	0832                	slli	a6,a6,0xc
     964:	0169                	addi	sp,sp,26
     966:	0000                	unimp
     968:	063c                	addi	a5,sp,776
     96a:	0002                	c.slli64	zero
     96c:	0300                	addi	s0,sp,384
     96e:	02bc0677          	0x2bc0677
     972:	8020                	0x8020
     974:	0000                	unimp
     976:	0000                	unimp
     978:	014c                	addi	a1,sp,132
     97a:	0000                	unimp
     97c:	0000                	unimp
     97e:	0000                	unimp
     980:	9c01                	subw	s0,s0,s0
     982:	0a94                	addi	a3,sp,336
     984:	0000                	unimp
     986:	c43d                	beqz	s0,9f4 <_start-0x801ff60c>
     988:	00802003          	lw	zero,8(zero) # 8 <_start-0x801ffff8>
     98c:	0000                	unimp
     98e:	2400                	fld	fs0,8(s0)
     990:	0000                	unimp
     992:	0000                	unimp
     994:	0000                	unimp
     996:	9000                	0x9000
     998:	0009                	c.nop	2
     99a:	3e00                	fld	fs0,56(a2)
     99c:	0069                	c.nop	26
     99e:	a20d8103          	lb	sp,-1504(s11)
     9a2:	0000                	unimp
     9a4:	0000                	unimp
     9a6:	0000                	unimp
     9a8:	3f00                	fld	fs0,56(a4)
     9aa:	03e4                	addi	s1,sp,460
     9ac:	8020                	0x8020
     9ae:	0000                	unimp
     9b0:	0000                	unimp
     9b2:	00000f0f          	0xf0f
     9b6:	0140                	addi	s0,sp,132
     9b8:	025a                	slli	tp,tp,0x16
     9ba:	0082                	c.slli64	ra
     9bc:	0000                	unimp
     9be:	9441                	srai	s0,s0,0x30
     9c0:	000a                	c.slli	zero,0x2
     9c2:	bc00                	fsd	fs0,56(s0)
     9c4:	2002                	fld	ft0,0(sp)
     9c6:	0080                	addi	s0,sp,64
     9c8:	0000                	unimp
     9ca:	1000                	addi	s0,sp,32
     9cc:	0001                	nop
     9ce:	0300                	addi	s0,sp,384
     9d0:	0c79                	addi	s8,s8,30
     9d2:	09d2                	slli	s3,s3,0x14
     9d4:	0000                	unimp
     9d6:	1042                	c.slli	zero,0x30
     9d8:	0001                	nop
     9da:	4300                	lw	s0,0(a4)
     9dc:	0aa1                	addi	s5,s5,8
     9de:	0000                	unimp
     9e0:	6c44                	ld	s1,152(s0)
     9e2:	000e                	c.slli	zero,0x3
     9e4:	5400                	lw	s0,40(s0)
     9e6:	00802003          	lw	zero,8(zero) # 8 <_start-0x801ffff8>
	...
     9f2:	0000                	unimp
     9f4:	0300                	addi	s0,sp,384
     9f6:	0571                	addi	a0,a0,28
     9f8:	7a45                	lui	s4,0xffff1
     9fa:	000e                	c.slli	zero,0x3
     9fc:	0000                	unimp
     9fe:	0000                	unimp
     a00:	ae41                	j	d90 <_start-0x801ff270>
     a02:	000a                	c.slli	zero,0x2
     a04:	8000                	0x8000
     a06:	00802003          	lw	zero,8(zero) # 8 <_start-0x801ffff8>
     a0a:	0000                	unimp
     a0c:	7000                	ld	s0,32(s0)
     a0e:	0001                	nop
     a10:	0300                	addi	s0,sp,384
     a12:	0e7e                	slli	t3,t3,0x1f
     a14:	0a86                	slli	s5,s5,0x1
     a16:	0000                	unimp
     a18:	7042                	0x7042
     a1a:	0001                	nop
     a1c:	4600                	lw	s0,8(a2)
     a1e:	00000abb          	addw	s5,zero,zero
     a22:	00000037          	lui	zero,0x0
     a26:	000e3947          	fmsub.s	fs2,ft8,ft0,ft0,rup
     a2a:	8000                	0x8000
     a2c:	00802003          	lw	zero,8(zero) # 8 <_start-0x801ffff8>
     a30:	0000                	unimp
     a32:	0800                	addi	s0,sp,16
     a34:	0000                	unimp
     a36:	0000                	unimp
     a38:	0000                	unimp
     a3a:	0300                	addi	s0,sp,384
     a3c:	1d58                	addi	a4,sp,692
     a3e:	0a45                	addi	s4,s4,17
     a40:	0000                	unimp
     a42:	3f44                	fld	fs1,184(a4)
     a44:	000e                	c.slli	zero,0x3
     a46:	8000                	0x8000
     a48:	00802003          	lw	zero,8(zero) # 8 <_start-0x801ffff8>
     a4c:	0000                	unimp
     a4e:	0800                	addi	s0,sp,16
     a50:	0000                	unimp
     a52:	0000                	unimp
     a54:	0000                	unimp
     a56:	0400                	addi	s0,sp,512
     a58:	2911                	addiw	s2,s2,4
     a5a:	4948                	lw	a0,20(a0)
     a5c:	000e                	c.slli	zero,0x3
     a5e:	5a00                	lw	s0,48(a2)
     a60:	0000                	unimp
     a62:	4900                	lw	s0,16(a0)
     a64:	0e55                	addi	t3,t3,21
     a66:	0000                	unimp
     a68:	6101                	0x6101
     a6a:	6049                	c.lui	zero,0x12
     a6c:	000e                	c.slli	zero,0x3
     a6e:	0100                	addi	s0,sp,128
     a70:	005a                	c.slli	zero,0x16
     a72:	4100                	lw	s0,0(a0)
     a74:	00000ee3          	beqz	zero,1290 <_start-0x801fed70>
     a78:	0398                	addi	a4,sp,448
     a7a:	8020                	0x8020
     a7c:	0000                	unimp
     a7e:	0000                	unimp
     a80:	01a0                	addi	s0,sp,200
     a82:	0000                	unimp
     a84:	63335a03          	lhu	s4,1587(t1) # ffffffffffffe633 <_ZL7out_buf+0xffffffff7fdf44e3>
     a88:	000a                	c.slli	zero,0x2
     a8a:	4500                	lw	s0,8(a0)
     a8c:	0eed                	addi	t4,t4,27
     a8e:	0000                	unimp
     a90:	3f00                	fld	fs0,56(a4)
     a92:	0398                	addi	a4,sp,448
     a94:	8020                	0x8020
     a96:	0000                	unimp
     a98:	0000                	unimp
     a9a:	00000f0f          	0xf0f
     a9e:	0140                	addi	s0,sp,132
     aa0:	095a                	slli	s2,s2,0x16
     aa2:	20088803          	lb	a6,512(a7)
     aa6:	0080                	addi	s0,sp,64
     aa8:	0000                	unimp
     aaa:	4000                	lw	s0,0(s0)
     aac:	5b01                	li	s6,-32
     aae:	7802                	ld	a6,32(sp)
     ab0:	0000                	unimp
     ab2:	0000                	unimp
     ab4:	084a                	slli	a6,a6,0x12
     ab6:	2004                	fld	fs1,0(s0)
     ab8:	0080                	addi	s0,sp,64
     aba:	0000                	unimp
     abc:	1b00                	addi	s0,sp,432
     abe:	0000000f          	fence	unknown,unknown
     ac2:	0002774b          	fnmsub.s	fa4,ft4,ft0,ft0
     ac6:	0300                	addi	s0,sp,384
     ac8:	0d66                	slli	s10,s10,0x19
     aca:	ae01                	j	dda <_start-0x801ff226>
     acc:	000a                	c.slli	zero,0x2
     ace:	4c00                	lw	s0,24(s0)
     ad0:	0081                	addi	ra,ra,0
     ad2:	0000                	unimp
     ad4:	e00f6703          	lwu	a4,-512(t5) # 210dc <_start-0x801def24>
     ad8:	0005                	c.nop	1
     ada:	0000                	unimp
     adc:	00029c4b          	fnmsub.s	fs8,ft5,ft0,ft0,rtz
     ae0:	0300                	addi	s0,sp,384
     ae2:	c8010d57          	0xc8010d57
     ae6:	000a                	c.slli	zero,0x2
     ae8:	4c00                	lw	s0,24(s0)
     aea:	04e8                	addi	a0,sp,588
     aec:	0000                	unimp
     aee:	a2095803          	lhu	a6,-1504(s2)
     af2:	0000                	unimp
     af4:	0000                	unimp
     af6:	b83c                	fsd	fa5,112(s0)
     af8:	0005                	c.nop	1
     afa:	0300                	addi	s0,sp,384
     afc:	01bc284f          	fnmadd.s	fa6,fs8,fs11,ft0,rdn
     b00:	8020                	0x8020
     b02:	0000                	unimp
     b04:	0000                	unimp
     b06:	0100                	addi	s0,sp,128
     b08:	0000                	unimp
     b0a:	0000                	unimp
     b0c:	0000                	unimp
     b0e:	9c01                	subw	s0,s0,s0
     b10:	0af4                	addi	a3,sp,348
     b12:	0000                	unimp
     b14:	3c4d                	addiw	s8,s8,-13
     b16:	2002                	fld	ft0,0(sp)
     b18:	0080                	addi	s0,sp,64
     b1a:	0000                	unimp
     b1c:	f400                	sd	s0,40(s0)
     b1e:	000a                	c.slli	zero,0x2
     b20:	0000                	unimp
     b22:	eb3c                	sd	a5,80(a4)
     b24:	0005                	c.nop	1
     b26:	0300                	addi	s0,sp,384
     b28:	1128                	addi	a0,sp,168
     b2a:	0120                	addi	s0,sp,136
     b2c:	8020                	0x8020
     b2e:	0000                	unimp
     b30:	0000                	unimp
     b32:	009c                	addi	a5,sp,64
     b34:	0000                	unimp
     b36:	0000                	unimp
     b38:	0000                	unimp
     b3a:	9c01                	subw	s0,s0,s0
     b3c:	0bc8                	addi	a0,sp,468
     b3e:	0000                	unimp
     b40:	284e                	fld	fa6,208(sp)
     b42:	0005                	c.nop	1
     b44:	0300                	addi	s0,sp,384
     b46:	0b29                	addi	s6,s6,10
     b48:	0029                	c.nop	10
     b4a:	0000                	unimp
     b4c:	007e                	c.slli	zero,0x1f
     b4e:	0000                	unimp
     b50:	ed4e                	sd	s3,152(sp)
     b52:	0004                	0x4
     b54:	0300                	addi	s0,sp,384
     b56:	0c2a                	slli	s8,s8,0xa
     b58:	00000037          	lui	zero,0x0
     b5c:	0104                	addi	s1,sp,128
     b5e:	0000                	unimp
     b60:	0000c04f          	fnmadd.s	ft0,ft1,ft0,ft0,rmm
     b64:	5e00                	lw	s0,56(a2)
     b66:	5000000b          	0x5000000b
     b6a:	df014e03          	lbu	t3,-528(sp) # f0ae <_start-0x801f0f52>
     b6e:	0004                	0x4
     b70:	4a00                	lw	s0,16(a2)
     b72:	0190                	addi	a2,sp,192
     b74:	8020                	0x8020
     b76:	0000                	unimp
     b78:	0000                	unimp
     b7a:	00000f1b          	sext.w	t5,zero
     b7e:	bc4a                	fsd	fs2,56(sp)
     b80:	2001                	0x2001
     b82:	0080                	addi	s0,sp,64
     b84:	0000                	unimp
     b86:	6c00                	ld	s0,24(s0)
     b88:	000c                	0xc
     b8a:	0000                	unimp
     b8c:	0000904f          	fnmadd.s	ft0,ft1,ft0,ft0,rtz
     b90:	a900                	fsd	fs0,16(a0)
     b92:	5000000b          	0x5000000b
     b96:	df014e03          	lbu	t3,-528(sp)
     b9a:	0004                	0x4
     b9c:	5100                	lw	s0,32(a0)
     b9e:	0154                	addi	a3,sp,132
     ba0:	8020                	0x8020
     ba2:	0000                	unimp
     ba4:	0000                	unimp
     ba6:	00000f0f          	0xf0f
     baa:	0b8e                	slli	s7,s7,0x3
     bac:	0000                	unimp
     bae:	0140                	addi	s0,sp,132
     bb0:	095a                	slli	s2,s2,0x16
     bb2:	20087803          	0x20087803
     bb6:	0080                	addi	s0,sp,64
     bb8:	0000                	unimp
     bba:	0000                	unimp
     bbc:	584d                	li	a6,-13
     bbe:	2001                	0x2001
     bc0:	0080                	addi	s0,sp,64
     bc2:	0000                	unimp
     bc4:	1b00                	addi	s0,sp,432
     bc6:	4d00000f          	0x4d00000f
     bca:	0194                	addi	a3,sp,192
     bcc:	8020                	0x8020
     bce:	0000                	unimp
     bd0:	0000                	unimp
     bd2:	0bc8                	addi	a0,sp,468
     bd4:	0000                	unimp
     bd6:	4400                	lw	s0,8(s0)
     bd8:	0e84                	addi	s1,sp,848
     bda:	0000                	unimp
     bdc:	0134                	addi	a3,sp,136
     bde:	8020                	0x8020
	...
     bec:	45202d03          	lw	s10,1106(zero) # 452 <_start-0x801ffbae>
     bf0:	0e8e                	slli	t4,t4,0x3
     bf2:	0000                	unimp
     bf4:	0000                	unimp
     bf6:	5d52                	lw	s10,52(sp)
     bf8:	03000003          	lb	zero,48(zero) # 30 <_start-0x801fffd0>
     bfc:	061f 054c 0000      	0x54c061f
     c02:	00b0                	addi	a2,sp,72
     c04:	8020                	0x8020
     c06:	0000                	unimp
     c08:	0000                	unimp
     c0a:	0070                	addi	a2,sp,12
     c0c:	0000                	unimp
     c0e:	0000                	unimp
     c10:	0000                	unimp
     c12:	9c01                	subw	s0,s0,s0
     c14:	0c4a                	slli	s8,s8,0x12
     c16:	0000                	unimp
     c18:	0350                	addi	a2,sp,388
     c1a:	0126                	slli	sp,sp,0x9
     c1c:	06ae                	slli	a3,a3,0xb
     c1e:	0000                	unimp
     c20:	1a35                	addi	s4,s4,-19
     c22:	03000003          	lb	zero,48(zero) # 30 <_start-0x801fffd0>
     c26:	1220                	addi	s0,sp,296
     c28:	00a2                	slli	ra,ra,0x8
     c2a:	0000                	unimp
     c2c:	6101                	0x6101
     c2e:	6535                	lui	a0,0xd
     c30:	0002                	c.slli64	zero
     c32:	0300                	addi	s0,sp,384
     c34:	0d21                	addi	s10,s10,8
     c36:	0724                	addi	s1,sp,904
     c38:	0000                	unimp
     c3a:	030a                	slli	t1,t1,0x2
     c3c:	a0a8                	fsd	fa0,64(s1)
     c3e:	8020                	0x8020
     c40:	0000                	unimp
     c42:	0000                	unimp
     c44:	519f 00d0 8020      	0x802000d0519f
     c4a:	0000                	unimp
     c4c:	0000                	unimp
     c4e:	00000f0f          	0xf0f
     c52:	0c3c                	addi	a5,sp,536
     c54:	0000                	unimp
     c56:	0140                	addi	s0,sp,132
     c58:	095a                	slli	s2,s2,0x16
     c5a:	20086803          	lwu	a6,512(a6)
     c5e:	0080                	addi	s0,sp,64
     c60:	0000                	unimp
     c62:	4000                	lw	s0,0(s0)
     c64:	5b01                	li	s6,-32
     c66:	7802                	ld	a6,32(sp)
     c68:	0000                	unimp
     c6a:	20010853          	fsgnj.s	fa6,ft2,ft0
     c6e:	0080                	addi	s0,sp,64
     c70:	0000                	unimp
     c72:	0300                	addi	s0,sp,384
     c74:	0078                	addi	a4,sp,12
     c76:	0006                	c.slli	zero,0x1
     c78:	8554                	0x8554
     c7a:	0006                	c.slli	zero,0x1
     c7c:	0300                	addi	s0,sp,384
     c7e:	0467051b          	addiw	a0,a4,70
     c82:	0000                	unimp
     c84:	00a2                	slli	ra,ra,0x8
     c86:	0000                	unimp
     c88:	0004                	0x4
     c8a:	8020                	0x8020
     c8c:	0000                	unimp
     c8e:	0000                	unimp
     c90:	0008                	0x8
     c92:	0000                	unimp
     c94:	0000                	unimp
     c96:	0000                	unimp
     c98:	9c01                	subw	s0,s0,s0
     c9a:	4c55                	li	s8,21
     c9c:	0004                	0x4
     c9e:	0300                	addi	s0,sp,384
     ca0:	048d060f          	0x48d060f
     ca4:	0000                	unimp
     ca6:	000c                	0xc
     ca8:	8020                	0x8020
     caa:	0000                	unimp
     cac:	0000                	unimp
     cae:	00a4                	addi	s1,sp,72
     cb0:	0000                	unimp
     cb2:	0000                	unimp
     cb4:	0000                	unimp
     cb6:	9c01                	subw	s0,s0,s0
     cb8:	0e11                	addi	t3,t3,4
     cba:	0000                	unimp
     cbc:	e84e                	sd	s3,16(sp)
     cbe:	0004                	0x4
     cc0:	0300                	addi	s0,sp,384
     cc2:	0910                	addi	a2,sp,144
     cc4:	00a2                	slli	ra,ra,0x8
     cc6:	0000                	unimp
     cc8:	014d                	addi	sp,sp,19
     cca:	0000                	unimp
     ccc:	6334                	ld	a3,64(a4)
     cce:	746e                	ld	s0,248(sp)
     cd0:	0300                	addi	s0,sp,384
     cd2:	1011                	c.nop	-28
     cd4:	00a2                	slli	ra,ra,0x8
     cd6:	0000                	unimp
     cd8:	0309                	addi	t1,t1,2
     cda:	a000                	fsd	fs0,0(s0)
     cdc:	8020                	0x8020
     cde:	0000                	unimp
     ce0:	0000                	unimp
     ce2:	ff4e                	sd	s3,440(sp)
     ce4:	0004                	0x4
     ce6:	0300                	addi	s0,sp,384
     ce8:	0c12                	slli	s8,s8,0x4
     cea:	00000037          	lui	zero,0x0
     cee:	00000183          	lb	gp,0(zero) # 0 <_start-0x80200000>
     cf2:	fe4e                	sd	s3,312(sp)
     cf4:	0004                	0x4
     cf6:	0300                	addi	s0,sp,384
     cf8:	0a14                	addi	a3,sp,272
     cfa:	004d                	c.nop	19
     cfc:	0000                	unimp
     cfe:	01a6                	slli	gp,gp,0x9
     d00:	0000                	unimp
     d02:	664e                	ld	a2,208(sp)
     d04:	0005                	c.nop	1
     d06:	0300                	addi	s0,sp,384
     d08:	1615                	addi	a2,a2,-27
     d0a:	0e11                	addi	t3,t3,4
     d0c:	0000                	unimp
     d0e:	01c9                	addi	gp,gp,18
     d10:	0000                	unimp
     d12:	743d                	lui	s0,0xfffef
     d14:	2000                	fld	fs0,0(s0)
     d16:	0080                	addi	s0,sp,64
     d18:	0000                	unimp
     d1a:	2400                	fld	fs0,8(s0)
     d1c:	0000                	unimp
     d1e:	0000                	unimp
     d20:	0000                	unimp
     d22:	3f00                	fld	fs0,56(a4)
     d24:	000d                	c.nop	3
     d26:	4e00                	lw	s0,24(a2)
     d28:	04b4                	addi	a3,sp,584
     d2a:	0000                	unimp
     d2c:	7f0e1803          	lh	a6,2032(t3)
     d30:	0000                	unimp
     d32:	ec00                	sd	s0,24(s0)
     d34:	0001                	nop
     d36:	5600                	lw	s0,40(a2)
     d38:	000003c3          	fmadd.s	ft7,ft0,ft0,ft0,rne
     d3c:	00000e27          	0xe27
     d40:	030a                	slli	t1,t1,0x2
     d42:	a010                	fsd	fa2,0(s0)
     d44:	8020                	0x8020
     d46:	0000                	unimp
     d48:	0000                	unimp
     d4a:	579f 004a 0000      	0x4a579f
     d50:	0e2d                	addi	t3,t3,11
     d52:	0000                	unimp
     d54:	0000020f          	0x20f
     d58:	3156                	fld	ft2,368(sp)
     d5a:	0000                	unimp
     d5c:	2d00                	fld	fs0,24(a0)
     d5e:	000e                	c.slli	zero,0x3
     d60:	0a00                	addi	s0,sp,272
     d62:	20a06003          	lwu	zero,522(zero) # 20a <_start-0x801ffdf6>
     d66:	0080                	addi	s0,sp,64
     d68:	0000                	unimp
     d6a:	9f00                	0x9f00
     d6c:	4100                	lw	s0,0(a0)
     d6e:	0e39                	addi	t3,t3,14
     d70:	0000                	unimp
     d72:	000c                	0xc
     d74:	8020                	0x8020
     d76:	0000                	unimp
     d78:	0000                	unimp
     d7a:	0030                	addi	a2,sp,8
     d7c:	0000                	unimp
     d7e:	8a1d1003          	lh	zero,-1887(s10)
     d82:	000d                	c.nop	3
     d84:	5800                	lw	s0,48(s0)
     d86:	00000e3f 8020000c 	0x8020000c00000e3f
     d8e:	0000                	unimp
     d90:	0000                	unimp
     d92:	0030                	addi	a2,sp,8
     d94:	0000                	unimp
     d96:	1104                	addi	s1,sp,160
     d98:	4829                	li	a6,10
     d9a:	0e49                	addi	t3,t3,18
     d9c:	0000                	unimp
     d9e:	00000263          	beqz	zero,da2 <_start-0x801ff25e>
     da2:	3042                	fld	ft0,48(sp)
     da4:	0000                	unimp
     da6:	4900                	lw	s0,16(a0)
     da8:	0e55                	addi	t3,t3,21
     daa:	0000                	unimp
     dac:	6101                	0x6101
     dae:	6049                	c.lui	zero,0x12
     db0:	000e                	c.slli	zero,0x3
     db2:	0100                	addi	s0,sp,128
     db4:	005a                	c.slli	zero,0x16
     db6:	0000                	unimp
     db8:	e341                	bnez	a4,e38 <_start-0x801ff1c8>
     dba:	000e                	c.slli	zero,0x3
     dbc:	2800                	fld	fs0,16(s0)
     dbe:	2000                	fld	fs0,0(s0)
     dc0:	0080                	addi	s0,sp,64
     dc2:	0000                	unimp
     dc4:	6000                	ld	s0,0(s0)
     dc6:	0000                	unimp
     dc8:	0300                	addi	s0,sp,384
     dca:	5615                	li	a2,-27
     dcc:	0da8                	addi	a0,sp,728
     dce:	0000                	unimp
     dd0:	ed45                	bnez	a0,e88 <_start-0x801ff178>
     dd2:	000e                	c.slli	zero,0x3
     dd4:	0000                	unimp
     dd6:	000e3347          	fmsub.s	ft6,ft8,ft0,ft0,rup
     dda:	9800                	0x9800
     ddc:	2000                	fld	fs0,0(s0)
     dde:	0080                	addi	s0,sp,64
     de0:	0000                	unimp
     de2:	0400                	addi	s0,sp,512
     de4:	0000                	unimp
     de6:	0000                	unimp
     de8:	0000                	unimp
     dea:	0300                	addi	s0,sp,384
     dec:	1319                	addi	t1,t1,-26
     dee:	0df5                	addi	s11,s11,29
     df0:	0000                	unimp
     df2:	3f44                	fld	fs1,184(a4)
     df4:	000e                	c.slli	zero,0x3
     df6:	9800                	0x9800
     df8:	2000                	fld	fs0,0(s0)
     dfa:	0080                	addi	s0,sp,64
     dfc:	0000                	unimp
     dfe:	0400                	addi	s0,sp,512
     e00:	0000                	unimp
     e02:	0000                	unimp
     e04:	0000                	unimp
     e06:	0400                	addi	s0,sp,512
     e08:	2812                	fld	fa6,256(sp)
     e0a:	4948                	lw	a0,20(a0)
     e0c:	000e                	c.slli	zero,0x3
     e0e:	8700                	0x8700
     e10:	0002                	c.slli64	zero
     e12:	4600                	lw	s0,8(a2)
     e14:	0e55                	addi	t3,t3,21
     e16:	0000                	unimp
     e18:	00000287          	0x287
     e1c:	000e6043          	fmadd.s	ft0,ft8,ft0,ft0,unknown
     e20:	0000                	unimp
     e22:	3f00                	fld	fs0,56(a4)
     e24:	0060                	addi	s0,sp,12
     e26:	8020                	0x8020
     e28:	0000                	unimp
     e2a:	0000                	unimp
     e2c:	00000f0f          	0xf0f
     e30:	0140                	addi	s0,sp,132
     e32:	095a                	slli	s2,s2,0x16
     e34:	20083803          	ld	a6,512(a6)
     e38:	0080                	addi	s0,sp,64
     e3a:	0000                	unimp
     e3c:	0000                	unimp
     e3e:	3200                	fld	fs0,32(a2)
     e40:	4808                	lw	a0,16(s0)
     e42:	0000                	unimp
     e44:	2000                	fld	fs0,0(s0)
     e46:	0000007f          	radd16	zero,zero,zero
     e4a:	00000e27          	0xe27
     e4e:	4d21                	li	s10,8
     e50:	0000                	unimp
     e52:	0900                	addi	s0,sp,144
     e54:	3200                	fld	fs0,32(a2)
     e56:	1708                	addi	a0,sp,928
     e58:	000e                	c.slli	zero,0x3
     e5a:	0700                	addi	s0,sp,896
     e5c:	7f08                	ld	a0,56(a4)
     e5e:	0000                	unimp
     e60:	5900                	lw	s0,48(a0)
     e62:	00000677          	0x677
     e66:	06875903          	lhu	s2,104(a4) # b068 <_start-0x801f4f98>
     e6a:	0000                	unimp
     e6c:	06975a03          	lhu	s4,105(a4)
     e70:	0000                	unimp
     e72:	000e6c03          	lwu	s8,0(t3)
     e76:	3b00                	fld	fs0,48(a4)
     e78:	031a                	slli	t1,t1,0x6
     e7a:	0000                	unimp
     e7c:	0b04                	addi	s1,sp,400
     e7e:	a21a                	fsd	ft6,256(sp)
     e80:	0000                	unimp
     e82:	2200                	fld	fs0,0(a2)
     e84:	3761                	addiw	a4,a4,-8
     e86:	0400                	addi	s0,sp,512
     e88:	160c                	addi	a1,sp,800
     e8a:	00a2                	slli	ra,ra,0x8
     e8c:	0000                	unimp
     e8e:	6122                	ld	sp,8(sp)
     e90:	0030                	addi	a2,sp,8
     e92:	0e04                	addi	s1,sp,784
     e94:	a216                	fsd	ft5,256(sp)
     e96:	0000                	unimp
     e98:	0000                	unimp
     e9a:	0006195b          	0x6195b
     e9e:	7a00                	ld	s0,48(a2)
     ea0:	000e                	c.slli	zero,0x3
     ea2:	0300                	addi	s0,sp,384
     ea4:	0e84                	addi	s1,sp,848
     ea6:	0000                	unimp
     ea8:	965c                	0x965c
     eaa:	0000                	unimp
     eac:	3b00                	fld	fs0,48(a4)
     eae:	0006                	c.slli	zero,0x1
     eb0:	0000                	unimp
     eb2:	715a                	ld	sp,432(sp)
     eb4:	0005                	c.nop	1
     eb6:	0300                	addi	s0,sp,384
     eb8:	00000e9b          	sext.w	t4,zero
     ebc:	0002e13b          	0x2e13b
     ec0:	0500                	addi	s0,sp,640
     ec2:	2b31                	addiw	s6,s6,12
     ec4:	00000037          	lui	zero,0x0
     ec8:	5d00                	lw	s0,56(a0)
     eca:	0404                	addi	s1,sp,512
     ecc:	0000                	unimp
     ece:	0408                	addi	a0,sp,512
     ed0:	8020                	0x8020
     ed2:	0000                	unimp
     ed4:	0000                	unimp
     ed6:	0034                	addi	a3,sp,8
     ed8:	0000                	unimp
     eda:	0000                	unimp
     edc:	0000                	unimp
     ede:	9c01                	subw	s0,s0,s0
     ee0:	00000ee3          	beqz	zero,16fc <_start-0x801fe904>
     ee4:	735e                	ld	t1,496(sp)
     ee6:	0100                	addi	s0,sp,128
     ee8:	3022                	fld	ft0,40(sp)
     eea:	0444                	addi	s1,sp,516
     eec:	0000                	unimp
     eee:	000002ab          	0x2ab
     ef2:	fa58                	sd	a4,176(a2)
     ef4:	000e                	c.slli	zero,0x3
     ef6:	1000                	addi	s0,sp,32
     ef8:	2004                	fld	fs1,0(s0)
     efa:	0080                	addi	s0,sp,64
     efc:	0000                	unimp
     efe:	0000                	unimp
     f00:	0000                	unimp
     f02:	0100                	addi	s0,sp,128
     f04:	04482d23          	sw	tp,90(a6)
     f08:	e100000f          	0xe100000f
     f0c:	0002                	c.slli64	zero
     f0e:	0000                	unimp
     f10:	5a00                	lw	s0,48(a2)
     f12:	0278                	addi	a4,sp,268
     f14:	0000                	unimp
     f16:	000efa03          	0xefa03
     f1a:	3b00                	fld	fs0,48(a4)
     f1c:	04e8                	addi	a0,sp,588
     f1e:	0000                	unimp
     f20:	5a02                	lw	s4,32(sp)
     f22:	a229                	j	102c <_start-0x801fefd4>
     f24:	0000                	unimp
     f26:	0000                	unimp
     f28:	bf5a                	fsd	fs6,440(sp)
     f2a:	0001                	nop
     f2c:	0300                	addi	s0,sp,384
     f2e:	00000f0f          	0xf0f
     f32:	635f 0200 2330      	0x23300200635f
     f38:	000003d3          	fadd.s	ft7,ft0,ft0,rne
     f3c:	6000                	ld	s0,0(s0)
     f3e:	0742                	slli	a4,a4,0x10
     f40:	0000                	unimp
     f42:	0742                	slli	a4,a4,0x10
     f44:	0000                	unimp
     f46:	5601                	li	a2,-32
     f48:	6008                	ld	a0,0(s0)
     f4a:	0615                	addi	a2,a2,5
     f4c:	0000                	unimp
     f4e:	0615                	addi	a2,a2,5
     f50:	0000                	unimp
     f52:	3c01                	addiw	s8,s8,-32
     f54:	0006                	c.slli	zero,0x1
     f56:	00000133          	add	sp,zero,zero
     f5a:	0004                	0x4
     f5c:	05b5                	addi	a1,a1,13
     f5e:	0000                	unimp
     f60:	0108                	addi	a0,sp,128
     f62:	00c2                	slli	ra,ra,0x10
     f64:	0000                	unimp
     f66:	0504                	addi	s1,sp,640
     f68:	08000007          	0x8000007
     f6c:	0000                	unimp
     f6e:	0000                	unimp
     f70:	0002                	c.slli64	zero
	...
     f7a:	7500                	ld	s0,40(a0)
     f7c:	0009                	c.nop	2
     f7e:	0200                	addi	s0,sp,256
     f80:	0708                	addi	a0,sp,896
     f82:	0000027f          	radd16	tp,zero,zero
     f86:	0402                	c.slli64	s0
     f88:	00028407          	0x28407
     f8c:	0200                	addi	s0,sp,256
     f8e:	0801                	addi	a6,a6,0
     f90:	047a                	slli	s0,s0,0x1e
     f92:	0000                	unimp
     f94:	69050403          	lb	s0,1680(a0) # d690 <_start-0x801f2970>
     f98:	746e                	ld	s0,248(sp)
     f9a:	0200                	addi	s0,sp,256
     f9c:	0508                	addi	a0,sp,640
     f9e:	0000015b          	0x15b
     fa2:	0802                	c.slli64	a6
     fa4:	5605                	li	a2,-31
     fa6:	0001                	nop
     fa8:	0200                	addi	s0,sp,256
     faa:	0410                	addi	a2,sp,512
     fac:	03ed                	addi	t2,t2,27
     fae:	0000                	unimp
     fb0:	8304                	0x8304
     fb2:	05000003          	lb	zero,80(zero) # 50 <_start-0x801fffb0>
     fb6:	00727363          	bgeu	tp,t2,fbc <_start-0x801ff044>
     fba:	8c0b1203          	lh	tp,-1856(s6)
     fbe:	0000                	unimp
     fc0:	0600                	addi	s0,sp,768
     fc2:	696d                	lui	s2,0x1b
     fc4:	0065                	c.nop	25
     fc6:	060f1403          	lh	s0,96(t5)
     fca:	696d                	lui	s2,0x1b
     fcc:	0070                	addi	a2,sp,12
     fce:	070f1c03          	lh	s8,112(t5)
     fd2:	02e1                	addi	t0,t0,24
     fd4:	0000                	unimp
     fd6:	070f2503          	lw	a0,112(t5)
     fda:	0000056f          	jal	a0,fda <_start-0x801ff026>
     fde:	000f3303          	ld	t1,0(t5)
     fe2:	7305                	lui	t1,0xfffe1
     fe4:	7379                	lui	t1,0xffffe
     fe6:	0200                	addi	s0,sp,256
     fe8:	0b05                	addi	s6,s6,1
     fea:	000000af          	0xaf
     fee:	fd08                	sd	a0,56(a0)
     ff0:	0006                	c.slli	zero,0x1
     ff2:	0200                	addi	s0,sp,256
     ff4:	100c                	addi	a1,sp,32
     ff6:	000006eb          	0x6eb
     ffa:	003e                	c.slli	zero,0xf
     ffc:	0000                	unimp
     ffe:	3e09                	addiw	t3,t3,-30
    1000:	0000                	unimp
    1002:	0000                	unimp
    1004:	0a00                	addi	s0,sp,272
    1006:	06d5                	addi	a3,a3,21
    1008:	0000                	unimp
    100a:	0901                	addi	s2,s2,0
    100c:	0d06                	slli	s10,s10,0x1
    100e:	0b000007          	0xb000007
    1012:	071a                	slli	a4,a4,0x6
    1014:	0000                	unimp
    1016:	0301                	addi	t1,t1,0
    1018:	de06                	sw	ra,60(sp)
    101a:	0006                	c.slli	zero,0x1
    101c:	3c00                	fld	fs0,56(s0)
    101e:	2004                	fld	fs1,0(s0)
    1020:	0080                	addi	s0,sp,64
    1022:	0000                	unimp
    1024:	0c00                	addi	s0,sp,528
    1026:	0000                	unimp
    1028:	0000                	unimp
    102a:	0000                	unimp
    102c:	0100                	addi	s0,sp,128
    102e:	0e9c                	addi	a5,sp,848
    1030:	0001                	nop
    1032:	0c00                	addi	s0,sp,528
    1034:	010e                	slli	sp,sp,0x3
    1036:	0000                	unimp
    1038:	043c                	addi	a5,sp,520
    103a:	8020                	0x8020
    103c:	0000                	unimp
    103e:	0000                	unimp
    1040:	0004                	0x4
    1042:	0000                	unimp
    1044:	0000                	unimp
    1046:	0000                	unimp
    1048:	0501                	addi	a0,a0,0
    104a:	0d15                	addi	s10,s10,5
    104c:	0114                	addi	a3,sp,128
    104e:	0000                	unimp
    1050:	0304                	addi	s1,sp,384
    1052:	0000                	unimp
    1054:	1f0e                	slli	t5,t5,0x23
    1056:	0001                	nop
    1058:	0400                	addi	s0,sp,512
    105a:	0f000003          	lb	zero,240(zero) # f0 <_start-0x801fff10>
    105e:	012a                	slli	sp,sp,0xa
    1060:	0000                	unimp
    1062:	0000                	unimp
    1064:	9810                	0x9810
    1066:	0000                	unimp
    1068:	0300                	addi	s0,sp,384
    106a:	6911                	lui	s2,0x4
    106c:	0064                	addi	s1,sp,12
    106e:	0c02                	c.slli64	s8
    1070:	3e1c                	fld	fa5,56(a2)
    1072:	0000                	unimp
    1074:	1200                	addi	s0,sp,288
    1076:	3761                	addiw	a4,a4,-8
    1078:	0200                	addi	s0,sp,256
    107a:	160d                	addi	a2,a2,-29
    107c:	003e                	c.slli	zero,0xf
    107e:	0000                	unimp
    1080:	6112                	ld	sp,256(sp)
    1082:	0030                	addi	a2,sp,8
    1084:	0f02                	c.slli64	t5
    1086:	3e16                	fld	ft8,352(sp)
    1088:	0000                	unimp
    108a:	0000                	unimp
    108c:	5a00                	lw	s0,48(a2)
    108e:	0006                	c.slli	zero,0x1
    1090:	0400                	addi	s0,sp,512
    1092:	a900                	fsd	fs0,16(a0)
    1094:	0006                	c.slli	zero,0x1
    1096:	0800                	addi	s0,sp,16
    1098:	c201                	beqz	a2,1098 <_start-0x801fef68>
    109a:	0000                	unimp
    109c:	0400                	addi	s0,sp,512
    109e:	00000723          	sb	zero,14(zero) # e <_start-0x801ffff2>
    10a2:	0008                	0x8
    10a4:	0000                	unimp
    10a6:	0454                	addi	a3,sp,516
    10a8:	8020                	0x8020
    10aa:	0000                	unimp
    10ac:	0000                	unimp
    10ae:	03e0                	addi	s0,sp,460
    10b0:	0000                	unimp
    10b2:	0000                	unimp
    10b4:	0000                	unimp
    10b6:	0a5d                	addi	s4,s4,23
    10b8:	0000                	unimp
    10ba:	0802                	c.slli64	a6
    10bc:	00027f07          	0x27f07
    10c0:	0200                	addi	s0,sp,256
    10c2:	0704                	addi	s1,sp,896
    10c4:	0284                	addi	s1,sp,320
    10c6:	0000                	unimp
    10c8:	0102                	c.slli64	sp
    10ca:	7a08                	ld	a0,48(a2)
    10cc:	0004                	0x4
    10ce:	0300                	addi	s0,sp,384
    10d0:	0504                	addi	s1,sp,640
    10d2:	6e69                	lui	t3,0x1a
    10d4:	0074                	addi	a3,sp,12
    10d6:	4204                	lw	s1,0(a2)
    10d8:	0000                	unimp
    10da:	0200                	addi	s0,sp,256
    10dc:	0508                	addi	a0,sp,640
    10de:	0000015b          	0x15b
    10e2:	4e04                	lw	s1,24(a2)
    10e4:	0000                	unimp
    10e6:	0500                	addi	s0,sp,640
    10e8:	0060                	addi	s0,sp,12
    10ea:	0000                	unimp
    10ec:	d102                	sw	zero,160(sp)
    10ee:	00002d17          	auipc	s10,0x2
    10f2:	0200                	addi	s0,sp,256
    10f4:	0508                	addi	a0,sp,640
    10f6:	0156                	slli	sp,sp,0x15
    10f8:	0000                	unimp
    10fa:	1002                	c.slli	zero,0x20
    10fc:	ed04                	sd	s1,24(a0)
    10fe:	06000003          	lb	zero,96(zero) # 60 <_start-0x801fffa0>
    1102:	00000383          	lb	t2,0(zero) # 0 <_start-0x80200000>
    1106:	6b05                	lui	s6,0x1
    1108:	03000007          	0x3000007
    110c:	1b28                	addi	a0,sp,440
    110e:	0085                	addi	ra,ra,1
    1110:	0000                	unimp
    1112:	07590807          	0x7590807
    1116:	0000                	unimp
    1118:	7205                	lui	tp,0xfffe1
    111a:	03000007          	0x3000007
    111e:	00791863          	bne	s2,t2,112e <_start-0x801feed2>
    1122:	0000                	unimp
    1124:	2208                	fld	fa0,0(a2)
    1126:	0004                	0x4
    1128:	0400                	addi	s0,sp,512
    112a:	01740b13          	addi	s6,s0,23 # fffffffffffef017 <_ZL7out_buf+0xffffffff7fde4ec7>
    112e:	0000                	unimp
    1130:	a608                	fsd	fa0,8(a2)
    1132:	0002                	c.slli64	zero
    1134:	0400                	addi	s0,sp,512
    1136:	0f14                	addi	a3,sp,912
    1138:	00cd                	addi	ra,ra,19
    113a:	0000                	unimp
    113c:	6909                	lui	s2,0x2
    113e:	7172                	ld	sp,312(sp)
    1140:	0400                	addi	s0,sp,512
    1142:	1816                	slli	a6,a6,0x25
    1144:	0049                	c.nop	18
    1146:	0000                	unimp
    1148:	0a0a                	slli	s4,s4,0x2
    114a:	000003cf          	fnmadd.s	ft7,ft0,ft0,ft0,rne
    114e:	1704                	addi	s1,sp,928
    1150:	5518                	lw	a4,40(a0)
    1152:	0000                	unimp
    1154:	0000                	unimp
    1156:	0000                	unimp
    1158:	0010                	0x10
    115a:	6208                	ld	a0,0(a2)
    115c:	0004                	0x4
    115e:	0400                	addi	s0,sp,512
    1160:	013a0f47          	fmsub.s	ft10,fs4,fs3,ft0,rne
    1164:	0000                	unimp
    1166:	cf0a                	sw	sp,156(sp)
    1168:	04000003          	lb	zero,64(zero) # 40 <_start-0x801fffc0>
    116c:	1849                	addi	a6,a6,-14
    116e:	0055                	c.nop	21
    1170:	0000                	unimp
    1172:	0000                	unimp
    1174:	0c00                	addi	s0,sp,528
    1176:	400a                	0x400a
    1178:	04000003          	lb	zero,64(zero) # 40 <_start-0x801fffc0>
    117c:	0d4a                	slli	s10,s10,0x12
    117e:	0055                	c.nop	21
    1180:	0000                	unimp
    1182:	0000                	unimp
    1184:	0c00                	addi	s0,sp,528
    1186:	f00a                	sd	sp,32(sp)
    1188:	0002                	c.slli64	zero
    118a:	0400                	addi	s0,sp,512
    118c:	00550d4b          	fnmsub.s	fs10,fa0,ft5,ft0,rne
    1190:	0000                	unimp
    1192:	1000                	addi	s0,sp,32
    1194:	0c00                	addi	s0,sp,528
    1196:	d60a                	sw	sp,44(sp)
    1198:	0001                	nop
    119a:	0400                	addi	s0,sp,512
    119c:	0d4c                	addi	a1,sp,660
    119e:	0055                	c.nop	21
    11a0:	0000                	unimp
    11a2:	2000                	fld	fs0,0(s0)
    11a4:	0c00                	addi	s0,sp,528
    11a6:	700a                	0x700a
    11a8:	0004                	0x4
    11aa:	0400                	addi	s0,sp,512
    11ac:	0d4d                	addi	s10,s10,19
    11ae:	0055                	c.nop	21
    11b0:	0000                	unimp
    11b2:	0000                	unimp
    11b4:	0c20                	addi	s0,sp,536
    11b6:	230a                	fld	ft6,128(sp)
    11b8:	0002                	c.slli64	zero
    11ba:	0400                	addi	s0,sp,512
    11bc:	0d4e                	slli	s10,s10,0x13
    11be:	0055                	c.nop	21
    11c0:	0000                	unimp
    11c2:	0004                	0x4
    11c4:	0c20                	addi	s0,sp,536
    11c6:	0b00                	addi	s0,sp,400
    11c8:	000003e7          	jalr	t2,zero # 0 <_start-0x80200000>
    11cc:	5404                	lw	s1,40(s0)
    11ce:	03cf0a0f          	0x3cf0a0f
    11d2:	0000                	unimp
    11d4:	5604                	lw	s1,40(a2)
    11d6:	5518                	lw	a4,40(a0)
    11d8:	0000                	unimp
    11da:	0000                	unimp
    11dc:	0000                	unimp
    11de:	0a02                	c.slli64	s4
    11e0:	04fe                	slli	s1,s1,0x1f
    11e2:	0000                	unimp
    11e4:	5704                	lw	s1,40(a4)
    11e6:	550d                	li	a0,-29
    11e8:	0000                	unimp
    11ea:	f800                	sd	s0,48(s0)
    11ec:	0a0200bf 00000566 	0x5660a0200bf
    11f4:	5804                	lw	s1,48(s0)
    11f6:	550d                	li	a0,-29
    11f8:	0000                	unimp
    11fa:	0000                	unimp
    11fc:	0040                	addi	s0,sp,4
    11fe:	0002                	c.slli64	zero
    1200:	0c00                	addi	s0,sp,528
    1202:	000000af          	0xaf
    1206:	bc0c                	fsd	fa1,56(s0)
    1208:	0000                	unimp
    120a:	0c00                	addi	s0,sp,528
    120c:	00d9                	addi	ra,ra,22
    120e:	0000                	unimp
    1210:	e90c                	sd	a1,16(a0)
    1212:	0000                	unimp
    1214:	0c00                	addi	s0,sp,528
    1216:	00f9                	addi	ra,ra,30
    1218:	0000                	unimp
    121a:	090c                	addi	a1,sp,144
    121c:	0001                	nop
    121e:	0c00                	addi	s0,sp,528
    1220:	0119                	addi	sp,sp,6
    1222:	0000                	unimp
    1224:	290c                	fld	fa1,16(a0)
    1226:	0001                	nop
    1228:	0c00                	addi	s0,sp,528
    122a:	0142                	slli	sp,sp,0x10
    122c:	0000                	unimp
    122e:	520c                	lw	a1,32(a2)
    1230:	0001                	nop
    1232:	0c00                	addi	s0,sp,528
    1234:	0162                	slli	sp,sp,0x18
    1236:	0000                	unimp
    1238:	070d                	addi	a4,a4,3
    123a:	90000003          	lb	zero,-1792(zero) # fffffffffffff900 <_ZL7out_buf+0xffffffff7fdf57b0>
    123e:	0805                	addi	a6,a6,1
    1240:	a708                	fsd	fa0,8(a4)
    1242:	0002                	c.slli64	zero
    1244:	0e00                	addi	s0,sp,784
    1246:	0164                	addi	s1,sp,140
    1248:	0000                	unimp
    124a:	0a05                	addi	s4,s4,1
    124c:	a704                	fsd	fs1,8(a4)
    124e:	0002                	c.slli64	zero
    1250:	0000                	unimp
    1252:	f40e                	sd	gp,40(sp)
    1254:	0004                	0x4
    1256:	0500                	addi	s0,sp,640
    1258:	005a090b          	0x5a090b
    125c:	0000                	unimp
    125e:	0e80                	addi	s0,sp,848
    1260:	03e2                	slli	t2,t2,0x18
    1262:	0000                	unimp
    1264:	0b05                	addi	s6,s6,1
    1266:	5a0e                	lw	s4,224(sp)
    1268:	0000                	unimp
    126a:	8800                	0x8800
    126c:	0001230f          	0x1230f
    1270:	0500                	addi	s0,sp,640
    1272:	160c                	addi	a1,sp,800
    1274:	0000042b          	0x42b
    1278:	005a                	c.slli	zero,0x16
    127a:	0000                	unimp
    127c:	000001f7          	0x1f7
    1280:	0202                	c.slli64	tp
    1282:	0000                	unimp
    1284:	c310                	sw	a2,0(a4)
    1286:	0002                	c.slli64	zero
    1288:	1100                	addi	s0,sp,160
    128a:	005a                	c.slli	zero,0x16
    128c:	0000                	unimp
    128e:	1200                	addi	s0,sp,288
    1290:	7570                	ld	a2,232(a0)
    1292:	0074                	addi	a3,sp,12
    1294:	0d05                	addi	s10,s10,1
    1296:	0006a907          	flw	fs2,0(a3)
    129a:	1600                	addi	s0,sp,800
    129c:	0002                	c.slli64	zero
    129e:	2100                	fld	fs0,0(a0)
    12a0:	0002                	c.slli64	zero
    12a2:	1000                	addi	s0,sp,32
    12a4:	000002c3          	fmadd.s	ft5,ft0,ft0,ft0,rne
    12a8:	b711                	j	11ac <_start-0x801fee54>
    12aa:	0002                	c.slli64	zero
    12ac:	0000                	unimp
    12ae:	7012                	0x7012
    12b0:	0500706f          	j	8300 <_start-0x801f7d00>
    12b4:	0711                	addi	a4,a4,4
    12b6:	0642                	slli	a2,a2,0x10
    12b8:	0000                	unimp
    12ba:	0235                	addi	tp,tp,13
    12bc:	0000                	unimp
    12be:	0000023b          	addw	tp,zero,zero
    12c2:	c310                	sw	a2,0(a4)
    12c4:	0002                	c.slli64	zero
    12c6:	0000                	unimp
    12c8:	74656713          	ori	a4,a0,1862
    12cc:	0500                	addi	s0,sp,640
    12ce:	0414                	addi	a3,sp,512
    12d0:	0128                	addi	a0,sp,136
    12d2:	0000                	unimp
    12d4:	000002b7          	lui	t0,0x0
    12d8:	00000253          	fadd.s	ft4,ft0,ft0,rne
    12dc:	0259                	addi	tp,tp,22
    12de:	0000                	unimp
    12e0:	c310                	sw	a2,0(a4)
    12e2:	0002                	c.slli64	zero
    12e4:	0000                	unimp
    12e6:	0001960f          	0x1960f
    12ea:	0500                	addi	s0,sp,640
    12ec:	009b0717          	auipc	a4,0x9b0
    12f0:	0000                	unimp
    12f2:	02c9                	addi	t0,t0,18
    12f4:	0000                	unimp
    12f6:	0271                	addi	tp,tp,28
    12f8:	0000                	unimp
    12fa:	00000277          	0x277
    12fe:	c310                	sw	a2,0(a4)
    1300:	0002                	c.slli64	zero
    1302:	0000                	unimp
    1304:	0003f90f          	0x3f90f
    1308:	0500                	addi	s0,sp,640
    130a:	081a                	slli	a6,a6,0x6
    130c:	05c5                	addi	a1,a1,17
    130e:	0000                	unimp
    1310:	02c9                	addi	t0,t0,18
    1312:	0000                	unimp
    1314:	0000028f          	0x28f
    1318:	0295                	addi	t0,t0,5
    131a:	0000                	unimp
    131c:	c310                	sw	a2,0(a4)
    131e:	0002                	c.slli64	zero
    1320:	0000                	unimp
    1322:	5414                	lw	a3,40(s0)
    1324:	b700                	fsd	fs0,40(a4)
    1326:	0002                	c.slli64	zero
    1328:	1500                	addi	s0,sp,672
    132a:	060c                	addi	a1,sp,768
    132c:	0000                	unimp
    132e:	002d                	c.nop	11
    1330:	0000                	unimp
    1332:	0080                	addi	s0,sp,64
    1334:	b716                	fsd	ft5,424(sp)
    1336:	0002                	c.slli64	zero
    1338:	b700                	fsd	fs0,40(a4)
    133a:	0002                	c.slli64	zero
    133c:	1700                	addi	s0,sp,928
    133e:	002d                	c.nop	11
    1340:	0000                	unimp
    1342:	0102007f          	radd16	zero,tp,a6
    1346:	8308                	0x8308
    1348:	0004                	0x4
    134a:	0400                	addi	s0,sp,512
    134c:	000002b7          	lui	t0,0x0
    1350:	0818                	addi	a4,sp,16
    1352:	000001ab          	0x1ab
    1356:	0102                	c.slli64	sp
    1358:	6b02                	ld	s6,0(sp)
    135a:	19000003          	lb	zero,400(zero) # 190 <_start-0x801ffe70>
    135e:	7562                	ld	a0,56(sp)
    1360:	0066                	c.slli	zero,0x19
    1362:	1e05                	addi	t3,t3,-31
    1364:	ab16                	fsd	ft5,400(sp)
    1366:	0001                	nop
    1368:	1800                	addi	s0,sp,48
    136a:	be08                	fsd	fa0,56(a2)
    136c:	0002                	c.slli64	zero
    136e:	1a00                	addi	s0,sp,304
    1370:	02ed                	addi	t0,t0,27
    1372:	0000                	unimp
    1374:	dc11                	beqz	s0,1290 <_start-0x801fed70>
    1376:	0002                	c.slli64	zero
    1378:	0000                	unimp
    137a:	0003791b          	0x3791b
    137e:	0500                	addi	s0,sp,640
    1380:	02f90f3b          	mulw	t5,s2,a5
    1384:	0000                	unimp
    1386:	0818                	addi	a4,sp,16
    1388:	02e2                	slli	t0,t0,0x18
    138a:	0000                	unimp
    138c:	ed1c                	sd	a5,24(a0)
    138e:	0002                	c.slli64	zero
    1390:	0100                	addi	s0,sp,128
    1392:	0806                	slli	a6,a6,0x1
    1394:	0309                	addi	t1,t1,2
    1396:	a008                	fsd	fa0,0(s0)
    1398:	8020                	0x8020
    139a:	0000                	unimp
    139c:	0000                	unimp
    139e:	b716                	fsd	ft5,424(sp)
    13a0:	0002                	c.slli64	zero
    13a2:	2200                	fld	fs0,0(a2)
    13a4:	1d000003          	lb	zero,464(zero) # 1d0 <_start-0x801ffe30>
    13a8:	002d                	c.nop	11
    13aa:	0000                	unimp
    13ac:	1e0003e7          	jalr	t2,480(zero) # 0 <_start-0x80200000>
    13b0:	0751                	addi	a4,a4,20
    13b2:	0000                	unimp
    13b4:	6d01                	0x6d01
    13b6:	110d                	addi	sp,sp,-29
    13b8:	09000003          	lb	zero,144(zero) # 90 <_start-0x801fff70>
    13bc:	20a15003          	lhu	zero,522(sp)
    13c0:	0080                	addi	s0,sp,64
    13c2:	0000                	unimp
    13c4:	1f00                	addi	s0,sp,944
    13c6:	0615                	addi	a2,a2,5
    13c8:	0000                	unimp
    13ca:	8c01                	sub	s0,s0,s0
    13cc:	2c06                	fld	fs8,64(sp)
    13ce:	2008                	fld	fa0,0(s0)
    13d0:	0080                	addi	s0,sp,64
    13d2:	0000                	unimp
    13d4:	0800                	addi	s0,sp,16
    13d6:	0000                	unimp
    13d8:	0000                	unimp
    13da:	0000                	unimp
    13dc:	0100                	addi	s0,sp,128
    13de:	209c                	fld	fa5,0(s1)
    13e0:	072e                	slli	a4,a4,0xb
    13e2:	0000                	unimp
    13e4:	8501                	c.srai64	a0
    13e6:	f806                	sd	ra,48(sp)
    13e8:	00802007          	flw	ft0,8(zero) # 8 <_start-0x801ffff8>
    13ec:	0000                	unimp
    13ee:	3400                	fld	fs0,40(s0)
    13f0:	0000                	unimp
    13f2:	0000                	unimp
    13f4:	0000                	unimp
    13f6:	0100                	addi	s0,sp,128
    13f8:	d19c                	sw	a5,32(a1)
    13fa:	21000003          	lb	zero,528(zero) # 210 <_start-0x801ffdf0>
    13fe:	85010073          	0x85010073
    1402:	d112                	sw	tp,160(sp)
    1404:	28000003          	lb	zero,640(zero) # 280 <_start-0x801ffd80>
    1408:	22000003          	lb	zero,544(zero) # 220 <_start-0x801ffde0>
    140c:	0814                	addi	a3,sp,16
    140e:	8020                	0x8020
    1410:	0000                	unimp
    1412:	0000                	unimp
    1414:	000003d7          	0x3d7
    1418:	039d                	addi	t2,t2,7
    141a:	0000                	unimp
    141c:	095a0123          	sb	s5,130(s4) # ffffffffffff1082 <_ZL7out_buf+0xffffffff7fde6f32>
    1420:	20093803          	ld	a6,512(s2) # 2200 <_start-0x801fde00>
    1424:	0080                	addi	s0,sp,64
    1426:	0000                	unimp
    1428:	0000                	unimp
    142a:	1c22                	slli	s8,s8,0x28
    142c:	2008                	fld	fa0,0(s0)
    142e:	0080                	addi	s0,sp,64
    1430:	0000                	unimp
    1432:	d700                	sw	s0,40(a4)
    1434:	b5000003          	lb	zero,-1200(zero) # fffffffffffffb50 <_ZL7out_buf+0xffffffff7fdf5a00>
    1438:	23000003          	lb	zero,560(zero) # 230 <_start-0x801ffdd0>
    143c:	5a01                	li	s4,-32
    143e:	7802                	ld	a6,32(sp)
    1440:	0000                	unimp
    1442:	2824                	fld	fs1,80(s0)
    1444:	2008                	fld	fa0,0(s0)
    1446:	0080                	addi	s0,sp,64
    1448:	0000                	unimp
    144a:	d700                	sw	s0,40(a4)
    144c:	23000003          	lb	zero,560(zero) # 230 <_start-0x801ffdd0>
    1450:	5a01                	li	s4,-32
    1452:	0309                	addi	t1,t1,2
    1454:	0940                	addi	s0,sp,148
    1456:	8020                	0x8020
    1458:	0000                	unimp
    145a:	0000                	unimp
    145c:	0000                	unimp
    145e:	0818                	addi	a4,sp,16
    1460:	000002b7          	lui	t0,0x0
    1464:	4225                	li	tp,9
    1466:	01000007          	0x1000007
    146a:	0042057b          	0x42057b
    146e:	0000                	unimp
    1470:	073c                	addi	a5,sp,904
    1472:	8020                	0x8020
    1474:	0000                	unimp
    1476:	0000                	unimp
    1478:	00bc                	addi	a5,sp,72
    147a:	0000                	unimp
    147c:	0000                	unimp
    147e:	0000                	unimp
    1480:	9c01                	subw	s0,s0,s0
    1482:	04e4                	addi	s1,sp,588
    1484:	0000                	unimp
    1486:	7321                	lui	t1,0xfffe8
    1488:	0100                	addi	s0,sp,128
    148a:	02dc187b          	0x2dc187b
    148e:	0000                	unimp
    1490:	035e                	slli	t1,t1,0x17
    1492:	0000                	unimp
    1494:	2726                	fld	fa4,72(sp)
    1496:	6572                	ld	a0,280(sp)
    1498:	7d010073          	0x7d010073
    149c:	4206                	lw	tp,64(sp)
    149e:	0000                	unimp
    14a0:	aa00                	fsd	fs0,16(a2)
    14a2:	28000003          	lb	zero,640(zero) # 280 <_start-0x801ffd80>
    14a6:	6c76                	ld	s8,344(sp)
    14a8:	0100                	addi	s0,sp,128
    14aa:	0a7e                	slli	s4,s4,0x1f
    14ac:	0000008b          	0x8b
    14b0:	7f989103          	lh	sp,2041(a7)
    14b4:	e429                	bnez	s0,14fe <_start-0x801feb02>
    14b6:	0004                	0x4
    14b8:	5800                	lw	s0,48(s0)
    14ba:	00802007          	flw	ft0,8(zero) # 8 <_start-0x801ffff8>
    14be:	0000                	unimp
    14c0:	a000                	fsd	fs0,0(s0)
    14c2:	01000003          	lb	zero,16(zero) # 10 <_start-0x801ffff0>
    14c6:	1080                	addi	s0,sp,96
    14c8:	ff2a                	sd	a0,440(sp)
    14ca:	0004                	0x4
    14cc:	e100                	sd	s0,0(a0)
    14ce:	2a000003          	lb	zero,672(zero) # 2a0 <_start-0x801ffd60>
    14d2:	04f5                	addi	s1,s1,29
    14d4:	0000                	unimp
    14d6:	00000417          	auipc	s0,0x0
    14da:	0003a02b          	0x3a02b
    14de:	2c00                	fld	fs0,24(s0)
    14e0:	050a                	slli	a0,a0,0x2
    14e2:	0000                	unimp
    14e4:	043a                	slli	s0,s0,0xe
    14e6:	0000                	unimp
    14e8:	8c22                	mv	s8,s0
    14ea:	00802007          	flw	ft0,8(zero) # 8 <_start-0x801ffff8>
    14ee:	0000                	unimp
    14f0:	1700                	addi	s0,sp,928
    14f2:	0005                	c.nop	1
    14f4:	8400                	0x8400
    14f6:	0004                	0x4
    14f8:	2300                	fld	fs0,0(a4)
    14fa:	5a01                	li	s4,-32
    14fc:	3001                	0x3001
    14fe:	025b0123          	sb	t0,34(s6) # 1022 <_start-0x801fefde>
    1502:	ff09                	bnez	a4,141c <_start-0x801febe4>
    1504:	025c0123          	sb	t0,34(s8)
    1508:	0079                	c.nop	30
    150a:	025d0123          	sb	t0,34(s10) # 3110 <_start-0x801fcef0>
    150e:	0082                	c.slli64	ra
    1510:	2d00                	fld	fs0,24(a0)
    1512:	07ac                	addi	a1,sp,968
    1514:	8020                	0x8020
    1516:	0000                	unimp
    1518:	0000                	unimp
    151a:	049f 0000 0123      	0x1230000049f
    1520:	095a                	slli	s2,s2,0x16
    1522:	20091003          	lh	zero,512(s2)
    1526:	0080                	addi	s0,sp,64
    1528:	0000                	unimp
    152a:	0000                	unimp
    152c:	c822                	sw	s0,16(sp)
    152e:	00802007          	flw	ft0,8(zero) # 8 <_start-0x801ffff8>
    1532:	0000                	unimp
    1534:	1700                	addi	s0,sp,928
    1536:	0005                	c.nop	1
    1538:	ca00                	sw	s0,16(a2)
    153a:	0004                	0x4
    153c:	2300                	fld	fs0,0(a4)
    153e:	5a01                	li	s4,-32
    1540:	0309                	addi	t1,t1,2
    1542:	a150                	fsd	fa2,128(a0)
    1544:	8020                	0x8020
    1546:	0000                	unimp
    1548:	0000                	unimp
    154a:	025c0123          	sb	t0,34(s8)
    154e:	0079                	c.nop	30
    1550:	025d0123          	sb	t0,34(s10)
    1554:	0082                	c.slli64	ra
    1556:	2e00                	fld	fs0,24(a2)
    1558:	07dc                	addi	a5,sp,964
    155a:	8020                	0x8020
    155c:	0000                	unimp
    155e:	0000                	unimp
    1560:	095a0123          	sb	s5,130(s4)
    1564:	20a15003          	lhu	zero,522(sp)
    1568:	0080                	addi	s0,sp,64
    156a:	0000                	unimp
    156c:	0000                	unimp
    156e:	0000                	unimp
    1570:	2f00                	fld	fs0,24(a4)
    1572:	077a                	slli	a4,a4,0x1e
    1574:	0000                	unimp
    1576:	6f01                	0x6f01
    1578:	420c                	lw	a1,0(a2)
    157a:	0000                	unimp
    157c:	0100                	addi	s0,sp,128
    157e:	00000517          	auipc	a0,0x0
    1582:	7330                	ld	a2,96(a4)
    1584:	0100                	addi	s0,sp,128
    1586:	02dc216f          	jal	sp,c3db2 <_start-0x8013c24e>
    158a:	0000                	unimp
    158c:	7630                	ld	a2,104(a2)
    158e:	006c                	addi	a1,sp,12
    1590:	6f01                	0x6f01
    1592:	8b2c                	0x8b2c
    1594:	0000                	unimp
    1596:	1900                	addi	s0,sp,176
    1598:	6572                	ld	a0,280(sp)
    159a:	71010073          	0x71010073
    159e:	4206                	lw	tp,64(sp)
    15a0:	0000                	unimp
    15a2:	0000                	unimp
    15a4:	3e31                	addiw	t3,t3,-20
    15a6:	01000007          	0x1000007
    15aa:	0c08                	addi	a0,sp,528
    15ac:	0042                	c.slli	zero,0x10
    15ae:	0000                	unimp
    15b0:	0454                	addi	a3,sp,516
    15b2:	8020                	0x8020
    15b4:	0000                	unimp
    15b6:	0000                	unimp
    15b8:	02e8                	addi	a0,sp,332
    15ba:	0000                	unimp
    15bc:	0000                	unimp
    15be:	0000                	unimp
    15c0:	9c01                	subw	s0,s0,s0
    15c2:	6f21                	lui	t5,0x8
    15c4:	7475                	lui	s0,0xffffd
    15c6:	0100                	addi	s0,sp,128
    15c8:	1e08                	addi	a0,sp,816
    15ca:	03d1                	addi	t2,t2,20
    15cc:	0000                	unimp
    15ce:	0470                	addi	a2,sp,524
    15d0:	0000                	unimp
    15d2:	6e32                	ld	t3,264(sp)
    15d4:	0100                	addi	s0,sp,128
    15d6:	2a08                	fld	fa0,16(a2)
    15d8:	005a                	c.slli	zero,0x16
    15da:	0000                	unimp
    15dc:	5b01                	li	s6,-32
    15de:	7321                	lui	t1,0xfffe8
    15e0:	0100                	addi	s0,sp,128
    15e2:	3908                	fld	fa0,48(a0)
    15e4:	02dc                	addi	a5,sp,324
    15e6:	0000                	unimp
    15e8:	04cc                	addi	a1,sp,580
    15ea:	0000                	unimp
    15ec:	7621                	lui	a2,0xfffe8
    15ee:	006c                	addi	a1,sp,12
    15f0:	0801                	addi	a6,a6,0
    15f2:	8b44                	0x8b44
    15f4:	0000                	unimp
    15f6:	0200                	addi	s0,sp,256
    15f8:	0005                	c.nop	1
    15fa:	3300                	fld	fs0,32(a4)
    15fc:	00000783          	lb	a5,0(zero) # 0 <_start-0x80200000>
    1600:	0a01                	addi	s4,s4,0
    1602:	4206                	lw	tp,64(sp)
    1604:	0000                	unimp
    1606:	3700                	fld	fs0,40(a4)
    1608:	0006                	c.slli	zero,0x1
    160a:	3300                	fld	fs0,32(a4)
    160c:	0749                	addi	a4,a4,18
    160e:	0000                	unimp
    1610:	0b01                	addi	s6,s6,0
    1612:	4206                	lw	tp,64(sp)
    1614:	0000                	unimp
    1616:	6a00                	ld	s0,16(a2)
    1618:	27000007          	0x27000007
    161c:	6f70                	ld	a2,216(a4)
    161e:	0c010073          	0xc010073
    1622:	5a09                	li	s4,-30
    1624:	0000                	unimp
    1626:	6300                	ld	s0,0(a4)
    1628:	0008                	0x8
    162a:	3400                	fld	fs0,40(s0)
    162c:	02e0                	addi	s0,sp,332
    162e:	0000                	unimp
    1630:	05e4                	addi	s1,sp,716
    1632:	0000                	unimp
    1634:	6d756e27          	0x6d756e27
    1638:	0100                	addi	s0,sp,128
    163a:	0a20                	addi	s0,sp,280
    163c:	004e                	c.slli	zero,0x13
    163e:	0000                	unimp
    1640:	09ba                	slli	s3,s3,0xe
    1642:	0000                	unimp
    1644:	3435                	addiw	s0,s0,-19
    1646:	01000007          	0x1000007
    164a:	0921                	addi	s2,s2,8
    164c:	0042                	c.slli	zero,0x10
    164e:	0000                	unimp
    1650:	0003402b          	0x3402b
    1654:	1900                	addi	s0,sp,176
    1656:	0069                	c.nop	26
    1658:	2201                	sext.w	tp,tp
    165a:	420d                	li	tp,3
    165c:	0000                	unimp
    165e:	2b00                	fld	fs0,16(a4)
    1660:	0370                	addi	a2,sp,396
    1662:	0000                	unimp
    1664:	6419                	lui	s0,0x6
    1666:	0100                	addi	s0,sp,128
    1668:	00420a23          	sb	tp,20(tp) # fffffffffffe1014 <_ZL7out_buf+0xffffffff7fdd6ec4>
    166c:	0000                	unimp
    166e:	0000                	unimp
    1670:	3400                	fld	fs0,40(s0)
    1672:	0220                	addi	s0,sp,264
    1674:	0000                	unimp
    1676:	0000063b          	addw	a2,zero,zero
    167a:	6d756e27          	0x6d756e27
    167e:	0100                	addi	s0,sp,128
    1680:	0a2e                	slli	s4,s4,0xb
    1682:	004e                	c.slli	zero,0x13
    1684:	0000                	unimp
    1686:	09dd                	addi	s3,s3,23
    1688:	0000                	unimp
    168a:	00073733          	sltu	a4,a4,zero
    168e:	0100                	addi	s0,sp,128
    1690:	0a36                	slli	s4,s4,0xd
    1692:	004e                	c.slli	zero,0x13
    1694:	0000                	unimp
    1696:	0a26                	slli	s4,s4,0x9
    1698:	0000                	unimp
    169a:	7034                	ld	a3,96(s0)
    169c:	0002                	c.slli64	zero
    169e:	2600                	fld	fs0,8(a2)
    16a0:	0006                	c.slli	zero,0x1
    16a2:	2700                	fld	fs0,8(a4)
    16a4:	6e6e                	ld	t3,216(sp)
    16a6:	0100                	addi	s0,sp,128
    16a8:	004e0f37          	lui	t5,0x4e0
    16ac:	0000                	unimp
    16ae:	0a71                	addi	s4,s4,28
    16b0:	0000                	unimp
    16b2:	2b00                	fld	fs0,16(a4)
    16b4:	02b0                	addi	a2,sp,328
    16b6:	0000                	unimp
    16b8:	01006927          	0x1006927
    16bc:	0e38                	addi	a4,sp,792
    16be:	0042                	c.slli	zero,0x10
    16c0:	0000                	unimp
    16c2:	0ae5                	addi	s5,s5,25
    16c4:	0000                	unimp
    16c6:	0000                	unimp
    16c8:	2836                	fld	fa6,328(sp)
    16ca:	2006                	fld	ft0,64(sp)
    16cc:	0080                	addi	s0,sp,64
    16ce:	0000                	unimp
    16d0:	4800                	lw	s0,16(s0)
    16d2:	0000                	unimp
    16d4:	0000                	unimp
    16d6:	0000                	unimp
    16d8:	2700                	fld	fs0,8(a4)
    16da:	01003273          	csrrc	tp,0x10,zero
    16de:	1144                	addi	s1,sp,164
    16e0:	02dc                	addi	a5,sp,324
    16e2:	0000                	unimp
    16e4:	0b1d                	addi	s6,s6,7
    16e6:	0000                	unimp
    16e8:	0000                	unimp
	...

Disassembly of section .debug_abbrev:

0000000000000000 <.debug_abbrev>:
   0:	1101                	addi	sp,sp,-32
   2:	1000                	addi	s0,sp,32
   4:	1106                	slli	sp,sp,0x21
   6:	1201                	addi	tp,tp,-32
   8:	0301                	addi	t1,t1,0
   a:	1b0e                	slli	s6,s6,0x23
   c:	250e                	fld	fa0,192(sp)
   e:	130e                	slli	t1,t1,0x23
  10:	0005                	c.nop	1
  12:	0000                	unimp
  14:	1101                	addi	sp,sp,-32
  16:	2501                	sext.w	a0,a0
  18:	130e                	slli	t1,t1,0x23
  1a:	1b0e030b          	0x1b0e030b
  1e:	550e                	lw	a0,224(sp)
  20:	10011117          	auipc	sp,0x10011
  24:	02000017          	auipc	zero,0x2000
  28:	0016                	c.slli	zero,0x5
  2a:	0b3a0e03          	lb	t3,179(s4)
  2e:	0b390b3b          	0xb390b3b
  32:	1349                	addi	t1,t1,-14
  34:	0000                	unimp
  36:	0b000f03          	lb	t5,176(zero) # b0 <_start-0x801fff50>
  3a:	0400000b          	0x400000b
  3e:	0026                	c.slli	zero,0x9
  40:	1349                	addi	t1,t1,-14
  42:	0000                	unimp
  44:	3505                	addiw	a0,a0,-31
  46:	4900                	lw	s0,16(a0)
  48:	06000013          	li	zero,96
  4c:	0024                	addi	s1,sp,8
  4e:	0b3e0b0b          	0xb3e0b0b
  52:	00000e03          	lb	t3,0(zero) # 0 <_start-0x80200000>
  56:	0b000f07          	0xb000f07
  5a:	0013490b          	0x13490b
  5e:	0800                	addi	s0,sp,16
  60:	0015                	c.nop	5
  62:	0000                	unimp
  64:	1509                	addi	a0,a0,-30
  66:	4900                	lw	s0,16(a0)
  68:	0a000013          	li	zero,160
  6c:	0024                	addi	s1,sp,8
  6e:	0b3e0b0b          	0xb3e0b0b
  72:	00000803          	lb	a6,0(zero) # 0 <_start-0x80200000>
  76:	03003b0b          	0x3003b0b
  7a:	000e                	c.slli	zero,0x3
  7c:	0c00                	addi	s0,sp,528
  7e:	0139                	addi	sp,sp,14
  80:	0b3a0e03          	lb	t3,179(s4)
  84:	0b390b3b          	0xb390b3b
  88:	1301                	addi	t1,t1,-32
  8a:	0000                	unimp
  8c:	340d                	addiw	s0,s0,-29
  8e:	0300                	addi	s0,sp,384
  90:	3a08                	fld	fa0,48(a2)
  92:	390b3b0b          	0x390b3b0b
  96:	3c13490b          	0x3c13490b
  9a:	1c19                	addi	s8,s8,-26
  9c:	00196c0b          	0x196c0b
  a0:	0e00                	addi	s0,sp,784
  a2:	0034                	addi	a3,sp,8
  a4:	0b3a0e03          	lb	t3,179(s4)
  a8:	0b390b3b          	0xb390b3b
  ac:	1349                	addi	t1,t1,-14
  ae:	193c                	addi	a5,sp,184
  b0:	061c                	addi	a5,sp,768
  b2:	196c                	addi	a1,sp,188
  b4:	0000                	unimp
  b6:	0301040f          	0x301040f
  ba:	3e0e                	fld	ft8,224(sp)
  bc:	490b0b0b          	0x490b0b0b
  c0:	3b0b3a13          	sltiu	s4,s6,944
  c4:	010b390b          	0x10b390b
  c8:	10000013          	li	zero,256
  cc:	0028                	addi	a0,sp,8
  ce:	0b1c0803          	lb	a6,177(s8)
  d2:	0000                	unimp
  d4:	1311                	addi	t1,t1,-28
  d6:	0301                	addi	t1,t1,0
  d8:	0b08                	addi	a0,sp,400
  da:	3b0b3a0b          	0x3b0b3a0b
  de:	010b390b          	0x10b390b
  e2:	12000013          	li	zero,288
  e6:	000d                	c.nop	3
  e8:	0b3a0e03          	lb	t3,179(s4)
  ec:	0b390b3b          	0xb390b3b
  f0:	1349                	addi	t1,t1,-14
  f2:	0b0d0b0b          	0xb0d0b0b
  f6:	0b0c                	addi	a1,sp,400
  f8:	0b38                	addi	a4,sp,408
  fa:	0000                	unimp
  fc:	03013913          	sltiu	s2,sp,48
 100:	3a0e                	fld	fs4,224(sp)
 102:	390b3b0b          	0x390b3b0b
 106:	1400000b          	0x1400000b
 10a:	012e                	slli	sp,sp,0xb
 10c:	0e03193f 0b3b0b3a 	0xb3b0b3a0e03193f
 114:	0b39                	addi	s6,s6,14
 116:	0e6e                	slli	t3,t3,0x1b
 118:	193c                	addi	a5,sp,184
 11a:	0000                	unimp
 11c:	0515                	addi	a0,a0,5
 11e:	4900                	lw	s0,16(a0)
 120:	16000013          	li	zero,352
 124:	012e                	slli	sp,sp,0xb
 126:	0e03193f 0b3b0b3a 	0xb3b0b3a0e03193f
 12e:	0b39                	addi	s6,s6,14
 130:	0e6e                	slli	t3,t3,0x1b
 132:	1349                	addi	t1,t1,-14
 134:	193c                	addi	a5,sp,184
 136:	0000                	unimp
 138:	47003417          	auipc	s0,0x47003
 13c:	18000013          	li	zero,384
 140:	0e030113          	addi	sp,t1,224 # fffffffffffe80e0 <_ZL7out_buf+0xffffffff7fdddf90>
 144:	0b3a0b0b          	0xb3a0b0b
 148:	0b390b3b          	0xb390b3b
 14c:	1301                	addi	t1,t1,-32
 14e:	0000                	unimp
 150:	0d19                	addi	s10,s10,6
 152:	0300                	addi	s0,sp,384
 154:	3a0e                	fld	fs4,224(sp)
 156:	390b3b0b          	0x390b3b0b
 15a:	3813490b          	0x3813490b
 15e:	1a00000b          	0x1a00000b
 162:	012e                	slli	sp,sp,0xb
 164:	0e03193f 0b3b0b3a 	0xb3b0b3a0e03193f
 16c:	0b39                	addi	s6,s6,14
 16e:	0e6e                	slli	t3,t3,0x1b
 170:	1349                	addi	t1,t1,-14
 172:	193c                	addi	a5,sp,184
 174:	1364                	addi	s1,sp,428
 176:	1301                	addi	t1,t1,-32
 178:	0000                	unimp
 17a:	4900051b          	addiw	a0,zero,1168
 17e:	00193413          	seqz	s0,s2
 182:	1c00                	addi	s0,sp,560
 184:	012e                	slli	sp,sp,0xb
 186:	0803193f 0b3b0b3a 	0xb3b0b3a0803193f
 18e:	0b39                	addi	s6,s6,14
 190:	0e6e                	slli	t3,t3,0x1b
 192:	193c                	addi	a5,sp,184
 194:	1364                	addi	s1,sp,428
 196:	1301                	addi	t1,t1,-32
 198:	0000                	unimp
 19a:	2e1d                	addiw	t3,t3,7
 19c:	3f01                	addiw	t5,t5,-32
 19e:	0319                	addi	t1,t1,6
 1a0:	3a08                	fld	fa0,48(a2)
 1a2:	390b3b0b          	0x390b3b0b
 1a6:	490e6e0b          	0x490e6e0b
 1aa:	64193c13          	sltiu	s8,s2,1601
 1ae:	00130113          	addi	sp,t1,1
 1b2:	1e00                	addi	s0,sp,816
 1b4:	0803002f          	0x803002f
 1b8:	1349                	addi	t1,t1,-14
 1ba:	0000                	unimp
 1bc:	301f 0300 490e      	0x490e0300301f
 1c2:	1c191e13          	0x1c191e13
 1c6:	2000000b          	0x2000000b
 1ca:	0101                	addi	sp,sp,0
 1cc:	1349                	addi	t1,t1,-14
 1ce:	1301                	addi	t1,t1,-32
 1d0:	0000                	unimp
 1d2:	2121                	addiw	sp,sp,8
 1d4:	4900                	lw	s0,16(a0)
 1d6:	000b2f13          	slti	t5,s6,0
 1da:	2200                	fld	fs0,0(a2)
 1dc:	0034                	addi	a3,sp,8
 1de:	0b3a0803          	lb	a6,179(s4)
 1e2:	0b390b3b          	0xb390b3b
 1e6:	1349                	addi	t1,t1,-14
 1e8:	0000                	unimp
 1ea:	03010223          	sb	a6,36(sp) # 10011044 <_start-0x701eefbc>
 1ee:	0b08                	addi	a0,sp,400
 1f0:	3b0b3a0b          	0x3b0b3a0b
 1f4:	010b390b          	0x10b390b
 1f8:	24000013          	li	zero,576
 1fc:	012e                	slli	sp,sp,0xb
 1fe:	0e03193f 0b3b0b3a 	0xb3b0b3a0e03193f
 206:	0b39                	addi	s6,s6,14
 208:	0e6e                	slli	t3,t3,0x1b
 20a:	0b32                	slli	s6,s6,0xc
 20c:	193c                	addi	a5,sp,184
 20e:	1301                	addi	t1,t1,-32
 210:	0000                	unimp
 212:	2e25                	addiw	t3,t3,9
 214:	3f00                	fld	fs0,56(a4)
 216:	0319                	addi	t1,t1,6
 218:	3a0e                	fld	fs4,224(sp)
 21a:	390b3b0b          	0x390b3b0b
 21e:	490e6e0b          	0x490e6e0b
 222:	3c0b3213          	sltiu	tp,s6,960
 226:	0019                	c.nop	6
 228:	2600                	fld	fs0,8(a2)
 22a:	0115                	addi	sp,sp,5
 22c:	1301                	addi	t1,t1,-32
 22e:	0000                	unimp
 230:	03003427          	fsd	fa6,40(zero) # 28 <_start-0x801fffd8>
 234:	3a0e                	fld	fs4,224(sp)
 236:	390b3b0b          	0x390b3b0b
 23a:	3f13490b          	0x3f13490b
 23e:	3c19                	addiw	s8,s8,-26
 240:	0019                	c.nop	6
 242:	2800                	fld	fs0,16(s0)
 244:	0139                	addi	sp,sp,14
 246:	0b3a0803          	lb	a6,179(s4)
 24a:	0b390b3b          	0xb390b3b
 24e:	1301                	addi	t1,t1,-32
 250:	0000                	unimp
 252:	0429                	addi	s0,s0,10
 254:	0301                	addi	t1,t1,0
 256:	3e0e                	fld	ft8,224(sp)
 258:	490b0b0b          	0x490b0b0b
 25c:	3b0b3a13          	sltiu	s4,s6,944
 260:	000b390b          	0xb390b
 264:	2a00                	fld	fs0,16(a2)
 266:	0028                	addi	a0,sp,8
 268:	0b1c0e03          	lb	t3,177(s8)
 26c:	0000                	unimp
 26e:	0300392b          	0x300392b
 272:	3a08                	fld	fa0,48(a2)
 274:	390b3b0b          	0x390b3b0b
 278:	2c00000b          	0x2c00000b
 27c:	0e030113          	addi	sp,t1,224
 280:	0b3a0b0b          	0xb3a0b0b
 284:	0b390b3b          	0xb390b3b
 288:	0000                	unimp
 28a:	0d2d                	addi	s10,s10,11
 28c:	0300                	addi	s0,sp,384
 28e:	3a08                	fld	fa0,48(a2)
 290:	390b3b0b          	0x390b3b0b
 294:	0b13490b          	0xb13490b
 298:	0c0b0d0b          	0xc0b0d0b
 29c:	000b380b          	0xb380b
 2a0:	2e00                	fld	fs0,24(a2)
 2a2:	012e                	slli	sp,sp,0xb
 2a4:	0e03193f 0b3b0b3a 	0xb3b0b3a0e03193f
 2ac:	0b39                	addi	s6,s6,14
 2ae:	0e6e                	slli	t3,t3,0x1b
 2b0:	1349                	addi	t1,t1,-14
 2b2:	193c                	addi	a5,sp,184
 2b4:	1364                	addi	s1,sp,428
 2b6:	0000                	unimp
 2b8:	3f002e2f          	0x3f002e2f
 2bc:	0319                	addi	t1,t1,6
 2be:	3a0e                	fld	fs4,224(sp)
 2c0:	390b3b0b          	0x390b3b0b
 2c4:	490e6e0b          	0x490e6e0b
 2c8:	00193c13          	seqz	s8,s2
 2cc:	3000                	fld	fs0,32(s0)
 2ce:	000d                	c.nop	3
 2d0:	0b3a0803          	lb	a6,179(s4)
 2d4:	0b390b3b          	0xb390b3b
 2d8:	1349                	addi	t1,t1,-14
 2da:	0b38                	addi	a4,sp,408
 2dc:	0000                	unimp
 2de:	2e31                	addiw	t3,t3,12
 2e0:	3f01                	addiw	t5,t5,-32
 2e2:	0319                	addi	t1,t1,6
 2e4:	3a08                	fld	fa0,48(a2)
 2e6:	390b3b0b          	0x390b3b0b
 2ea:	490e6e0b          	0x490e6e0b
 2ee:	64193c13          	sltiu	s8,s2,1601
 2f2:	32000013          	li	zero,800
 2f6:	0010                	0x10
 2f8:	13490b0b          	0x13490b0b
 2fc:	0000                	unimp
 2fe:	03003433          	mulhu	s0,zero,a6
 302:	3a0e                	fld	fs4,224(sp)
 304:	390b3b0b          	0x390b3b0b
 308:	3c13490b          	0x3c13490b
 30c:	1c19                	addi	s8,s8,-26
 30e:	6c05                	lui	s8,0x1
 310:	0019                	c.nop	6
 312:	3400                	fld	fs0,40(s0)
 314:	0034                	addi	a3,sp,8
 316:	0b3a0803          	lb	a6,179(s4)
 31a:	0b390b3b          	0xb390b3b
 31e:	1349                	addi	t1,t1,-14
 320:	1802                	slli	a6,a6,0x20
 322:	0000                	unimp
 324:	3435                	addiw	s0,s0,-19
 326:	0300                	addi	s0,sp,384
 328:	3a0e                	fld	fs4,224(sp)
 32a:	390b3b0b          	0x390b3b0b
 32e:	0213490b          	0x213490b
 332:	0018                	0x18
 334:	3600                	fld	fs0,40(a2)
 336:	0021                	c.nop	8
 338:	1349                	addi	t1,t1,-14
 33a:	0000052f          	0x52f
 33e:	03003437          	lui	s0,0x3003
 342:	3a0e                	fld	fs4,224(sp)
 344:	390b3b0b          	0x390b3b0b
 348:	3f13490b          	0x3f13490b
 34c:	0219                	addi	tp,tp,6
 34e:	0018                	0x18
 350:	3800                	fld	fs0,48(s0)
 352:	0008                	0x8
 354:	0b3a                	slli	s6,s6,0xe
 356:	0b390b3b          	0xb390b3b
 35a:	1318                	addi	a4,sp,416
 35c:	0000                	unimp
 35e:	3439                	addiw	s0,s0,-18
 360:	0300                	addi	s0,sp,384
 362:	3a0e                	fld	fs4,224(sp)
 364:	390b3b0b          	0x390b3b0b
 368:	6c13490b          	0x6c13490b
 36c:	0219                	addi	tp,tp,6
 36e:	0018                	0x18
 370:	3a00                	fld	fs0,48(a2)
 372:	012e                	slli	sp,sp,0xb
 374:	0e03193f 0b3b0b3a 	0xb3b0b3a0e03193f
 37c:	0b39                	addi	s6,s6,14
 37e:	0e6e                	slli	t3,t3,0x1b
 380:	1349                	addi	t1,t1,-14
 382:	0b20                	addi	s0,sp,408
 384:	1301                	addi	t1,t1,-32
 386:	0000                	unimp
 388:	0300053b          	mulw	a0,zero,a6
 38c:	3a0e                	fld	fs4,224(sp)
 38e:	390b3b0b          	0x390b3b0b
 392:	0013490b          	0x13490b
 396:	3c00                	fld	fs0,56(s0)
 398:	012e                	slli	sp,sp,0xb
 39a:	0e03193f 0b3b0b3a 	0xb3b0b3a0e03193f
 3a2:	0b39                	addi	s6,s6,14
 3a4:	0111                	addi	sp,sp,4
 3a6:	0712                	slli	a4,a4,0x4
 3a8:	1840                	addi	s0,sp,52
 3aa:	01194297          	auipc	t0,0x1194
 3ae:	3d000013          	li	zero,976
 3b2:	0111010b          	0x111010b
 3b6:	0712                	slli	a4,a4,0x4
 3b8:	1301                	addi	t1,t1,-32
 3ba:	0000                	unimp
 3bc:	343e                	fld	fs0,488(sp)
 3be:	0300                	addi	s0,sp,384
 3c0:	3a08                	fld	fa0,48(a2)
 3c2:	390b3b0b          	0x390b3b0b
 3c6:	0213490b          	0x213490b
 3ca:	3f000017          	auipc	zero,0x3f000
 3ce:	8289                	srli	a3,a3,0x2
 3d0:	0101                	addi	sp,sp,0
 3d2:	0111                	addi	sp,sp,4
 3d4:	1331                	addi	t1,t1,-20
 3d6:	0000                	unimp
 3d8:	8a40                	0x8a40
 3da:	0182                	c.slli64	gp
 3dc:	0200                	addi	s0,sp,256
 3de:	9118                	0x9118
 3e0:	1842                	slli	a6,a6,0x30
 3e2:	0000                	unimp
 3e4:	1d41                	addi	s10,s10,-16
 3e6:	3101                	addiw	sp,sp,-32
 3e8:	55015213          	0x55015213
 3ec:	590b5817          	auipc	a6,0x590b5
 3f0:	010b570b          	0x10b570b
 3f4:	42000013          	li	zero,1056
 3f8:	1755010b          	0x1755010b
 3fc:	0000                	unimp
 3fe:	31003443          	fmadd.s	fs0,ft0,fa6,ft6,rup
 402:	44000013          	li	zero,1088
 406:	011d                	addi	sp,sp,7
 408:	1331                	addi	t1,t1,-20
 40a:	0111                	addi	sp,sp,4
 40c:	0712                	slli	a4,a4,0x4
 40e:	0b58                	addi	a4,sp,404
 410:	0b59                	addi	s6,s6,22
 412:	00000b57          	0xb57
 416:	0545                	addi	a0,a0,17
 418:	3100                	fld	fs0,32(a0)
 41a:	46000013          	li	zero,1120
 41e:	0034                	addi	a3,sp,8
 420:	1331                	addi	t1,t1,-20
 422:	1702                	slli	a4,a4,0x20
 424:	0000                	unimp
 426:	31011d47          	fmsub.s	fs10,ft2,fa6,ft6,rtz
 42a:	12011113          	0x12011113
 42e:	590b5807          	0x590b5807
 432:	010b570b          	0x10b570b
 436:	48000013          	li	zero,1152
 43a:	0005                	c.nop	1
 43c:	1331                	addi	t1,t1,-20
 43e:	1702                	slli	a4,a4,0x20
 440:	0000                	unimp
 442:	3449                	addiw	s0,s0,-14
 444:	3100                	fld	fs0,32(a0)
 446:	00180213          	addi	tp,a6,1 # 590b53ed <_start-0x2714ac13>
 44a:	4a00                	lw	s0,16(a2)
 44c:	8289                	srli	a3,a3,0x2
 44e:	0001                	nop
 450:	0111                	addi	sp,sp,4
 452:	4295                	li	t0,5
 454:	3119                	addiw	sp,sp,-26
 456:	4b000013          	li	zero,1200
 45a:	012e                	slli	sp,sp,0xb
 45c:	0b3a0e03          	lb	t3,179(s4)
 460:	0b390b3b          	0xb390b3b
 464:	0b20                	addi	s0,sp,408
 466:	1301                	addi	t1,t1,-32
 468:	0000                	unimp
 46a:	344c                	fld	fa1,168(s0)
 46c:	0300                	addi	s0,sp,384
 46e:	3a0e                	fld	fs4,224(sp)
 470:	390b3b0b          	0x390b3b0b
 474:	0013490b          	0x13490b
 478:	4d00                	lw	s0,24(a0)
 47a:	8289                	srli	a3,a3,0x2
 47c:	0001                	nop
 47e:	0111                	addi	sp,sp,4
 480:	1331                	addi	t1,t1,-20
 482:	0000                	unimp
 484:	344e                	fld	fs0,240(sp)
 486:	0300                	addi	s0,sp,384
 488:	3a0e                	fld	fs4,224(sp)
 48a:	390b3b0b          	0x390b3b0b
 48e:	0213490b          	0x213490b
 492:	4f000017          	auipc	zero,0x4f000
 496:	1755010b          	0x1755010b
 49a:	1301                	addi	t1,t1,-32
 49c:	0000                	unimp
 49e:	3a50                	fld	fa2,176(a2)
 4a0:	3a00                	fld	fs0,48(a2)
 4a2:	390b3b0b          	0x390b3b0b
 4a6:	0013180b          	0x13180b
 4aa:	5100                	lw	s0,32(a0)
 4ac:	8289                	srli	a3,a3,0x2
 4ae:	0101                	addi	sp,sp,0
 4b0:	0111                	addi	sp,sp,4
 4b2:	1331                	addi	t1,t1,-20
 4b4:	1301                	addi	t1,t1,-32
 4b6:	0000                	unimp
 4b8:	2e52                	fld	ft8,272(sp)
 4ba:	3f01                	addiw	t5,t5,-32
 4bc:	0319                	addi	t1,t1,6
 4be:	3a0e                	fld	fs4,224(sp)
 4c0:	390b3b0b          	0x390b3b0b
 4c4:	110e6e0b          	0x110e6e0b
 4c8:	1201                	addi	tp,tp,-32
 4ca:	97184007          	flq	ft0,-1679(a6)
 4ce:	1942                	slli	s2,s2,0x30
 4d0:	1301                	addi	t1,t1,-32
 4d2:	0000                	unimp
 4d4:	01828953          	fadd.s	fs2,ft5,fs8,rne
 4d8:	1100                	addi	s0,sp,160
 4da:	9301                	srli	a4,a4,0x20
 4dc:	1842                	slli	a6,a6,0x30
 4de:	0000                	unimp
 4e0:	2e54                	fld	fa3,152(a2)
 4e2:	3f00                	fld	fs0,56(a4)
 4e4:	0319                	addi	t1,t1,6
 4e6:	3a0e                	fld	fs4,224(sp)
 4e8:	390b3b0b          	0x390b3b0b
 4ec:	490e6e0b          	0x490e6e0b
 4f0:	12011113          	0x12011113
 4f4:	97184007          	flq	ft0,-1679(a6)
 4f8:	1942                	slli	s2,s2,0x30
 4fa:	0000                	unimp
 4fc:	2e55                	addiw	t3,t3,21
 4fe:	3f01                	addiw	t5,t5,-32
 500:	0319                	addi	t1,t1,6
 502:	3a0e                	fld	fs4,224(sp)
 504:	390b3b0b          	0x390b3b0b
 508:	110e6e0b          	0x110e6e0b
 50c:	1201                	addi	tp,tp,-32
 50e:	96184007          	flq	ft0,-1695(a6)
 512:	1942                	slli	s2,s2,0x30
 514:	1301                	addi	t1,t1,-32
 516:	0000                	unimp
 518:	3456                	fld	fs0,368(sp)
 51a:	0300                	addi	s0,sp,384
 51c:	490e                	lw	s2,192(sp)
 51e:	02193413          	sltiu	s0,s2,33
 522:	0018                	0x18
 524:	5700                	lw	s0,40(a4)
 526:	0034                	addi	a3,sp,8
 528:	13490e03          	lb	t3,308(s2)
 52c:	1934                	addi	a3,sp,184
 52e:	1702                	slli	a4,a4,0x20
 530:	0000                	unimp
 532:	1d58                	addi	a4,sp,692
 534:	3101                	addiw	sp,sp,-32
 536:	55015213          	0x55015213
 53a:	590b5817          	auipc	a6,0x590b5
 53e:	000b570b          	0xb570b
 542:	5900                	lw	s0,48(a0)
 544:	002e                	c.slli	zero,0xb
 546:	0b201347          	fmsub.d	ft6,ft0,fs2,ft1,rtz
 54a:	0000                	unimp
 54c:	2e5a                	fld	ft8,400(sp)
 54e:	4701                	li	a4,0
 550:	010b2013          	slti	zero,s6,16
 554:	5b000013          	li	zero,1456
 558:	012e                	slli	sp,sp,0xb
 55a:	13641347          	fmsub.d	ft6,fs0,fs6,ft2,rtz
 55e:	0b20                	addi	s0,sp,408
 560:	1301                	addi	t1,t1,-32
 562:	0000                	unimp
 564:	055c                	addi	a5,sp,644
 566:	0300                	addi	s0,sp,384
 568:	490e                	lw	s2,192(sp)
 56a:	00193413          	seqz	s0,s2
 56e:	5d00                	lw	s0,56(a0)
 570:	012e                	slli	sp,sp,0xb
 572:	01111347          	fmsub.s	ft6,ft2,fa7,ft0,rtz
 576:	0712                	slli	a4,a4,0x4
 578:	1840                	addi	s0,sp,52
 57a:	01194297          	auipc	t0,0x1194
 57e:	5e000013          	li	zero,1504
 582:	0005                	c.nop	1
 584:	0b3a0803          	lb	a6,179(s4)
 588:	0b390b3b          	0xb390b3b
 58c:	1349                	addi	t1,t1,-14
 58e:	1702                	slli	a4,a4,0x20
 590:	0000                	unimp
 592:	055f 0300 3a08      	0x3a080300055f
 598:	390b3b0b          	0x390b3b0b
 59c:	0013490b          	0x13490b
 5a0:	6000                	ld	s0,0(s0)
 5a2:	002e                	c.slli	zero,0xb
 5a4:	193c193f 0e030e6e 	0xe030e6e193c193f
 5ac:	0b3a                	slli	s6,s6,0xe
 5ae:	0b390b3b          	0xb390b3b
 5b2:	0000                	unimp
 5b4:	0100                	addi	s0,sp,128
 5b6:	0111                	addi	sp,sp,4
 5b8:	0e25                	addi	t3,t3,9
 5ba:	0e030b13          	addi	s6,t1,224
 5be:	17550e1b          	addiw	t3,a0,373
 5c2:	0111                	addi	sp,sp,4
 5c4:	1710                	addi	a2,sp,928
 5c6:	0000                	unimp
 5c8:	2402                	fld	fs0,0(sp)
 5ca:	0b00                	addi	s0,sp,400
 5cc:	030b3e0b          	0x30b3e0b
 5d0:	000e                	c.slli	zero,0x3
 5d2:	0300                	addi	s0,sp,384
 5d4:	0024                	addi	s1,sp,8
 5d6:	0b3e0b0b          	0xb3e0b0b
 5da:	00000803          	lb	a6,0(zero) # 0 <_start-0x80200000>
 5de:	3b04                	fld	fs1,48(a4)
 5e0:	0300                	addi	s0,sp,384
 5e2:	000e                	c.slli	zero,0x3
 5e4:	0500                	addi	s0,sp,640
 5e6:	0139                	addi	sp,sp,14
 5e8:	0b3a0803          	lb	a6,179(s4)
 5ec:	0b390b3b          	0xb390b3b
 5f0:	1301                	addi	t1,t1,-32
 5f2:	0000                	unimp
 5f4:	3906                	fld	fs2,96(sp)
 5f6:	0300                	addi	s0,sp,384
 5f8:	3a08                	fld	fa0,48(a2)
 5fa:	390b3b0b          	0x390b3b0b
 5fe:	0700000b          	0x700000b
 602:	0039                	c.nop	14
 604:	0b3a0e03          	lb	t3,179(s4)
 608:	0b390b3b          	0xb390b3b
 60c:	0000                	unimp
 60e:	2e08                	fld	fa0,24(a2)
 610:	3f01                	addiw	t5,t5,-32
 612:	0319                	addi	t1,t1,6
 614:	3a0e                	fld	fs4,224(sp)
 616:	390b3b0b          	0x390b3b0b
 61a:	490e6e0b          	0x490e6e0b
 61e:	00193c13          	seqz	s8,s2
 622:	0900                	addi	s0,sp,144
 624:	0005                	c.nop	1
 626:	1349                	addi	t1,t1,-14
 628:	0000                	unimp
 62a:	2e0a                	fld	ft8,128(sp)
 62c:	3f00                	fld	fs0,56(a4)
 62e:	0319                	addi	t1,t1,6
 630:	3a0e                	fld	fs4,224(sp)
 632:	390b3b0b          	0x390b3b0b
 636:	000e6e0b          	0xe6e0b
 63a:	0b00                	addi	s0,sp,400
 63c:	012e                	slli	sp,sp,0xb
 63e:	0e03193f 0b3b0b3a 	0xb3b0b3a0e03193f
 646:	0b39                	addi	s6,s6,14
 648:	0e6e                	slli	t3,t3,0x1b
 64a:	0111                	addi	sp,sp,4
 64c:	0712                	slli	a4,a4,0x4
 64e:	1840                	addi	s0,sp,52
 650:	01194297          	auipc	t0,0x1194
 654:	0c000013          	li	zero,192
 658:	011d                	addi	sp,sp,7
 65a:	1331                	addi	t1,t1,-20
 65c:	0111                	addi	sp,sp,4
 65e:	0712                	slli	a4,a4,0x4
 660:	0b58                	addi	a4,sp,404
 662:	0b59                	addi	s6,s6,22
 664:	00000b57          	0xb57
 668:	050d                	addi	a0,a0,3
 66a:	3100                	fld	fs0,32(a0)
 66c:	00170213          	addi	tp,a4,1 # 9b12ed <_start-0x7f84ed13>
 670:	0e00                	addi	s0,sp,784
 672:	0034                	addi	a3,sp,8
 674:	1331                	addi	t1,t1,-20
 676:	1702                	slli	a4,a4,0x20
 678:	0000                	unimp
 67a:	3100340f          	0x3100340f
 67e:	10000013          	li	zero,256
 682:	012e                	slli	sp,sp,0xb
 684:	0b201347          	fmsub.d	ft6,ft0,fs2,ft1,rtz
 688:	0000                	unimp
 68a:	0511                	addi	a0,a0,4
 68c:	0300                	addi	s0,sp,384
 68e:	3a08                	fld	fa0,48(a2)
 690:	390b3b0b          	0x390b3b0b
 694:	0013490b          	0x13490b
 698:	1200                	addi	s0,sp,288
 69a:	0034                	addi	a3,sp,8
 69c:	0b3a0803          	lb	a6,179(s4)
 6a0:	0b390b3b          	0xb390b3b
 6a4:	1349                	addi	t1,t1,-14
 6a6:	0000                	unimp
 6a8:	0100                	addi	s0,sp,128
 6aa:	0111                	addi	sp,sp,4
 6ac:	0e25                	addi	t3,t3,9
 6ae:	0e030b13          	addi	s6,t1,224
 6b2:	01110e1b          	addiw	t3,sp,17
 6b6:	0712                	slli	a4,a4,0x4
 6b8:	1710                	addi	a2,sp,928
 6ba:	0000                	unimp
 6bc:	2402                	fld	fs0,0(sp)
 6be:	0b00                	addi	s0,sp,400
 6c0:	030b3e0b          	0x30b3e0b
 6c4:	000e                	c.slli	zero,0x3
 6c6:	0300                	addi	s0,sp,384
 6c8:	0024                	addi	s1,sp,8
 6ca:	0b3e0b0b          	0xb3e0b0b
 6ce:	00000803          	lb	a6,0(zero) # 0 <_start-0x80200000>
 6d2:	2604                	fld	fs1,8(a2)
 6d4:	4900                	lw	s0,16(a0)
 6d6:	05000013          	li	zero,80
 6da:	0016                	c.slli	zero,0x5
 6dc:	0b3a0e03          	lb	t3,179(s4)
 6e0:	0b390b3b          	0xb390b3b
 6e4:	1349                	addi	t1,t1,-14
 6e6:	0000                	unimp
 6e8:	3b06                	fld	fs6,96(sp)
 6ea:	0300                	addi	s0,sp,384
 6ec:	000e                	c.slli	zero,0x3
 6ee:	0700                	addi	s0,sp,896
 6f0:	0b0b000f          	0xb0b000f
 6f4:	00000e03          	lb	t3,0(zero) # 0 <_start-0x80200000>
 6f8:	3908                	fld	fa0,48(a0)
 6fa:	0301                	addi	t1,t1,0
 6fc:	3a0e                	fld	fs4,224(sp)
 6fe:	390b3b0b          	0x390b3b0b
 702:	0013010b          	0x13010b
 706:	0900                	addi	s0,sp,144
 708:	0034                	addi	a3,sp,8
 70a:	0b3a0803          	lb	a6,179(s4)
 70e:	0b390b3b          	0xb390b3b
 712:	1349                	addi	t1,t1,-14
 714:	193c                	addi	a5,sp,184
 716:	0b1c                	addi	a5,sp,400
 718:	196c                	addi	a1,sp,188
 71a:	0000                	unimp
 71c:	340a                	fld	fs0,160(sp)
 71e:	0300                	addi	s0,sp,384
 720:	3a0e                	fld	fs4,224(sp)
 722:	390b3b0b          	0x390b3b0b
 726:	3c13490b          	0x3c13490b
 72a:	1c19                	addi	s8,s8,-26
 72c:	6c06                	ld	s8,64(sp)
 72e:	0019                	c.nop	6
 730:	0b00                	addi	s0,sp,400
 732:	0139                	addi	sp,sp,14
 734:	0b3a0e03          	lb	t3,179(s4)
 738:	0b390b3b          	0xb390b3b
 73c:	0000                	unimp
 73e:	340c                	fld	fa1,40(s0)
 740:	4700                	lw	s0,8(a4)
 742:	0d000013          	li	zero,208
 746:	0e030113          	addi	sp,t1,224
 74a:	0b3a0b0b          	0xb3a0b0b
 74e:	0b390b3b          	0xb390b3b
 752:	1301                	addi	t1,t1,-32
 754:	0000                	unimp
 756:	0d0e                	slli	s10,s10,0x3
 758:	0300                	addi	s0,sp,384
 75a:	3a0e                	fld	fs4,224(sp)
 75c:	390b3b0b          	0x390b3b0b
 760:	3813490b          	0x3813490b
 764:	0f00000b          	0xf00000b
 768:	012e                	slli	sp,sp,0xb
 76a:	0e03193f 0b3b0b3a 	0xb3b0b3a0e03193f
 772:	0b39                	addi	s6,s6,14
 774:	0e6e                	slli	t3,t3,0x1b
 776:	1349                	addi	t1,t1,-14
 778:	193c                	addi	a5,sp,184
 77a:	1364                	addi	s1,sp,428
 77c:	1301                	addi	t1,t1,-32
 77e:	0000                	unimp
 780:	0510                	addi	a2,sp,640
 782:	4900                	lw	s0,16(a0)
 784:	00193413          	seqz	s0,s2
 788:	1100                	addi	s0,sp,160
 78a:	0005                	c.nop	1
 78c:	1349                	addi	t1,t1,-14
 78e:	0000                	unimp
 790:	2e12                	fld	ft8,256(sp)
 792:	3f01                	addiw	t5,t5,-32
 794:	0319                	addi	t1,t1,6
 796:	3a08                	fld	fa0,48(a2)
 798:	390b3b0b          	0x390b3b0b
 79c:	3c0e6e0b          	0x3c0e6e0b
 7a0:	6419                	lui	s0,0x6
 7a2:	00130113          	addi	sp,t1,1
 7a6:	1300                	addi	s0,sp,416
 7a8:	012e                	slli	sp,sp,0xb
 7aa:	0803193f 0b3b0b3a 	0xb3b0b3a0803193f
 7b2:	0b39                	addi	s6,s6,14
 7b4:	0e6e                	slli	t3,t3,0x1b
 7b6:	1349                	addi	t1,t1,-14
 7b8:	193c                	addi	a5,sp,184
 7ba:	1364                	addi	s1,sp,428
 7bc:	1301                	addi	t1,t1,-32
 7be:	0000                	unimp
 7c0:	2f14                	fld	fa3,24(a4)
 7c2:	0300                	addi	s0,sp,384
 7c4:	4908                	lw	a0,16(a0)
 7c6:	15000013          	li	zero,336
 7ca:	0030                	addi	a2,sp,8
 7cc:	13490e03          	lb	t3,308(s2)
 7d0:	191e                	slli	s2,s2,0x27
 7d2:	0b1c                	addi	a5,sp,400
 7d4:	0000                	unimp
 7d6:	0116                	slli	sp,sp,0x5
 7d8:	4901                	li	s2,0
 7da:	00130113          	addi	sp,t1,1
 7de:	1700                	addi	s0,sp,928
 7e0:	0021                	c.nop	8
 7e2:	1349                	addi	t1,t1,-14
 7e4:	00000b2f          	0xb2f
 7e8:	0f18                	addi	a4,sp,912
 7ea:	0b00                	addi	s0,sp,400
 7ec:	0013490b          	0x13490b
 7f0:	1900                	addi	s0,sp,176
 7f2:	0034                	addi	a3,sp,8
 7f4:	0b3a0803          	lb	a6,179(s4)
 7f8:	0b390b3b          	0xb390b3b
 7fc:	1349                	addi	t1,t1,-14
 7fe:	0000                	unimp
 800:	151a                	slli	a0,a0,0x26
 802:	0101                	addi	sp,sp,0
 804:	1b000013          	li	zero,432
 808:	0034                	addi	a3,sp,8
 80a:	0b3a0e03          	lb	t3,179(s4)
 80e:	0b390b3b          	0xb390b3b
 812:	1349                	addi	t1,t1,-14
 814:	193c193f 341c0000 	0x341c0000193c193f
 81c:	4700                	lw	s0,8(a4)
 81e:	3b0b3a13          	sltiu	s4,s6,944
 822:	020b390b          	0x20b390b
 826:	0018                	0x18
 828:	1d00                	addi	s0,sp,688
 82a:	0021                	c.nop	8
 82c:	1349                	addi	t1,t1,-14
 82e:	0000052f          	0x52f
 832:	341e                	fld	fs0,480(sp)
 834:	0300                	addi	s0,sp,384
 836:	3a0e                	fld	fs4,224(sp)
 838:	390b3b0b          	0x390b3b0b
 83c:	0213490b          	0x213490b
 840:	0018                	0x18
 842:	1f00                	addi	s0,sp,944
 844:	002e                	c.slli	zero,0xb
 846:	0e03193f 0b3b0b3a 	0xb3b0b3a0e03193f
 84e:	0b39                	addi	s6,s6,14
 850:	0111                	addi	sp,sp,4
 852:	0712                	slli	a4,a4,0x4
 854:	1840                	addi	s0,sp,52
 856:	00194297          	auipc	t0,0x194
 85a:	2000                	fld	fs0,0(s0)
 85c:	012e                	slli	sp,sp,0xb
 85e:	0e03193f 0b3b0b3a 	0xb3b0b3a0e03193f
 866:	0b39                	addi	s6,s6,14
 868:	0111                	addi	sp,sp,4
 86a:	0712                	slli	a4,a4,0x4
 86c:	1840                	addi	s0,sp,52
 86e:	01194297          	auipc	t0,0x1194
 872:	21000013          	li	zero,528
 876:	0005                	c.nop	1
 878:	0b3a0803          	lb	a6,179(s4)
 87c:	0b390b3b          	0xb390b3b
 880:	1349                	addi	t1,t1,-14
 882:	1702                	slli	a4,a4,0x20
 884:	0000                	unimp
 886:	8922                	mv	s2,s0
 888:	0182                	c.slli64	gp
 88a:	1101                	addi	sp,sp,-32
 88c:	3101                	addiw	sp,sp,-32
 88e:	00130113          	addi	sp,t1,1
 892:	2300                	fld	fs0,0(a4)
 894:	828a                	mv	t0,sp
 896:	0001                	nop
 898:	1802                	slli	a6,a6,0x20
 89a:	4291                	li	t0,4
 89c:	0018                	0x18
 89e:	2400                	fld	fs0,8(s0)
 8a0:	8289                	srli	a3,a3,0x2
 8a2:	0101                	addi	sp,sp,0
 8a4:	0111                	addi	sp,sp,4
 8a6:	1331                	addi	t1,t1,-20
 8a8:	0000                	unimp
 8aa:	2e25                	addiw	t3,t3,9
 8ac:	3f01                	addiw	t5,t5,-32
 8ae:	0319                	addi	t1,t1,6
 8b0:	3a0e                	fld	fs4,224(sp)
 8b2:	390b3b0b          	0x390b3b0b
 8b6:	1113490b          	0x1113490b
 8ba:	1201                	addi	tp,tp,-32
 8bc:	97184007          	flq	ft0,-1679(a6) # 590b4eab <_start-0x2714b155>
 8c0:	1942                	slli	s2,s2,0x30
 8c2:	1301                	addi	t1,t1,-32
 8c4:	0000                	unimp
 8c6:	1826                	slli	a6,a6,0x29
 8c8:	0000                	unimp
 8ca:	2700                	fld	fs0,8(a4)
 8cc:	0034                	addi	a3,sp,8
 8ce:	0b3a0803          	lb	a6,179(s4)
 8d2:	0b390b3b          	0xb390b3b
 8d6:	1349                	addi	t1,t1,-14
 8d8:	1702                	slli	a4,a4,0x20
 8da:	0000                	unimp
 8dc:	3428                	fld	fa0,104(s0)
 8de:	0300                	addi	s0,sp,384
 8e0:	3a08                	fld	fa0,48(a2)
 8e2:	390b3b0b          	0x390b3b0b
 8e6:	0213490b          	0x213490b
 8ea:	0018                	0x18
 8ec:	2900                	fld	fs0,16(a0)
 8ee:	011d                	addi	sp,sp,7
 8f0:	1331                	addi	t1,t1,-20
 8f2:	0152                	slli	sp,sp,0x14
 8f4:	1755                	addi	a4,a4,-11
 8f6:	0b58                	addi	a4,sp,404
 8f8:	0b59                	addi	s6,s6,22
 8fa:	00000b57          	0xb57
 8fe:	052a                	slli	a0,a0,0xa
 900:	3100                	fld	fs0,32(a0)
 902:	00170213          	addi	tp,a4,1
 906:	2b00                	fld	fs0,16(a4)
 908:	1755010b          	0x1755010b
 90c:	0000                	unimp
 90e:	342c                	fld	fa1,104(s0)
 910:	3100                	fld	fs0,32(a0)
 912:	00170213          	addi	tp,a4,1
 916:	2d00                	fld	fs0,24(a0)
 918:	8289                	srli	a3,a3,0x2
 91a:	0101                	addi	sp,sp,0
 91c:	0111                	addi	sp,sp,4
 91e:	1301                	addi	t1,t1,-32
 920:	0000                	unimp
 922:	892e                	mv	s2,a1
 924:	0182                	c.slli64	gp
 926:	1101                	addi	sp,sp,-32
 928:	0001                	nop
 92a:	2f00                	fld	fs0,24(a4)
 92c:	012e                	slli	sp,sp,0xb
 92e:	0b3a0e03          	lb	t3,179(s4)
 932:	0b390b3b          	0xb390b3b
 936:	1349                	addi	t1,t1,-14
 938:	0b20                	addi	s0,sp,408
 93a:	1301                	addi	t1,t1,-32
 93c:	0000                	unimp
 93e:	0530                	addi	a2,sp,648
 940:	0300                	addi	s0,sp,384
 942:	3a08                	fld	fa0,48(a2)
 944:	390b3b0b          	0x390b3b0b
 948:	0013490b          	0x13490b
 94c:	3100                	fld	fs0,32(a0)
 94e:	012e                	slli	sp,sp,0xb
 950:	0b3a0e03          	lb	t3,179(s4)
 954:	0b390b3b          	0xb390b3b
 958:	1349                	addi	t1,t1,-14
 95a:	0111                	addi	sp,sp,4
 95c:	0712                	slli	a4,a4,0x4
 95e:	1840                	addi	s0,sp,52
 960:	00194297          	auipc	t0,0x194
 964:	3200                	fld	fs0,32(a2)
 966:	0005                	c.nop	1
 968:	0b3a0803          	lb	a6,179(s4)
 96c:	0b390b3b          	0xb390b3b
 970:	1349                	addi	t1,t1,-14
 972:	1802                	slli	a6,a6,0x20
 974:	0000                	unimp
 976:	03003433          	mulhu	s0,zero,a6
 97a:	3a0e                	fld	fs4,224(sp)
 97c:	390b3b0b          	0x390b3b0b
 980:	0213490b          	0x213490b
 984:	34000017          	auipc	zero,0x34000
 988:	1755010b          	0x1755010b
 98c:	1301                	addi	t1,t1,-32
 98e:	0000                	unimp
 990:	3435                	addiw	s0,s0,-19
 992:	0300                	addi	s0,sp,384
 994:	3a0e                	fld	fs4,224(sp)
 996:	390b3b0b          	0x390b3b0b
 99a:	0013490b          	0x13490b
 99e:	3600                	fld	fs0,40(a2)
 9a0:	0111010b          	0x111010b
 9a4:	0712                	slli	a4,a4,0x4
 9a6:	0000                	unimp
	...

Disassembly of section .debug_aranges:

0000000000000000 <.debug_aranges>:
   0:	002c                	addi	a1,sp,8
   2:	0000                	unimp
   4:	0002                	c.slli64	zero
   6:	0000                	unimp
   8:	0000                	unimp
   a:	0008                	0x8
   c:	0000                	unimp
   e:	0000                	unimp
  10:	0000                	unimp
  12:	8020                	0x8020
  14:	0000                	unimp
  16:	0000                	unimp
  18:	0004                	0x4
	...
  2e:	0000                	unimp
  30:	003c                	addi	a5,sp,8
  32:	0000                	unimp
  34:	0002                	c.slli64	zero
  36:	002e                	c.slli	zero,0xb
  38:	0000                	unimp
  3a:	0008                	0x8
  3c:	0000                	unimp
  3e:	0000                	unimp
  40:	0004                	0x4
  42:	8020                	0x8020
  44:	0000                	unimp
  46:	0000                	unimp
  48:	0404                	addi	s1,sp,512
  4a:	0000                	unimp
  4c:	0000                	unimp
  4e:	0000                	unimp
  50:	0408                	addi	a0,sp,512
  52:	8020                	0x8020
  54:	0000                	unimp
  56:	0000                	unimp
  58:	0034                	addi	a3,sp,8
	...
  6e:	0000                	unimp
  70:	002c                	addi	a1,sp,8
  72:	0000                	unimp
  74:	0002                	c.slli64	zero
  76:	0f56                	slli	t5,t5,0x15
  78:	0000                	unimp
  7a:	0008                	0x8
  7c:	0000                	unimp
  7e:	0000                	unimp
  80:	043c                	addi	a5,sp,520
  82:	8020                	0x8020
  84:	0000                	unimp
  86:	0000                	unimp
  88:	0018                	0x18
	...
  9e:	0000                	unimp
  a0:	002c                	addi	a1,sp,8
  a2:	0000                	unimp
  a4:	0002                	c.slli64	zero
  a6:	108d                	addi	ra,ra,-29
  a8:	0000                	unimp
  aa:	0008                	0x8
  ac:	0000                	unimp
  ae:	0000                	unimp
  b0:	0454                	addi	a3,sp,516
  b2:	8020                	0x8020
  b4:	0000                	unimp
  b6:	0000                	unimp
  b8:	03e0                	addi	s0,sp,460
	...

Disassembly of section .debug_str:

0000000000000000 <.debug_str>:
   0:	72617473          	csrrci	s0,0x726,2
   4:	2e74                	fld	fa3,216(a2)
   6:	682f0053          	0x682f0053
   a:	2f656d6f          	jal	s10,56300 <_start-0x801a9d00>
   e:	797a                	ld	s2,440(sp)
  10:	6f432f63          	0x6f432f63
  14:	6964                	ld	s1,208(a0)
  16:	676e                	ld	a4,216(sp)
  18:	4f56522f          	0x4f56522f
  1c:	656b2f53          	0x656b2f53
  20:	6e72                	ld	t3,280(sp)
  22:	6c65                	lui	s8,0x19
  24:	4700                	lw	s0,8(a4)
  26:	554e                	lw	a0,240(sp)
  28:	4120                	lw	s0,64(a0)
  2a:	2e322053          	0x2e322053
  2e:	5f003233          	0x5f003233
  32:	665f 726f 655f      	0x655f726f665f
  38:	646e                	ld	s0,216(sp)
  3a:	7500                	ld	s0,40(a0)
  3c:	6365                	lui	t1,0x19
  3e:	6c61                	lui	s8,0x18
  40:	006c                	addi	a1,sp,12
  42:	6e75                	lui	t3,0x1d
  44:	7375                	lui	t1,0xffffd
  46:	6465                	lui	s0,0x19
  48:	0031                	c.nop	12
  4a:	5f5f 6f66 5f72      	0x5f726f665f5f
  50:	6562                	ld	a0,24(sp)
  52:	006e6967          	0x6e6967
  56:	63737973          	csrrci	s2,0x637,6
  5a:	6c61                	lui	s8,0x18
  5c:	5f6c                	lw	a1,124(a4)
  5e:	0074                	addi	a3,sp,12
  60:	657a6973          	csrrsi	s2,0x657,20
  64:	745f 5f00 4e5a      	0x4e5a5f00745f
  6a:	69627333          	0x69627333
  6e:	6535                	lui	a0,0xd
  70:	6c6c6163          	bltu	s8,t1,732 <_start-0x801ff8ce>
  74:	6945                	lui	s2,0x11
  76:	7200                	ld	s0,32(a2)
  78:	7365                	lui	t1,0xffff9
  7a:	7465                	lui	s0,0xffff9
  7c:	5458                	lw	a4,44(s0)
  7e:	4549                	li	a0,18
  80:	7300                	ld	s0,32(a4)
  82:	7461                	lui	s0,0xffff8
  84:	0070                	addi	a2,sp,12
  86:	7865                	lui	a6,0xffff9
  88:	74706563          	bltu	zero,t2,7d2 <_start-0x801ff82e>
  8c:	6f69                	lui	t5,0x1a
  8e:	736e                	ld	t1,248(sp)
  90:	6800                	ld	s0,16(s0)
  92:	6974                	ld	a3,208(a0)
  94:	0065                	c.nop	25
  96:	6874                	ld	a3,208(s0)
  98:	7369                	lui	t1,0xffffa
  9a:	5f00                	lw	s0,56(a4)
  9c:	4e5a                	lw	t3,148(sp)
  9e:	6e697237          	lui	tp,0x6e697
  a2:	66756267          	0x66756267
  a6:	6349                	lui	t1,0x12
  a8:	6d4c                	ld	a1,152(a0)
  aa:	3231                	addiw	tp,tp,-20
  ac:	4538                	lw	a4,72(a0)
  ae:	3545                	addiw	a0,a0,-15
  b0:	6d65                	lui	s10,0x19
  b2:	7470                	ld	a2,232(s0)
  b4:	4579                	li	a0,30
  b6:	0076                	c.slli	zero,0x1d
  b8:	6461                	lui	s0,0x18
  ba:	7264                	ld	s1,224(a2)
  bc:	7000                	ld	s0,32(s0)
  be:	7265                	lui	tp,0xffff9
  c0:	006d                	c.nop	27
  c2:	20554e47          	fmsub.s	ft8,fa0,ft5,ft4,rmm
  c6:	312b2b43          	fmadd.s	fs6,fs6,fs2,ft6,rdn
  ca:	2034                	fld	fa3,64(s0)
  cc:	2e39                	addiw	t3,t3,14
  ce:	2e32                	fld	ft8,264(sp)
  d0:	2030                	fld	fa2,64(s0)
  d2:	6d2d                	lui	s10,0xb
  d4:	7261                	lui	tp,0xffff8
  d6:	723d6863          	bltu	s10,gp,806 <_start-0x801ff7fa>
  da:	3676                	fld	fa2,376(sp)
  dc:	6934                	ld	a3,80(a0)
  de:	616d                	addi	sp,sp,240
  e0:	2d20                	fld	fs0,88(a0)
  e2:	616d                	addi	sp,sp,240
  e4:	6962                	ld	s2,24(sp)
  e6:	6c3d                	lui	s8,0xf
  e8:	3670                	fld	fa2,232(a2)
  ea:	2034                	fld	fa3,64(s0)
  ec:	6d2d                	lui	s10,0xb
  ee:	646f6d63          	bltu	t5,t1,748 <_start-0x801ff8b8>
  f2:	6c65                	lui	s8,0x19
  f4:	6d3d                	lui	s10,0xf
  f6:	6465                	lui	s0,0x19
  f8:	6e61                	lui	t3,0x18
  fa:	2079                	0x2079
  fc:	6d2d                	lui	s10,0xb
  fe:	7574                	ld	a3,232(a0)
 100:	656e                	ld	a0,216(sp)
 102:	723d                	lui	tp,0xfffef
 104:	656b636f          	jal	t1,b675a <_start-0x801498a6>
 108:	2074                	fld	fa3,192(s0)
 10a:	672d                	lui	a4,0xb
 10c:	2d20                	fld	fs0,88(a0)
 10e:	2d20324f          	0x2d20324f
 112:	6e66                	ld	t3,88(sp)
 114:	75622d6f          	jal	s10,2286a <_start-0x801dd796>
 118:	6c69                	lui	s8,0x1a
 11a:	6974                	ld	a3,208(a0)
 11c:	006e                	c.slli	zero,0x1b
 11e:	7375                	lui	t1,0xffffd
 120:	6569                	lui	a0,0x1a
 122:	6e00                	ld	s0,24(a2)
 124:	7865                	lui	a6,0xffff9
 126:	0074                	addi	a3,sp,12
 128:	5a5f 374e 6972      	0x6972374e5a5f
 12e:	676e                	ld	a4,216(sp)
 130:	7562                	ld	a0,56(sp)
 132:	4966                	lw	s2,88(sp)
 134:	316d4c63          	blt	s10,s6,44c <_start-0x801ffbb4>
 138:	3832                	fld	fa6,296(sp)
 13a:	4545                	li	a0,17
 13c:	74656733          	0x74656733
 140:	7645                	lui	a2,0xffff1
 142:	7000                	ld	s0,32(s0)
 144:	6c627467          	0x6c627467
 148:	745f 6d00 6974      	0x69746d00745f
 14e:	656d                	lui	a0,0x1b
 150:	4f706d63          	bltu	zero,s7,64a <_start-0x801ff9b6>
 154:	0066                	c.slli	zero,0x19
 156:	6f6c                	ld	a1,216(a4)
 158:	676e                	ld	a4,216(sp)
 15a:	6c20                	ld	s0,88(s0)
 15c:	20676e6f          	jal	t3,76362 <_start-0x80189c9e>
 160:	6e69                	lui	t3,0x1a
 162:	0074                	addi	a3,sp,12
 164:	7562                	ld	a0,56(sp)
 166:	6666                	ld	a2,88(sp)
 168:	7200                	ld	s0,32(a2)
 16a:	6165                	addi	sp,sp,112
 16c:	4864                	lw	s1,84(s0)
 16e:	7261                	lui	tp,0xffff8
 170:	4974                	lw	a3,84(a0)
 172:	0064                	addi	s1,sp,12
 174:	65697473          	csrrci	s0,0x656,18
 178:	5f00                	lw	s0,56(a4)
 17a:	4e5a                	lw	t3,148(sp)
 17c:	4932                	lw	s2,12(sp)
 17e:	5f36314f          	fnmadd.q	ft2,fa2,fs3,fa1,rup
 182:	6f6e                	ld	t5,216(sp)
 184:	626e                	ld	tp,216(sp)
 186:	6f6c                	ld	a1,216(a4)
 188:	6e696b63          	bltu	s2,t1,87e <_start-0x801ff782>
 18c:	74757067          	0x74757067
 190:	4b504573          	0x4b504573
 194:	6d650063          	beq	a0,s6,854 <_start-0x801ff7ac>
 198:	7470                	ld	a2,232(s0)
 19a:	0079                	c.nop	30
 19c:	726f7473          	csrrci	s0,0x726,30
 1a0:	4165                	li	sp,25
 1a2:	73656363          	bltu	a0,s6,8c8 <_start-0x801ff738>
 1a6:	75614673          	0x75614673
 1aa:	746c                	ld	a1,232(s0)
 1ac:	6200                	ld	s0,0(a2)
 1ae:	6572                	ld	a0,280(sp)
 1b0:	6b61                	lui	s6,0x18
 1b2:	6f70                	ld	a2,216(a4)
 1b4:	6e69                	lui	t3,0x1a
 1b6:	0074                	addi	a3,sp,12
 1b8:	7470                	ld	a2,232(s0)
 1ba:	5f72                	lw	t5,60(sp)
 1bc:	0074                	addi	a3,sp,12
 1be:	6170                	ld	a2,192(a0)
 1c0:	69536567          	0x69536567
 1c4:	657a                	ld	a0,408(sp)
 1c6:	6b00                	ld	s0,16(a4)
 1c8:	7265                	lui	tp,0xffff9
 1ca:	656e                	ld	a0,216(sp)
 1cc:	2e6c                	fld	fa1,216(a2)
 1ce:	6d006363          	bltu	zero,a6,894 <_start-0x801ff76c>
 1d2:	6965                	lui	s2,0x19
 1d4:	0065                	c.nop	25
 1d6:	6e65                	lui	t3,0x19
 1d8:	6261                	lui	tp,0x18
 1da:	656c                	ld	a1,200(a0)
 1dc:	5f00                	lw	s0,56(a4)
 1de:	345a                	fld	fs0,432(sp)
 1e0:	6d6d                	lui	s10,0x1b
 1e2:	6f69                	lui	t5,0x1a
 1e4:	5649                	li	a2,-14
 1e6:	456d                	li	a0,27
 1e8:	5452                	lw	s0,52(sp)
 1ea:	6d5f 6d00 6970      	0x69706d006d5f
 1f0:	0065                	c.nop	25
 1f2:	5a5f 6d34 696d      	0x696d6d345a5f
 1f8:	456d496f          	jal	s2,d464e <_start-0x8012b9b2>
 1fc:	5452                	lw	s0,52(sp)
 1fe:	6d5f 6800 6973      	0x697368006d5f
 204:	0065                	c.nop	25
 206:	72617473          	csrrci	s0,0x726,2
 20a:	5f74                	lw	a3,124(a4)
 20c:	6e72656b          	0x6e72656b
 210:	6c65                	lui	s8,0x19
 212:	7300                	ld	s0,32(a4)
 214:	7379                	lui	t1,0xffffe
 216:	6c6c6163          	bltu	s8,t1,8d8 <_start-0x801ff728>
 21a:	69660073          	0x69660073
 21e:	6c65                	lui	s8,0x19
 220:	7364                	ld	s1,224(a4)
 222:	6300                	ld	s0,0(a4)
 224:	616c                	ld	a1,192(a0)
 226:	6d69                	lui	s10,0x1a
 228:	7000                	ld	s0,32(s0)
 22a:	6e70                	ld	a2,216(a2)
 22c:	614d                	addi	sp,sp,176
 22e:	5f006b73          	csrrsi	s6,0x5f0,0
 232:	4e5a                	lw	t3,148(sp)
 234:	4932                	lw	s2,12(sp)
 236:	656e344f          	0x656e344f
 23a:	7478                	ld	a4,232(s0)
 23c:	7645                	lui	a2,0xffff1
 23e:	6e00                	ld	s0,24(a2)
 240:	63737953          	0x63737953
 244:	6c61                	lui	s8,0x18
 246:	736c                	ld	a1,224(a4)
 248:	5f00                	lw	s0,56(a4)
 24a:	4e5a                	lw	t3,148(sp)
 24c:	69627333          	0x69627333
 250:	3031                	0x3031
 252:	6572                	ld	a0,280(sp)
 254:	6461                	lui	s0,0x18
 256:	6148                	ld	a0,128(a0)
 258:	7472                	ld	s0,312(sp)
 25a:	6449                	lui	s0,0x12
 25c:	7645                	lui	a2,0xffff1
 25e:	7600                	ld	s0,40(a2)
 260:	6c61                	lui	s8,0x18
 262:	6575                	lui	a0,0x1d
 264:	7200                	ld	s0,32(a2)
 266:	7674                	ld	a3,232(a2)
 268:	6c61                	lui	s8,0x18
 26a:	7400                	ld	s0,40(s0)
 26c:	6978                	ld	a4,208(a0)
 26e:	6c64                	ld	s1,216(s0)
 270:	0065                	c.nop	25
 272:	65697373          	csrrci	t1,0x656,18
 276:	6d00                	ld	s0,24(a0)
 278:	6d65                	lui	s10,0x19
 27a:	6e49                	lui	t3,0x12
 27c:	7469                	lui	s0,0xffffa
 27e:	6c00                	ld	s0,24(s0)
 280:	20676e6f          	jal	t3,76486 <_start-0x80189b7a>
 284:	6e75                	lui	t3,0x1d
 286:	6e676973          	csrrsi	s2,0x6e6,14
 28a:	6465                	lui	s0,0x19
 28c:	6920                	ld	s0,80(a0)
 28e:	746e                	ld	s0,248(sp)
 290:	6900                	ld	s0,16(a0)
 292:	746e                	ld	s0,248(sp)
 294:	7265                	lui	tp,0xffff9
 296:	7572                	ld	a0,312(sp)
 298:	7470                	ld	a2,232(s0)
 29a:	69740073          	0x69740073
 29e:	656d                	lui	a0,0x1b
 2a0:	4972                	lw	s2,28(sp)
 2a2:	696e                	ld	s2,216(sp)
 2a4:	0074                	addi	a3,sp,12
 2a6:	6175                	addi	sp,sp,368
 2a8:	7472                	ld	s0,312(sp)
 2aa:	0030                	addi	a2,sp,8
 2ac:	5a5f 384e 6c70      	0x6c70384e5a5f
 2b2:	7461                	lui	s0,0xffff8
 2b4:	6f66                	ld	t5,88(sp)
 2b6:	6d72                	ld	s10,280(sp)
 2b8:	6335                	lui	t1,0xd
 2ba:	696c                	ld	a1,208(a0)
 2bc:	746e                	ld	s0,248(sp)
 2be:	3031                	0x3031
 2c0:	746d                	lui	s0,0xffffb
 2c2:	6d69                	lui	s10,0x1a
 2c4:	6365                	lui	t1,0x19
 2c6:	706d                	c.lui	zero,0xffffb
 2c8:	6945664f          	fnmadd.s	fa2,fa0,fs4,fa3,unknown
 2cc:	6b00                	ld	s0,16(a4)
 2ce:	7265                	lui	tp,0xffff9
 2d0:	656e                	ld	a0,216(sp)
 2d2:	506c                	lw	a1,100(s0)
 2d4:	6761                	lui	a4,0x18
 2d6:	5465                	li	s0,-7
 2d8:	6261                	lui	tp,0x18
 2da:	656c                	ld	a1,200(a0)
 2dc:	6f52                	ld	t5,272(sp)
 2de:	6d00746f          	jal	s0,79ae <_start-0x801f8652>
 2e2:	73756163          	bltu	a0,s7,a04 <_start-0x801ff5fc>
 2e6:	0065                	c.nop	25
 2e8:	746e6f63          	bltu	t3,t1,a46 <_start-0x801ff5ba>
 2ec:	7865                	lui	a6,0xffff9
 2ee:	0074                	addi	a3,sp,12
 2f0:	6570                	ld	a2,200(a0)
 2f2:	646e                	ld	s0,216(sp)
 2f4:	6e69                	lui	t3,0x1a
 2f6:	5a5f0067          	jr	1445(t5) # 1a5a5 <_start-0x801e5a5b>
 2fa:	6d34                	ld	a3,88(a0)
 2fc:	696d                	lui	s2,0x1b
 2fe:	4563496f          	jal	s2,34754 <_start-0x801cb8ac>
 302:	5452                	lw	s0,52(sp)
 304:	6d5f 7200 6e69      	0x6e6972006d5f
 30a:	66756267          	0x66756267
 30e:	633c                	ld	a5,64(a4)
 310:	6168                	ld	a0,192(a0)
 312:	2c72                	fld	fs8,280(sp)
 314:	3120                	fld	fs0,96(a0)
 316:	3832                	fld	fa6,296(sp)
 318:	003e                	c.slli	zero,0xf
 31a:	6365                	lui	t1,0x19
 31c:	6c61                	lui	s8,0x18
 31e:	496c                	lw	a1,84(a0)
 320:	0064                	addi	s1,sp,12
 322:	5a5f 334e 7363      	0x7363334e5a5f
 328:	3672                	fld	fa2,312(sp)
 32a:	636d                	lui	t1,0x1b
 32c:	7561                	lui	a0,0xffff8
 32e:	31316573          	csrrsi	a0,0x313,2
 332:	7369                	lui	t1,0xffffa
 334:	6e49                	lui	t3,0x12
 336:	6574                	ld	a3,200(a0)
 338:	7272                	ld	tp,312(sp)
 33a:	7075                	c.lui	zero,0xffffd
 33c:	4574                	lw	a3,76(a0)
 33e:	006d                	c.nop	27
 340:	7270                	ld	a2,224(a2)
 342:	6f69                	lui	t5,0x1a
 344:	6972                	ld	s2,280(sp)
 346:	7974                	ld	a3,240(a0)
 348:	5f00                	lw	s0,56(a4)
 34a:	4e5a                	lw	t3,148(sp)
 34c:	73797333          	0x73797333
 350:	6e6f6337          	lui	t1,0x6e6f6
 354:	6574                	ld	a3,200(a0)
 356:	7478                	ld	a4,232(s0)
 358:	7831                	lui	a6,0xfffec
 35a:	6945                	lui	s2,0x11
 35c:	7500                	ld	s0,40(a0)
 35e:	6365                	lui	t1,0x19
 360:	6c61                	lui	s8,0x18
 362:	486c                	lw	a1,84(s0)
 364:	6e61                	lui	t3,0x18
 366:	6c64                	ld	s1,216(s0)
 368:	7265                	lui	tp,0xffff9
 36a:	6200                	ld	s0,0(a2)
 36c:	006c6f6f          	jal	t5,c6372 <_start-0x80139c8e>
 370:	625f 6f6c 6b63      	0x6b636f6c625f
 376:	6e69                	lui	t3,0x1a
 378:	74757067          	0x74757067
 37c:	75700073          	0x75700073
 380:	6374                	ld	a3,192(a4)
 382:	6400                	ld	s0,8(s0)
 384:	6365                	lui	t1,0x19
 386:	746c                	ld	a1,232(s0)
 388:	7079                	c.lui	zero,0xffffe
 38a:	2865                	addiw	a6,a6,25
 38c:	756e                	ld	a0,248(sp)
 38e:	6c6c                	ld	a1,216(s0)
 390:	7470                	ld	a2,232(s0)
 392:	2972                	fld	fs2,280(sp)
 394:	6b00                	ld	s0,16(a4)
 396:	7265                	lui	tp,0xffff9
 398:	656e                	ld	a0,216(sp)
 39a:	506c                	lw	a1,100(s0)
 39c:	6761                	lui	a4,0x18
 39e:	5465                	li	s0,-7
 3a0:	6261                	lui	tp,0x18
 3a2:	656c                	ld	a1,200(a0)
 3a4:	6f52                	ld	t5,272(sp)
 3a6:	6150746f          	jal	s0,81ba <_start-0x801f7e46>
 3aa:	73006567          	0x73006567
 3ae:	6365                	lui	t1,0x19
 3b0:	6c61                	lui	s8,0x18
 3b2:	006c                	addi	a1,sp,12
 3b4:	7070                	ld	a2,224(s0)
 3b6:	306e                	fld	ft0,248(sp)
 3b8:	7000                	ld	s0,32(s0)
 3ba:	6e70                	ld	a2,216(a2)
 3bc:	0031                	c.nop	12
 3be:	7070                	ld	a2,224(s0)
 3c0:	326e                	fld	ft4,248(sp)
 3c2:	5f00                	lw	s0,56(a4)
 3c4:	665f 726f 725f      	0x725f726f665f
 3ca:	6e61                	lui	t3,0x18
 3cc:	62006567          	0x62006567
 3d0:	7361                	lui	t1,0xffff8
 3d2:	0065                	c.nop	25
 3d4:	7872                	ld	a6,312(sp)
 3d6:	656e                	ld	a0,216(sp)
 3d8:	706d                	c.lui	zero,0xffffb
 3da:	7500                	ld	s0,40(a0)
 3dc:	756e                	ld	a0,248(sp)
 3de:	00646573          	csrrsi	a0,0x6,8
 3e2:	6174                	ld	a3,192(a0)
 3e4:	6c69                	lui	s8,0x1a
 3e6:	6300                	ld	s0,0(a4)
 3e8:	696c                	ld	a1,208(a0)
 3ea:	746e                	ld	s0,248(sp)
 3ec:	6c00                	ld	s0,24(s0)
 3ee:	20676e6f          	jal	t3,765f4 <_start-0x80189a0c>
 3f2:	6f64                	ld	s1,216(a4)
 3f4:	6275                	lui	tp,0x1d
 3f6:	656c                	ld	a1,200(a0)
 3f8:	6600                	ld	s0,8(a2)
 3fa:	6c75                	lui	s8,0x1d
 3fc:	006c                	addi	a1,sp,12
 3fe:	746d                	lui	s0,0xffffb
 400:	6569                	lui	a0,0x1a
 402:	6d00                	ld	s0,24(a0)
 404:	696d                	lui	s2,0x1b
 406:	6f6c3c6f          	jal	s8,c3afc <_start-0x8013c504>
 40a:	676e                	ld	a4,216(sp)
 40c:	7520                	ld	s0,104(a0)
 40e:	736e                	ld	t1,248(sp)
 410:	6769                	lui	a4,0x1a
 412:	656e                	ld	a0,216(sp)
 414:	2064                	fld	fs1,192(s0)
 416:	6e69                	lui	t3,0x1a
 418:	3e74                	fld	fa3,248(a2)
 41a:	6500                	ld	s0,8(a0)
 41c:	6c6c6163          	bltu	s8,t1,ade <_start-0x801ff522>
 420:	6c700073          	0x6c700073
 424:	7461                	lui	s0,0xffff8
 426:	6f66                	ld	t5,88(sp)
 428:	6d72                	ld	s10,280(sp)
 42a:	5f00                	lw	s0,56(a4)
 42c:	4e5a                	lw	t3,148(sp)
 42e:	6e697237          	lui	tp,0x6e697
 432:	66756267          	0x66756267
 436:	6349                	lui	t1,0x12
 438:	6d4c                	ld	a1,152(a0)
 43a:	3231                	addiw	tp,tp,-20
 43c:	4538                	lw	a4,72(a0)
 43e:	3445                	addiw	s0,s0,-15
 440:	656e                	ld	a0,216(sp)
 442:	7478                	ld	a4,232(s0)
 444:	6d45                	lui	s10,0x11
 446:	7800                	ld	s0,48(s0)
 448:	6974                	ld	a3,208(a0)
 44a:	0065                	c.nop	25
 44c:	6974                	ld	a3,208(a0)
 44e:	656d                	lui	a0,0x1b
 450:	4972                	lw	s2,28(sp)
 452:	746e                	ld	s0,248(sp)
 454:	7265                	lui	tp,0xffff9
 456:	7572                	ld	a0,312(sp)
 458:	7470                	ld	a2,232(s0)
 45a:	6148                	ld	a0,128(a0)
 45c:	646e                	ld	s0,216(sp)
 45e:	656c                	ld	a1,200(a0)
 460:	0072                	c.slli	zero,0x1c
 462:	6c70                	ld	a2,216(s0)
 464:	6369                	lui	t1,0x1a
 466:	5f00                	lw	s0,56(a4)
 468:	345a                	fld	fs0,432(sp)
 46a:	6f6e                	ld	t5,216(sp)
 46c:	656e                	ld	a0,216(sp)
 46e:	0076                	c.slli	zero,0x1d
 470:	6874                	ld	a3,208(s0)
 472:	6572                	ld	a0,280(sp)
 474:	6c6f6873          	csrrsi	a6,0x6c6,30
 478:	0064                	addi	s1,sp,12
 47a:	6e75                	lui	t3,0x1d
 47c:	6e676973          	csrrsi	s2,0x6e6,14
 480:	6465                	lui	s0,0x19
 482:	6320                	ld	s0,64(a4)
 484:	6168                	ld	a0,192(a0)
 486:	0072                	c.slli	zero,0x1c
 488:	6575                	lui	a0,0x1d
 48a:	6569                	lui	a0,0x1a
 48c:	5f00                	lw	s0,56(a4)
 48e:	325a                	fld	ft4,432(sp)
 490:	7431                	lui	s0,0xfffec
 492:	6d69                	lui	s10,0x1a
 494:	7265                	lui	tp,0xffff9
 496:	6e49                	lui	t3,0x12
 498:	6574                	ld	a3,200(a0)
 49a:	7272                	ld	tp,312(sp)
 49c:	7075                	c.lui	zero,0xffffd
 49e:	4874                	lw	a3,84(s0)
 4a0:	6e61                	lui	t3,0x18
 4a2:	6c64                	ld	s1,216(s0)
 4a4:	7265                	lui	tp,0xffff9
 4a6:	0076                	c.slli	zero,0x1d
 4a8:	7075                	c.lui	zero,0xffffd
 4aa:	6569                	lui	a0,0x1a
 4ac:	6800                	ld	s0,16(s0)
 4ae:	5f6b6f6f          	jal	t5,b6aa4 <_start-0x8014955c>
 4b2:	0074                	addi	a3,sp,12
 4b4:	6f68                	ld	a0,216(a4)
 4b6:	6d006b6f          	jal	s6,6b86 <_start-0x801f947a>
 4ba:	696d                	lui	s2,0x1b
 4bc:	6f6c3c6f          	jal	s8,c3bb2 <_start-0x8013c44e>
 4c0:	676e                	ld	a4,216(sp)
 4c2:	7520                	ld	s0,104(a0)
 4c4:	736e                	ld	t1,248(sp)
 4c6:	6769                	lui	a4,0x1a
 4c8:	656e                	ld	a0,216(sp)
 4ca:	2064                	fld	fs1,192(s0)
 4cc:	6e69                	lui	t3,0x1a
 4ce:	2074                	fld	fa3,192(s0)
 4d0:	6f76                	ld	t5,344(sp)
 4d2:	616c                	ld	a1,192(a0)
 4d4:	6974                	ld	a3,208(a0)
 4d6:	656c                	ld	a1,200(a0)
 4d8:	003e                	c.slli	zero,0xf
 4da:	736d                	lui	t1,0xffffb
 4dc:	6569                	lui	a0,0x1a
 4de:	6200                	ld	s0,0(a2)
 4e0:	6f6c                	ld	a1,216(a4)
 4e2:	6e696b63          	bltu	s2,t1,bd8 <_start-0x801ff428>
 4e6:	61680067          	jr	1558(a6) # fffffffffffec616 <_ZL7out_buf+0xffffffff7fde24c6>
 4ea:	7472                	ld	s0,312(sp)
 4ec:	7300                	ld	s0,32(a4)
 4ee:	73756163          	bltu	a0,s7,c10 <_start-0x801ff3f0>
 4f2:	0065                	c.nop	25
 4f4:	6568                	ld	a0,200(a0)
 4f6:	6461                	lui	s0,0x18
 4f8:	7200                	ld	s0,32(a2)
 4fa:	6765                	lui	a4,0x19
 4fc:	746d0073          	0x746d0073
 500:	6d69                	lui	s10,0x1a
 502:	0065                	c.nop	25
 504:	6f6d                	lui	t5,0x1b
 506:	6564                	ld	s1,200(a0)
 508:	5f00                	lw	s0,56(a4)
 50a:	7372                	ld	t1,312(sp)
 50c:	5a5f0077          	0x5a5f0077
 510:	334e                	fld	ft6,240(sp)
 512:	34727363          	bgeu	tp,t2,858 <_start-0x801ff7a8>
 516:	70746173          	csrrsi	sp,0x707,8
 51a:	7635                	lui	a2,0xfffed
 51c:	6c61                	lui	s8,0x18
 51e:	6575                	lui	a0,0x1d
 520:	7645                	lui	a2,0xffff1
 522:	6800                	ld	s0,16(s0)
 524:	6965                	lui	s2,0x19
 526:	0065                	c.nop	25
 528:	63706573          	csrrsi	a0,0x637,0
 52c:	6800                	ld	s0,16(s0)
 52e:	6970                	ld	a2,208(a0)
 530:	0065                	c.nop	25
 532:	5a5f 324e 4f49      	0x4f49324e5a5f
 538:	3331                	addiw	t1,t1,-20
 53a:	625f 6f6c 6b63      	0x6b636f6c625f
 540:	6e69                	lui	t3,0x1a
 542:	74757067          	0x74757067
 546:	4b504573          	0x4b504573
 54a:	5a5f0063          	beq	t5,t0,aea <_start-0x801ff516>
 54e:	3331                	addiw	t1,t1,-20
 550:	6575                	lui	a0,0x1d
 552:	6c6c6163          	bltu	s8,t1,c14 <_start-0x801ff3ec>
 556:	6148                	ld	a0,128(a0)
 558:	646e                	ld	s0,216(sp)
 55a:	656c                	ld	a1,200(a0)
 55c:	7672                	ld	a2,312(sp)
 55e:	7800                	ld	s0,48(s0)
 560:	656c                	ld	a1,200(a0)
 562:	5f6e                	lw	t5,248(sp)
 564:	0074                	addi	a3,sp,12
 566:	746d                	lui	s0,0xffffb
 568:	6d69                	lui	s10,0x1a
 56a:	6365                	lui	t1,0x19
 56c:	706d                	c.lui	zero,0xffffb
 56e:	6d00                	ld	s0,24(a0)
 570:	74617473          	csrrci	s0,0x746,2
 574:	7375                	lui	t1,0xffffd
 576:	5000                	lw	s0,32(s0)
 578:	6761                	lui	a4,0x18
 57a:	5465                	li	s0,-7
 57c:	6261                	lui	tp,0x18
 57e:	656c                	ld	a1,200(a0)
 580:	6e45                	lui	t3,0x11
 582:	7274                	ld	a3,224(a2)
 584:	0079                	c.nop	30
 586:	6f68                	ld	a0,216(a4)
 588:	00736b6f          	jal	s6,36d8e <_start-0x801c9272>
 58c:	6d6d                	lui	s10,0x1b
 58e:	6f69                	lui	t5,0x1a
 590:	703c                	ld	a5,96(s0)
 592:	616c                	ld	a1,192(a0)
 594:	6674                	ld	a3,200(a2)
 596:	3a6d726f          	jal	tp,d793c <_start-0x801286c4>
 59a:	753a                	ld	a0,424(sp)
 59c:	7261                	lui	tp,0xffff8
 59e:	3074                	fld	fa3,224(s0)
 5a0:	3a3a                	fld	fs4,424(sp)
 5a2:	736c                	ld	a1,224(a4)
 5a4:	3e72                	fld	ft8,312(sp)
 5a6:	5f00                	lw	s0,56(a4)
 5a8:	6f6e                	ld	t5,216(sp)
 5aa:	626e                	ld	tp,216(sp)
 5ac:	6f6c                	ld	a1,216(a4)
 5ae:	6e696b63          	bltu	s2,t1,ca4 <_start-0x801ff35c>
 5b2:	74757067          	0x74757067
 5b6:	74730073          	0x74730073
 5ba:	6172                	ld	sp,280(sp)
 5bc:	7770                	ld	a2,232(a4)
 5be:	6172                	ld	sp,280(sp)
 5c0:	7070                	ld	a2,224(s0)
 5c2:	7265                	lui	tp,0xffff9
 5c4:	5f00                	lw	s0,56(a4)
 5c6:	4e5a                	lw	t3,148(sp)
 5c8:	6e697237          	lui	tp,0x6e697
 5cc:	66756267          	0x66756267
 5d0:	6349                	lui	t1,0x12
 5d2:	6d4c                	ld	a1,152(a0)
 5d4:	3231                	addiw	tp,tp,-20
 5d6:	4538                	lw	a4,72(a0)
 5d8:	3445                	addiw	s0,s0,-15
 5da:	7566                	ld	a0,120(sp)
 5dc:	6c6c                	ld	a1,216(s0)
 5de:	7645                	lui	a2,0xffff1
 5e0:	7300                	ld	s0,32(a4)
 5e2:	6965                	lui	s2,0x19
 5e4:	0065                	c.nop	25
 5e6:	65697073          	csrci	0x656,18
 5ea:	7300                	ld	s0,32(a4)
 5ec:	7274                	ld	a3,224(a2)
 5ee:	7061                	c.lui	zero,0xffff8
 5f0:	6168                	ld	a0,192(a0)
 5f2:	646e                	ld	s0,216(sp)
 5f4:	656c                	ld	a1,200(a0)
 5f6:	0072                	c.slli	zero,0x1c
 5f8:	6975                	lui	s2,0x1d
 5fa:	746e                	ld	s0,248(sp)
 5fc:	5f38                	lw	a4,120(a4)
 5fe:	0074                	addi	a3,sp,12
 600:	63737973          	csrrci	s2,0x637,6
 604:	6c61                	lui	s8,0x18
 606:	506c                	lw	a1,100(s0)
 608:	7274                	ld	a3,224(a2)
 60a:	75620073          	0x75620073
 60e:	6666                	ld	a2,88(sp)
 610:	657a6973          	csrrsi	s2,0x657,20
 614:	6800                	ld	s0,16(s0)
 616:	6c61                	lui	s8,0x18
 618:	0074                	addi	a3,sp,12
 61a:	5a5f 384e 6c70      	0x6c70384e5a5f
 620:	7461                	lui	s0,0xffff8
 622:	6f66                	ld	t5,88(sp)
 624:	6d72                	ld	s10,280(sp)
 626:	7535                	lui	a0,0xfffed
 628:	7261                	lui	tp,0xffff8
 62a:	3074                	fld	fa3,224(s0)
 62c:	6238                	ld	a4,64(a2)
 62e:	6f6c                	ld	a1,216(a4)
 630:	6e696b63          	bltu	s2,t1,d26 <_start-0x801ff2da>
 634:	75703467          	0x75703467
 638:	6374                	ld	a3,192(a4)
 63a:	6345                	lui	t1,0x11
 63c:	7500                	ld	s0,40(a0)
 63e:	6974                	ld	a3,208(a0)
 640:	0065                	c.nop	25
 642:	5a5f 374e 6972      	0x6972374e5a5f
 648:	676e                	ld	a4,216(sp)
 64a:	7562                	ld	a0,56(sp)
 64c:	4966                	lw	s2,88(sp)
 64e:	316d4c63          	blt	s10,s6,966 <_start-0x801ff69a>
 652:	3832                	fld	fa6,296(sp)
 654:	4545                	li	a0,17
 656:	706f7033          	0x706f7033
 65a:	7645                	lui	a2,0xffff1
 65c:	7800                	ld	s0,48(s0)
 65e:	00656973          	csrrsi	s2,0x6,10
 662:	5a5f 6d34 696d      	0x696d6d345a5f
 668:	384e496f          	jal	s2,e49ec <_start-0x8011b614>
 66c:	6c70                	ld	a2,216(s0)
 66e:	7461                	lui	s0,0xffff8
 670:	6f66                	ld	t5,88(sp)
 672:	6d72                	ld	s10,280(sp)
 674:	7535                	lui	a0,0xfffed
 676:	7261                	lui	tp,0xffff8
 678:	3074                	fld	fa3,224(s0)
 67a:	72736c33          	0x72736c33
 67e:	4545                	li	a0,17
 680:	5452                	lw	s0,52(sp)
 682:	6d5f 6e00 6e6f      	0x6e6f6e006d5f
 688:	0065                	c.nop	25
 68a:	5a5f 334e 6273      	0x6273334e5a5f
 690:	3969                	addiw	s2,s2,-6
 692:	6572                	ld	a0,280(sp)
 694:	58746573          	csrrsi	a0,0x587,8
 698:	4954                	lw	a3,20(a0)
 69a:	4545                	li	a0,17
 69c:	0076                	c.slli	zero,0x1d
 69e:	6d6d                	lui	s10,0x1b
 6a0:	6f69                	lui	t5,0x1a
 6a2:	633c                	ld	a5,64(a4)
 6a4:	6168                	ld	a0,192(a0)
 6a6:	3e72                	fld	ft8,312(sp)
 6a8:	5f00                	lw	s0,56(a4)
 6aa:	4e5a                	lw	t3,148(sp)
 6ac:	6e697237          	lui	tp,0x6e697
 6b0:	66756267          	0x66756267
 6b4:	6349                	lui	t1,0x12
 6b6:	6d4c                	ld	a1,152(a0)
 6b8:	3231                	addiw	tp,tp,-20
 6ba:	4538                	lw	a4,72(a0)
 6bc:	3345                	addiw	t1,t1,-15
 6be:	7570                	ld	a2,232(a0)
 6c0:	4574                	lw	a3,76(a0)
 6c2:	73690063          	beq	s2,s6,de2 <_start-0x801ff21e>
 6c6:	6e49                	lui	t3,0x12
 6c8:	6574                	ld	a3,200(a0)
 6ca:	7272                	ld	tp,312(sp)
 6cc:	7075                	c.lui	zero,0xffffd
 6ce:	0074                	addi	a3,sp,12
 6d0:	7361                	lui	t1,0xffff8
 6d2:	6469                	lui	s0,0x1a
 6d4:	7000                	ld	s0,32(s0)
 6d6:	6f72                	ld	t5,280(sp)
 6d8:	6d617267          	0x6d617267
 6dc:	0031                	c.nop	12
 6de:	5a5f 7038 6f72      	0x6f7270385a5f
 6e4:	6d617267          	0x6d617267
 6e8:	7630                	ld	a2,104(a2)
 6ea:	5f00                	lw	s0,56(a4)
 6ec:	4e5a                	lw	t3,148(sp)
 6ee:	73797333          	0x73797333
 6f2:	73797337          	lui	t1,0x73797
 6f6:	6c6c6163          	bltu	s8,t1,db8 <_start-0x801ff248>
 6fa:	6945                	lui	s2,0x11
 6fc:	7300                	ld	s0,32(a4)
 6fe:	7379                	lui	t1,0xffffe
 700:	6c6c6163          	bltu	s8,t1,dc2 <_start-0x801ff23e>
 704:	7500                	ld	s0,40(a0)
 706:	2e726573          	csrrsi	a0,0x2e7,4
 70a:	5f006363          	bltu	zero,a6,cf0 <_start-0x801ff310>
 70e:	385a                	fld	fa6,432(sp)
 710:	7270                	ld	a2,224(a2)
 712:	6172676f          	jal	a4,27528 <_start-0x801d8ad8>
 716:	316d                	addiw	sp,sp,-5
 718:	0076                	c.slli	zero,0x1d
 71a:	7270                	ld	a2,224(a2)
 71c:	6172676f          	jal	a4,27532 <_start-0x801d8ace>
 720:	306d                	0x306d
 722:	2e00                	fld	fs0,24(a2)
 724:	2f2e                	fld	ft10,200(sp)
 726:	62696c6b          	0x62696c6b
 72a:	632e                	ld	t1,200(sp)
 72c:	61700063          	beq	zero,s7,d2c <_start-0x801ff2d4>
 730:	696e                	ld	s2,216(sp)
 732:	65680063          	beq	a6,s6,d72 <_start-0x801ff28e>
 736:	6478                	ld	a4,200(s0)
 738:	6769                	lui	a4,0x1a
 73a:	7469                	lui	s0,0xffffa
 73c:	765f0073          	0x765f0073
 740:	72706e73          	csrrsi	t3,0x727,0
 744:	6e69                	lui	t3,0x1a
 746:	6674                	ld	a3,200(a2)
 748:	6c00                	ld	s0,24(s0)
 74a:	61676e6f          	jal	t3,76d60 <_start-0x801892a0>
 74e:	6772                	ld	a4,280(sp)
 750:	6f00                	ld	s0,24(a4)
 752:	7475                	lui	s0,0xffffd
 754:	625f 6675 5f00      	0x5f006675625f
 75a:	625f 6975 746c      	0x746c6975625f
 760:	6e69                	lui	t3,0x1a
 762:	765f 5f61 696c      	0x696c5f61765f
 768:	5f007473          	csrrci	s0,0x5f0,0
 76c:	675f 756e 5f63      	0x5f63756e675f
 772:	6176                	ld	sp,344(sp)
 774:	6c5f 7369 0074      	0x7473696c5f
 77a:	765f 7270 6e69      	0x6e697270765f
 780:	6674                	ld	a3,200(a2)
 782:	6600                	ld	s0,8(a2)
 784:	616d726f          	jal	tp,d7d9a <_start-0x80128266>
 788:	0074                	addi	a3,sp,12

Disassembly of section .debug_loc:

0000000000000000 <.debug_loc>:
   0:	03c4                	addi	s1,sp,452
   2:	8020                	0x8020
   4:	0000                	unimp
   6:	0000                	unimp
   8:	03d4                	addi	a3,sp,452
   a:	8020                	0x8020
   c:	0000                	unimp
   e:	0000                	unimp
  10:	0002                	c.slli64	zero
  12:	9f30                	0x9f30
  14:	03d4                	addi	a3,sp,452
  16:	8020                	0x8020
  18:	0000                	unimp
  1a:	0000                	unimp
  1c:	03e0                	addi	s0,sp,460
  1e:	8020                	0x8020
  20:	0000                	unimp
  22:	0000                	unimp
  24:	0001                	nop
  26:	0058                	addi	a4,sp,4
	...
  34:	0000                	unimp
  36:	8800                	0x8800
  38:	00802003          	lw	zero,8(zero) # 8 <_start-0x801ffff8>
  3c:	0000                	unimp
  3e:	a400                	fsd	fs0,8(s0)
  40:	00802003          	lw	zero,8(zero) # 8 <_start-0x801ffff8>
  44:	0000                	unimp
  46:	0100                	addi	s0,sp,128
  48:	5800                	lw	s0,48(s0)
	...
  5a:	0380                	addi	s0,sp,448
  5c:	8020                	0x8020
  5e:	0000                	unimp
  60:	0000                	unimp
  62:	0388                	addi	a0,sp,448
  64:	8020                	0x8020
  66:	0000                	unimp
  68:	0000                	unimp
  6a:	0002                	c.slli64	zero
  6c:	9f31                	addw	a4,a4,a2
	...
  7e:	0130                	addi	a2,sp,136
  80:	8020                	0x8020
  82:	0000                	unimp
  84:	0000                	unimp
  86:	015c                	addi	a5,sp,132
  88:	8020                	0x8020
  8a:	0000                	unimp
  8c:	0000                	unimp
  8e:	0001                	nop
  90:	5c58                	lw	a4,60(s0)
  92:	2001                	0x2001
  94:	0080                	addi	s0,sp,64
  96:	0000                	unimp
  98:	6800                	ld	s0,16(s0)
  9a:	2001                	0x2001
  9c:	0080                	addi	s0,sp,64
  9e:	0000                	unimp
  a0:	0300                	addi	s0,sp,384
  a2:	7800                	ld	s0,48(s0)
  a4:	9f7c                	0x9f7c
  a6:	0170                	addi	a2,sp,140
  a8:	8020                	0x8020
  aa:	0000                	unimp
  ac:	0000                	unimp
  ae:	0184                	addi	s1,sp,192
  b0:	8020                	0x8020
  b2:	0000                	unimp
  b4:	0000                	unimp
  b6:	0001                	nop
  b8:	9058                	0x9058
  ba:	2001                	0x2001
  bc:	0080                	addi	s0,sp,64
  be:	0000                	unimp
  c0:	9800                	0x9800
  c2:	2001                	0x2001
  c4:	0080                	addi	s0,sp,64
  c6:	0000                	unimp
  c8:	0100                	addi	s0,sp,128
  ca:	5800                	lw	s0,48(s0)
  cc:	0198                	addi	a4,sp,192
  ce:	8020                	0x8020
  d0:	0000                	unimp
  d2:	0000                	unimp
  d4:	01a4                	addi	s1,sp,200
  d6:	8020                	0x8020
  d8:	0000                	unimp
  da:	0000                	unimp
  dc:	7c780003          	lb	zero,1991(a6)
  e0:	ac9f 2001 0080      	0x802001ac9f
  e6:	0000                	unimp
  e8:	b000                	fsd	fs0,32(s0)
  ea:	2001                	0x2001
  ec:	0080                	addi	s0,sp,64
  ee:	0000                	unimp
  f0:	0100                	addi	s0,sp,128
  f2:	5800                	lw	s0,48(s0)
	...
 104:	0134                	addi	a3,sp,136
 106:	8020                	0x8020
 108:	0000                	unimp
 10a:	0000                	unimp
 10c:	80200153          	0x80200153
 110:	0000                	unimp
 112:	0000                	unimp
 114:	0001                	nop
 116:	705f 2001 0080      	0x802001705f
 11c:	0000                	unimp
 11e:	7400                	ld	s0,40(s0)
 120:	2001                	0x2001
 122:	0080                	addi	s0,sp,64
 124:	0000                	unimp
 126:	0100                	addi	s0,sp,128
 128:	5f00                	lw	s0,56(a4)
 12a:	0190                	addi	a2,sp,192
 12c:	8020                	0x8020
 12e:	0000                	unimp
 130:	0000                	unimp
 132:	80200193          	li	gp,-2046
 136:	0000                	unimp
 138:	0000                	unimp
 13a:	0001                	nop
 13c:	005f 0000 0000      	0x5f
	...
 14a:	0000                	unimp
 14c:	2400                	fld	fs0,8(s0)
 14e:	2000                	fld	fs0,0(s0)
 150:	0080                	addi	s0,sp,64
 152:	0000                	unimp
 154:	3000                	fld	fs0,32(s0)
 156:	2000                	fld	fs0,0(s0)
 158:	0080                	addi	s0,sp,64
 15a:	0000                	unimp
 15c:	0100                	addi	s0,sp,128
 15e:	5800                	lw	s0,48(s0)
 160:	0030                	addi	a2,sp,8
 162:	8020                	0x8020
 164:	0000                	unimp
 166:	0000                	unimp
 168:	0058                	addi	a4,sp,4
 16a:	8020                	0x8020
 16c:	0000                	unimp
 16e:	0000                	unimp
 170:	0001                	nop
 172:	005a                	c.slli	zero,0x16
	...
 180:	0000                	unimp
 182:	2800                	fld	fs0,16(s0)
 184:	2000                	fld	fs0,0(s0)
 186:	0080                	addi	s0,sp,64
 188:	0000                	unimp
 18a:	5f00                	lw	s0,56(a4)
 18c:	2000                	fld	fs0,0(s0)
 18e:	0080                	addi	s0,sp,64
 190:	0000                	unimp
 192:	0100                	addi	s0,sp,128
 194:	5c00                	lw	s0,56(s0)
	...
 1a6:	0048                	addi	a0,sp,4
 1a8:	8020                	0x8020
 1aa:	0000                	unimp
 1ac:	0000                	unimp
 1ae:	005f 8020 0000      	0x8020005f
 1b4:	0000                	unimp
 1b6:	0001                	nop
 1b8:	005e                	c.slli	zero,0x17
	...
 1c6:	0000                	unimp
 1c8:	4800                	lw	s0,16(s0)
 1ca:	2000                	fld	fs0,0(s0)
 1cc:	0080                	addi	s0,sp,64
 1ce:	0000                	unimp
 1d0:	8400                	0x8400
 1d2:	2000                	fld	fs0,0(s0)
 1d4:	0080                	addi	s0,sp,64
 1d6:	0000                	unimp
 1d8:	0100                	addi	s0,sp,128
 1da:	5800                	lw	s0,48(s0)
	...
 1ec:	0088                	addi	a0,sp,64
 1ee:	8020                	0x8020
 1f0:	0000                	unimp
 1f2:	0000                	unimp
 1f4:	80200093          	li	ra,-2046
 1f8:	0000                	unimp
 1fa:	0000                	unimp
 1fc:	0001                	nop
 1fe:	005f 0000 0000      	0x5f
	...
 20c:	0000                	unimp
 20e:	7400                	ld	s0,40(s0)
 210:	2000                	fld	fs0,0(s0)
 212:	0080                	addi	s0,sp,64
 214:	0000                	unimp
 216:	8400                	0x8400
 218:	2000                	fld	fs0,0(s0)
 21a:	0080                	addi	s0,sp,64
 21c:	0000                	unimp
 21e:	0a00                	addi	s0,sp,272
 220:	0300                	addi	s0,sp,384
 222:	a010                	fsd	fa2,0(s0)
 224:	8020                	0x8020
 226:	0000                	unimp
 228:	0000                	unimp
 22a:	849f 2000 0080      	0x802000849f
 230:	0000                	unimp
 232:	8c00                	0x8c00
 234:	2000                	fld	fs0,0(s0)
 236:	0080                	addi	s0,sp,64
 238:	0000                	unimp
 23a:	0100                	addi	s0,sp,128
 23c:	5800                	lw	s0,48(s0)
 23e:	008c                	addi	a1,sp,64
 240:	8020                	0x8020
 242:	0000                	unimp
 244:	0000                	unimp
 246:	0094                	addi	a3,sp,64
 248:	8020                	0x8020
 24a:	0000                	unimp
 24c:	0000                	unimp
 24e:	78780003          	lb	zero,1927(a6)
 252:	009f 0000 0000      	0x9f
	...
 260:	0000                	unimp
 262:	0c00                	addi	s0,sp,528
 264:	2000                	fld	fs0,0(s0)
 266:	0080                	addi	s0,sp,64
 268:	0000                	unimp
 26a:	2400                	fld	fs0,8(s0)
 26c:	2000                	fld	fs0,0(s0)
 26e:	0080                	addi	s0,sp,64
 270:	0000                	unimp
 272:	0200                	addi	s0,sp,256
 274:	3100                	fld	fs0,32(a0)
 276:	009f 0000 0000      	0x9f
	...
 284:	0000                	unimp
 286:	9800                	0x9800
 288:	2000                	fld	fs0,0(s0)
 28a:	0080                	addi	s0,sp,64
 28c:	0000                	unimp
 28e:	9c00                	0x9c00
 290:	2000                	fld	fs0,0(s0)
 292:	0080                	addi	s0,sp,64
 294:	0000                	unimp
 296:	0200                	addi	s0,sp,256
 298:	3200                	fld	fs0,32(a2)
 29a:	009f 0000 0000      	0x9f
	...
 2a8:	0000                	unimp
 2aa:	0800                	addi	s0,sp,16
 2ac:	2004                	fld	fs1,0(s0)
 2ae:	0080                	addi	s0,sp,64
 2b0:	0000                	unimp
 2b2:	2400                	fld	fs0,8(s0)
 2b4:	2004                	fld	fs1,0(s0)
 2b6:	0080                	addi	s0,sp,64
 2b8:	0000                	unimp
 2ba:	0100                	addi	s0,sp,128
 2bc:	5a00                	lw	s0,48(a2)
 2be:	0424                	addi	s1,sp,520
 2c0:	8020                	0x8020
 2c2:	0000                	unimp
 2c4:	0000                	unimp
 2c6:	043c                	addi	a5,sp,520
 2c8:	8020                	0x8020
 2ca:	0000                	unimp
 2cc:	0000                	unimp
 2ce:	0001                	nop
 2d0:	005a                	c.slli	zero,0x16
	...
 2de:	0000                	unimp
 2e0:	2400                	fld	fs0,8(s0)
 2e2:	2004                	fld	fs1,0(s0)
 2e4:	0080                	addi	s0,sp,64
 2e6:	0000                	unimp
 2e8:	3000                	fld	fs0,32(s0)
 2ea:	2004                	fld	fs1,0(s0)
 2ec:	0080                	addi	s0,sp,64
 2ee:	0000                	unimp
 2f0:	0100                	addi	s0,sp,128
 2f2:	5f00                	lw	s0,56(a4)
	...
 304:	043c                	addi	a5,sp,520
 306:	8020                	0x8020
 308:	0000                	unimp
 30a:	0000                	unimp
 30c:	0440                	addi	s0,sp,516
 30e:	8020                	0x8020
 310:	0000                	unimp
 312:	0000                	unimp
 314:	0002                	c.slli64	zero
 316:	9f30                	0x9f30
	...
 328:	03a4                	addi	s1,sp,456
 32a:	0000                	unimp
 32c:	0000                	unimp
 32e:	0000                	unimp
 330:	03b8                	addi	a4,sp,456
 332:	0000                	unimp
 334:	0000                	unimp
 336:	0000                	unimp
 338:	0001                	nop
 33a:	b85a                	fsd	fs6,48(sp)
 33c:	00000003          	lb	zero,0(zero) # 0 <_start-0x80200000>
 340:	0000                	unimp
 342:	d800                	sw	s0,48(s0)
 344:	00000003          	lb	zero,0(zero) # 0 <_start-0x80200000>
 348:	0000                	unimp
 34a:	0100                	addi	s0,sp,128
 34c:	5800                	lw	s0,48(s0)
	...
 35e:	02e8                	addi	a0,sp,332
 360:	0000                	unimp
 362:	0000                	unimp
 364:	0000                	unimp
 366:	0318                	addi	a4,sp,384
 368:	0000                	unimp
 36a:	0000                	unimp
 36c:	0000                	unimp
 36e:	0001                	nop
 370:	185a                	slli	a6,a6,0x36
 372:	00000003          	lb	zero,0(zero) # 0 <_start-0x80200000>
 376:	0000                	unimp
 378:	9800                	0x9800
 37a:	00000003          	lb	zero,0(zero) # 0 <_start-0x80200000>
 37e:	0000                	unimp
 380:	0100                	addi	s0,sp,128
 382:	5900                	lw	s0,48(a0)
 384:	0398                	addi	a4,sp,448
 386:	0000                	unimp
 388:	0000                	unimp
 38a:	0000                	unimp
 38c:	03a4                	addi	s1,sp,456
 38e:	0000                	unimp
 390:	0000                	unimp
 392:	0000                	unimp
 394:	0004                	0x4
 396:	9f5a01f3          	0x9f5a01f3
	...
 3aa:	02e8                	addi	a0,sp,332
 3ac:	0000                	unimp
 3ae:	0000                	unimp
 3b0:	0000                	unimp
 3b2:	0388                	addi	a0,sp,448
 3b4:	0000                	unimp
 3b6:	0000                	unimp
 3b8:	0000                	unimp
 3ba:	0002                	c.slli64	zero
 3bc:	9f30                	0x9f30
 3be:	0388                	addi	a0,sp,448
 3c0:	0000                	unimp
 3c2:	0000                	unimp
 3c4:	0000                	unimp
 3c6:	0394                	addi	a3,sp,448
 3c8:	0000                	unimp
 3ca:	0000                	unimp
 3cc:	0000                	unimp
 3ce:	0001                	nop
 3d0:	0058                	addi	a4,sp,4
	...
 3de:	0000                	unimp
 3e0:	3400                	fld	fs0,40(s0)
 3e2:	00000003          	lb	zero,0(zero) # 0 <_start-0x80200000>
 3e6:	0000                	unimp
 3e8:	3700                	fld	fs0,40(a4)
 3ea:	00000003          	lb	zero,0(zero) # 0 <_start-0x80200000>
 3ee:	0000                	unimp
 3f0:	0100                	addi	s0,sp,128
 3f2:	5d00                	lw	s0,56(a0)
 3f4:	00000337          	lui	t1,0x0
 3f8:	0000                	unimp
 3fa:	0000                	unimp
 3fc:	0388                	addi	a0,sp,448
 3fe:	0000                	unimp
 400:	0000                	unimp
 402:	0000                	unimp
 404:	0001                	nop
 406:	0062                	c.slli	zero,0x18
	...
 414:	0000                	unimp
 416:	3400                	fld	fs0,40(s0)
 418:	00000003          	lb	zero,0(zero) # 0 <_start-0x80200000>
 41c:	0000                	unimp
 41e:	8800                	0x8800
 420:	00000003          	lb	zero,0(zero) # 0 <_start-0x80200000>
 424:	0000                	unimp
 426:	0100                	addi	s0,sp,128
 428:	5900                	lw	s0,48(a0)
	...
 43a:	0338                	addi	a4,sp,392
 43c:	0000                	unimp
 43e:	0000                	unimp
 440:	0000                	unimp
 442:	034c                	addi	a1,sp,388
 444:	0000                	unimp
 446:	0000                	unimp
 448:	0000                	unimp
 44a:	0001                	nop
 44c:	5c5a                	lw	s8,180(sp)
 44e:	00000003          	lb	zero,0(zero) # 0 <_start-0x80200000>
 452:	0000                	unimp
 454:	7000                	ld	s0,32(s0)
 456:	00000003          	lb	zero,0(zero) # 0 <_start-0x80200000>
 45a:	0000                	unimp
 45c:	0100                	addi	s0,sp,128
 45e:	5a00                	lw	s0,48(a2)
	...
 478:	0030                	addi	a2,sp,8
 47a:	0000                	unimp
 47c:	0000                	unimp
 47e:	0000                	unimp
 480:	0001                	nop
 482:	305a                	fld	ft0,432(sp)
 484:	0000                	unimp
 486:	0000                	unimp
 488:	0000                	unimp
 48a:	b400                	fsd	fs0,40(s0)
 48c:	0002                	c.slli64	zero
 48e:	0000                	unimp
 490:	0000                	unimp
 492:	0100                	addi	s0,sp,128
 494:	6000                	ld	s0,0(s0)
 496:	02b4                	addi	a3,sp,328
 498:	0000                	unimp
 49a:	0000                	unimp
 49c:	0000                	unimp
 49e:	02b8                	addi	a4,sp,328
 4a0:	0000                	unimp
 4a2:	0000                	unimp
 4a4:	0000                	unimp
 4a6:	0001                	nop
 4a8:	b85a                	fsd	fs6,48(sp)
 4aa:	0002                	c.slli64	zero
 4ac:	0000                	unimp
 4ae:	0000                	unimp
 4b0:	e800                	sd	s0,16(s0)
 4b2:	0002                	c.slli64	zero
 4b4:	0000                	unimp
 4b6:	0000                	unimp
 4b8:	0100                	addi	s0,sp,128
 4ba:	6000                	ld	s0,0(s0)
	...
 4d4:	0078                	addi	a4,sp,12
 4d6:	0000                	unimp
 4d8:	0000                	unimp
 4da:	0000                	unimp
 4dc:	0001                	nop
 4de:	785c                	ld	a5,176(s0)
 4e0:	0000                	unimp
 4e2:	0000                	unimp
 4e4:	0000                	unimp
 4e6:	e800                	sd	s0,16(s0)
 4e8:	0002                	c.slli64	zero
 4ea:	0000                	unimp
 4ec:	0000                	unimp
 4ee:	0100                	addi	s0,sp,128
 4f0:	5c00                	lw	s0,56(s0)
	...
 50a:	00e0                	addi	s0,sp,76
 50c:	0000                	unimp
 50e:	0000                	unimp
 510:	0000                	unimp
 512:	0001                	nop
 514:	e05d                	bnez	s0,5ba <_start-0x801ffa46>
 516:	0000                	unimp
 518:	0000                	unimp
 51a:	0000                	unimp
 51c:	4800                	lw	s0,16(s0)
 51e:	0001                	nop
 520:	0000                	unimp
 522:	0000                	unimp
 524:	0100                	addi	s0,sp,128
 526:	6200                	ld	s0,0(a2)
 528:	0148                	addi	a0,sp,132
 52a:	0000                	unimp
 52c:	0000                	unimp
 52e:	0000                	unimp
 530:	0150                	addi	a2,sp,132
 532:	0000                	unimp
 534:	0000                	unimp
 536:	0000                	unimp
 538:	0001                	nop
 53a:	505d                	c.li	zero,-9
 53c:	0001                	nop
 53e:	0000                	unimp
 540:	0000                	unimp
 542:	5c00                	lw	s0,56(s0)
 544:	0001                	nop
 546:	0000                	unimp
 548:	0000                	unimp
 54a:	0300                	addi	s0,sp,384
 54c:	7d00                	ld	s0,56(a0)
 54e:	9f08                	0x9f08
 550:	015c                	addi	a5,sp,132
 552:	0000                	unimp
 554:	0000                	unimp
 556:	0000                	unimp
 558:	0178                	addi	a4,sp,140
 55a:	0000                	unimp
 55c:	0000                	unimp
 55e:	0000                	unimp
 560:	0001                	nop
 562:	785d                	lui	a6,0xffff7
 564:	0001                	nop
 566:	0000                	unimp
 568:	0000                	unimp
 56a:	8800                	0x8800
 56c:	0001                	nop
 56e:	0000                	unimp
 570:	0000                	unimp
 572:	0100                	addi	s0,sp,128
 574:	5f00                	lw	s0,56(a4)
 576:	0188                	addi	a0,sp,192
 578:	0000                	unimp
 57a:	0000                	unimp
 57c:	0000                	unimp
 57e:	0244                	addi	s1,sp,260
 580:	0000                	unimp
 582:	0000                	unimp
 584:	0000                	unimp
 586:	0001                	nop
 588:	445d                	li	s0,23
 58a:	0002                	c.slli64	zero
 58c:	0000                	unimp
 58e:	0000                	unimp
 590:	4800                	lw	s0,16(s0)
 592:	0002                	c.slli64	zero
 594:	0000                	unimp
 596:	0000                	unimp
 598:	0300                	addi	s0,sp,384
 59a:	7d00                	ld	s0,56(a0)
 59c:	9f08                	0x9f08
 59e:	0248                	addi	a0,sp,260
 5a0:	0000                	unimp
 5a2:	0000                	unimp
 5a4:	0000                	unimp
 5a6:	027c                	addi	a5,sp,268
 5a8:	0000                	unimp
 5aa:	0000                	unimp
 5ac:	0000                	unimp
 5ae:	0001                	nop
 5b0:	7c5d                	lui	s8,0xffff7
 5b2:	0002                	c.slli64	zero
 5b4:	0000                	unimp
 5b6:	0000                	unimp
 5b8:	8800                	0x8800
 5ba:	0002                	c.slli64	zero
 5bc:	0000                	unimp
 5be:	0000                	unimp
 5c0:	0300                	addi	s0,sp,384
 5c2:	7d00                	ld	s0,56(a0)
 5c4:	9f08                	0x9f08
 5c6:	0288                	addi	a0,sp,320
 5c8:	0000                	unimp
 5ca:	0000                	unimp
 5cc:	0000                	unimp
 5ce:	0290                	addi	a2,sp,320
 5d0:	0000                	unimp
 5d2:	0000                	unimp
 5d4:	0000                	unimp
 5d6:	0001                	nop
 5d8:	905f 0002 0000      	0x2905f
 5de:	0000                	unimp
 5e0:	9400                	0x9400
 5e2:	0002                	c.slli64	zero
 5e4:	0000                	unimp
 5e6:	0000                	unimp
 5e8:	0300                	addi	s0,sp,384
 5ea:	7d00                	ld	s0,56(a0)
 5ec:	9f08                	0x9f08
 5ee:	0294                	addi	a3,sp,320
 5f0:	0000                	unimp
 5f2:	0000                	unimp
 5f4:	0000                	unimp
 5f6:	02b4                	addi	a3,sp,328
 5f8:	0000                	unimp
 5fa:	0000                	unimp
 5fc:	0000                	unimp
 5fe:	0001                	nop
 600:	b462                	fsd	fs8,40(sp)
 602:	0002                	c.slli64	zero
 604:	0000                	unimp
 606:	0000                	unimp
 608:	e000                	sd	s0,0(s0)
 60a:	0002                	c.slli64	zero
 60c:	0000                	unimp
 60e:	0000                	unimp
 610:	0100                	addi	s0,sp,128
 612:	5d00                	lw	s0,56(a0)
 614:	02e0                	addi	s0,sp,332
 616:	0000                	unimp
 618:	0000                	unimp
 61a:	0000                	unimp
 61c:	02e8                	addi	a0,sp,332
 61e:	0000                	unimp
 620:	0000                	unimp
 622:	0000                	unimp
 624:	0001                	nop
 626:	0062                	c.slli	zero,0x18
	...
 63c:	0000                	unimp
 63e:	5400                	lw	s0,40(s0)
 640:	0000                	unimp
 642:	0000                	unimp
 644:	0000                	unimp
 646:	0200                	addi	s0,sp,256
 648:	3000                	fld	fs0,32(s0)
 64a:	549f 0000 0000      	0x549f
 650:	0000                	unimp
 652:	5800                	lw	s0,48(s0)
 654:	0000                	unimp
 656:	0000                	unimp
 658:	0000                	unimp
 65a:	0100                	addi	s0,sp,128
 65c:	5a00                	lw	s0,48(a2)
 65e:	0058                	addi	a4,sp,4
 660:	0000                	unimp
 662:	0000                	unimp
 664:	0000                	unimp
 666:	0070                	addi	a2,sp,12
 668:	0000                	unimp
 66a:	0000                	unimp
 66c:	0000                	unimp
 66e:	0002                	c.slli64	zero
 670:	9f30                	0x9f30
 672:	0070                	addi	a2,sp,12
 674:	0000                	unimp
 676:	0000                	unimp
 678:	0000                	unimp
 67a:	0080                	addi	s0,sp,64
 67c:	0000                	unimp
 67e:	0000                	unimp
 680:	0000                	unimp
 682:	0001                	nop
 684:	b05a                	fsd	fs6,32(sp)
 686:	0000                	unimp
 688:	0000                	unimp
 68a:	0000                	unimp
 68c:	f000                	sd	s0,32(s0)
 68e:	0000                	unimp
 690:	0000                	unimp
 692:	0000                	unimp
 694:	0100                	addi	s0,sp,128
 696:	5a00                	lw	s0,48(a2)
 698:	0138                	addi	a4,sp,136
 69a:	0000                	unimp
 69c:	0000                	unimp
 69e:	0000                	unimp
 6a0:	0148                	addi	a0,sp,132
 6a2:	0000                	unimp
 6a4:	0000                	unimp
 6a6:	0000                	unimp
 6a8:	0002                	c.slli64	zero
 6aa:	9f30                	0x9f30
 6ac:	0148                	addi	a0,sp,132
 6ae:	0000                	unimp
 6b0:	0000                	unimp
 6b2:	0000                	unimp
 6b4:	0154                	addi	a3,sp,132
 6b6:	0000                	unimp
 6b8:	0000                	unimp
 6ba:	0000                	unimp
 6bc:	0001                	nop
 6be:	645a                	ld	s0,400(sp)
 6c0:	0001                	nop
 6c2:	0000                	unimp
 6c4:	0000                	unimp
 6c6:	7000                	ld	s0,32(s0)
 6c8:	0001                	nop
 6ca:	0000                	unimp
 6cc:	0000                	unimp
 6ce:	0200                	addi	s0,sp,256
 6d0:	3000                	fld	fs0,32(s0)
 6d2:	709f 0001 0000      	0x1709f
 6d8:	0000                	unimp
 6da:	8000                	0x8000
 6dc:	0001                	nop
 6de:	0000                	unimp
 6e0:	0000                	unimp
 6e2:	0100                	addi	s0,sp,128
 6e4:	5a00                	lw	s0,48(a2)
 6e6:	01d4                	addi	a3,sp,196
 6e8:	0000                	unimp
 6ea:	0000                	unimp
 6ec:	0000                	unimp
 6ee:	01e0                	addi	s0,sp,204
 6f0:	0000                	unimp
 6f2:	0000                	unimp
 6f4:	0000                	unimp
 6f6:	0001                	nop
 6f8:	1c5a                	slli	s8,s8,0x36
 6fa:	0002                	c.slli64	zero
 6fc:	0000                	unimp
 6fe:	0000                	unimp
 700:	4400                	lw	s0,8(s0)
 702:	0002                	c.slli64	zero
 704:	0000                	unimp
 706:	0000                	unimp
 708:	0100                	addi	s0,sp,128
 70a:	5a00                	lw	s0,48(a2)
 70c:	0250                	addi	a2,sp,260
 70e:	0000                	unimp
 710:	0000                	unimp
 712:	0000                	unimp
 714:	0258                	addi	a4,sp,260
 716:	0000                	unimp
 718:	0000                	unimp
 71a:	0000                	unimp
 71c:	0002                	c.slli64	zero
 71e:	9f30                	0x9f30
 720:	027c                	addi	a5,sp,268
 722:	0000                	unimp
 724:	0000                	unimp
 726:	0000                	unimp
 728:	0284                	addi	s1,sp,320
 72a:	0000                	unimp
 72c:	0000                	unimp
 72e:	0000                	unimp
 730:	0001                	nop
 732:	905a                	c.add	zero,s6
 734:	0002                	c.slli64	zero
 736:	0000                	unimp
 738:	0000                	unimp
 73a:	b400                	fsd	fs0,40(s0)
 73c:	0002                	c.slli64	zero
 73e:	0000                	unimp
 740:	0000                	unimp
 742:	0100                	addi	s0,sp,128
 744:	5a00                	lw	s0,48(a2)
 746:	02b4                	addi	a3,sp,328
 748:	0000                	unimp
 74a:	0000                	unimp
 74c:	0000                	unimp
 74e:	02e0                	addi	s0,sp,332
 750:	0000                	unimp
 752:	0000                	unimp
 754:	0000                	unimp
 756:	0002                	c.slli64	zero
 758:	9f30                	0x9f30
	...
 772:	0054                	addi	a3,sp,4
 774:	0000                	unimp
 776:	0000                	unimp
 778:	0000                	unimp
 77a:	0002                	c.slli64	zero
 77c:	9f30                	0x9f30
 77e:	0054                	addi	a3,sp,4
 780:	0000                	unimp
 782:	0000                	unimp
 784:	0000                	unimp
 786:	00d4                	addi	a3,sp,68
 788:	0000                	unimp
 78a:	0000                	unimp
 78c:	0000                	unimp
 78e:	0001                	nop
 790:	d861                	beqz	s0,760 <_start-0x801ff8a0>
 792:	0000                	unimp
 794:	0000                	unimp
 796:	0000                	unimp
 798:	0800                	addi	s0,sp,16
 79a:	0001                	nop
 79c:	0000                	unimp
 79e:	0000                	unimp
 7a0:	0100                	addi	s0,sp,128
 7a2:	6100                	ld	s0,0(a0)
 7a4:	0138                	addi	a4,sp,136
 7a6:	0000                	unimp
 7a8:	0000                	unimp
 7aa:	0000                	unimp
 7ac:	0148                	addi	a0,sp,132
 7ae:	0000                	unimp
 7b0:	0000                	unimp
 7b2:	0000                	unimp
 7b4:	0002                	c.slli64	zero
 7b6:	9f30                	0x9f30
 7b8:	0148                	addi	a0,sp,132
 7ba:	0000                	unimp
 7bc:	0000                	unimp
 7be:	0000                	unimp
 7c0:	0164                	addi	s1,sp,140
 7c2:	0000                	unimp
 7c4:	0000                	unimp
 7c6:	0000                	unimp
 7c8:	0001                	nop
 7ca:	6461                	lui	s0,0x18
 7cc:	0001                	nop
 7ce:	0000                	unimp
 7d0:	0000                	unimp
 7d2:	7000                	ld	s0,32(s0)
 7d4:	0001                	nop
 7d6:	0000                	unimp
 7d8:	0000                	unimp
 7da:	0200                	addi	s0,sp,256
 7dc:	3000                	fld	fs0,32(s0)
 7de:	709f 0001 0000      	0x1709f
 7e4:	0000                	unimp
 7e6:	8800                	0x8800
 7e8:	0001                	nop
 7ea:	0000                	unimp
 7ec:	0000                	unimp
 7ee:	0100                	addi	s0,sp,128
 7f0:	6100                	ld	s0,0(a0)
 7f2:	01d4                	addi	a3,sp,196
 7f4:	0000                	unimp
 7f6:	0000                	unimp
 7f8:	0000                	unimp
 7fa:	01d8                	addi	a4,sp,196
 7fc:	0000                	unimp
 7fe:	0000                	unimp
 800:	0000                	unimp
 802:	0001                	nop
 804:	1c61                	addi	s8,s8,-8
 806:	0002                	c.slli64	zero
 808:	0000                	unimp
 80a:	0000                	unimp
 80c:	5000                	lw	s0,32(s0)
 80e:	0002                	c.slli64	zero
 810:	0000                	unimp
 812:	0000                	unimp
 814:	0200                	addi	s0,sp,256
 816:	3100                	fld	fs0,32(a0)
 818:	509f 0002 0000      	0x2509f
 81e:	0000                	unimp
 820:	b400                	fsd	fs0,40(s0)
 822:	0002                	c.slli64	zero
 824:	0000                	unimp
 826:	0000                	unimp
 828:	0100                	addi	s0,sp,128
 82a:	6100                	ld	s0,0(a0)
 82c:	02b4                	addi	a3,sp,328
 82e:	0000                	unimp
 830:	0000                	unimp
 832:	0000                	unimp
 834:	02e0                	addi	s0,sp,332
 836:	0000                	unimp
 838:	0000                	unimp
 83a:	0000                	unimp
 83c:	0002                	c.slli64	zero
 83e:	9f30                	0x9f30
 840:	02e0                	addi	s0,sp,332
 842:	0000                	unimp
 844:	0000                	unimp
 846:	0000                	unimp
 848:	02e8                	addi	a0,sp,332
 84a:	0000                	unimp
 84c:	0000                	unimp
 84e:	0000                	unimp
 850:	0001                	nop
 852:	0061                	c.nop	24
	...
 868:	0000                	unimp
 86a:	5400                	lw	s0,40(s0)
 86c:	0000                	unimp
 86e:	0000                	unimp
 870:	0000                	unimp
 872:	0200                	addi	s0,sp,256
 874:	3000                	fld	fs0,32(s0)
 876:	549f 0000 0000      	0x549f
 87c:	0000                	unimp
 87e:	9000                	0x9000
 880:	0000                	unimp
 882:	0000                	unimp
 884:	0000                	unimp
 886:	0100                	addi	s0,sp,128
 888:	5e00                	lw	s0,56(a2)
 88a:	00b0                	addi	a2,sp,72
 88c:	0000                	unimp
 88e:	0000                	unimp
 890:	0000                	unimp
 892:	0188                	addi	a0,sp,192
 894:	0000                	unimp
 896:	0000                	unimp
 898:	0000                	unimp
 89a:	0001                	nop
 89c:	885e                	mv	a6,s7
 89e:	0001                	nop
 8a0:	0000                	unimp
 8a2:	0000                	unimp
 8a4:	c000                	sw	s0,0(s0)
 8a6:	0001                	nop
 8a8:	0000                	unimp
 8aa:	0000                	unimp
 8ac:	0100                	addi	s0,sp,128
 8ae:	5a00                	lw	s0,48(a2)
 8b0:	01c8                	addi	a0,sp,196
 8b2:	0000                	unimp
 8b4:	0000                	unimp
 8b6:	0000                	unimp
 8b8:	01d4                	addi	a3,sp,196
 8ba:	0000                	unimp
 8bc:	0000                	unimp
 8be:	0000                	unimp
 8c0:	0001                	nop
 8c2:	d45a                	sw	s6,40(sp)
 8c4:	0001                	nop
 8c6:	0000                	unimp
 8c8:	0000                	unimp
 8ca:	e800                	sd	s0,16(s0)
 8cc:	0001                	nop
 8ce:	0000                	unimp
 8d0:	0000                	unimp
 8d2:	0100                	addi	s0,sp,128
 8d4:	5e00                	lw	s0,56(a2)
 8d6:	01e8                	addi	a0,sp,204
 8d8:	0000                	unimp
 8da:	0000                	unimp
 8dc:	0000                	unimp
 8de:	0210                	addi	a2,sp,256
 8e0:	0000                	unimp
 8e2:	0000                	unimp
 8e4:	0000                	unimp
 8e6:	0001                	nop
 8e8:	1c5f 0002 0000      	0x21c5f
 8ee:	0000                	unimp
 8f0:	3000                	fld	fs0,32(s0)
 8f2:	0002                	c.slli64	zero
 8f4:	0000                	unimp
 8f6:	0000                	unimp
 8f8:	0100                	addi	s0,sp,128
 8fa:	5e00                	lw	s0,56(a2)
 8fc:	0230                	addi	a2,sp,264
 8fe:	0000                	unimp
 900:	0000                	unimp
 902:	0000                	unimp
 904:	0238                	addi	a4,sp,264
 906:	0000                	unimp
 908:	0000                	unimp
 90a:	0000                	unimp
 90c:	0001                	nop
 90e:	385f 0002 0000      	0x2385f
 914:	0000                	unimp
 916:	3c00                	fld	fs0,56(s0)
 918:	0002                	c.slli64	zero
 91a:	0000                	unimp
 91c:	0000                	unimp
 91e:	0300                	addi	s0,sp,384
 920:	7e00                	ld	s0,56(a2)
 922:	9f01                	subw	a4,a4,s0
 924:	0244                	addi	s1,sp,260
 926:	0000                	unimp
 928:	0000                	unimp
 92a:	0000                	unimp
 92c:	0250                	addi	a2,sp,260
 92e:	0000                	unimp
 930:	0000                	unimp
 932:	0000                	unimp
 934:	0001                	nop
 936:	505a                	0x505a
 938:	0002                	c.slli64	zero
 93a:	0000                	unimp
 93c:	0000                	unimp
 93e:	5c00                	lw	s0,56(s0)
 940:	0002                	c.slli64	zero
 942:	0000                	unimp
 944:	0000                	unimp
 946:	0100                	addi	s0,sp,128
 948:	5e00                	lw	s0,56(a2)
 94a:	027c                	addi	a5,sp,268
 94c:	0000                	unimp
 94e:	0000                	unimp
 950:	0000                	unimp
 952:	028c                	addi	a1,sp,320
 954:	0000                	unimp
 956:	0000                	unimp
 958:	0000                	unimp
 95a:	0001                	nop
 95c:	8c5e                	mv	s8,s7
 95e:	0002                	c.slli64	zero
 960:	0000                	unimp
 962:	0000                	unimp
 964:	9000                	0x9000
 966:	0002                	c.slli64	zero
 968:	0000                	unimp
 96a:	0000                	unimp
 96c:	0100                	addi	s0,sp,128
 96e:	5a00                	lw	s0,48(a2)
 970:	0290                	addi	a2,sp,320
 972:	0000                	unimp
 974:	0000                	unimp
 976:	0000                	unimp
 978:	02b4                	addi	a3,sp,328
 97a:	0000                	unimp
 97c:	0000                	unimp
 97e:	0000                	unimp
 980:	0001                	nop
 982:	b45e                	fsd	fs7,40(sp)
 984:	0002                	c.slli64	zero
 986:	0000                	unimp
 988:	0000                	unimp
 98a:	e000                	sd	s0,0(s0)
 98c:	0002                	c.slli64	zero
 98e:	0000                	unimp
 990:	0000                	unimp
 992:	0200                	addi	s0,sp,256
 994:	3000                	fld	fs0,32(s0)
 996:	e09f 0002 0000      	0x2e09f
 99c:	0000                	unimp
 99e:	e800                	sd	s0,16(s0)
 9a0:	0002                	c.slli64	zero
 9a2:	0000                	unimp
 9a4:	0000                	unimp
 9a6:	0100                	addi	s0,sp,128
 9a8:	5e00                	lw	s0,56(a2)
	...
 9ba:	017c                	addi	a5,sp,140
 9bc:	0000                	unimp
 9be:	0000                	unimp
 9c0:	0000                	unimp
 9c2:	0188                	addi	a0,sp,192
 9c4:	0000                	unimp
 9c6:	0000                	unimp
 9c8:	0000                	unimp
 9ca:	0001                	nop
 9cc:	0064                	addi	s1,sp,12
	...
 9da:	0000                	unimp
 9dc:	e400                	sd	s0,8(s0)
 9de:	0000                	unimp
 9e0:	0000                	unimp
 9e2:	0000                	unimp
 9e4:	3c00                	fld	fs0,56(s0)
 9e6:	0001                	nop
 9e8:	0000                	unimp
 9ea:	0000                	unimp
 9ec:	0100                	addi	s0,sp,128
 9ee:	5d00                	lw	s0,56(a0)
 9f0:	0294                	addi	a3,sp,320
 9f2:	0000                	unimp
 9f4:	0000                	unimp
 9f6:	0000                	unimp
 9f8:	02b4                	addi	a3,sp,328
 9fa:	0000                	unimp
 9fc:	0000                	unimp
 9fe:	0000                	unimp
 a00:	0001                	nop
 a02:	e05d                	bnez	s0,aa8 <_start-0x801ff558>
 a04:	0002                	c.slli64	zero
 a06:	0000                	unimp
 a08:	0000                	unimp
 a0a:	e400                	sd	s0,8(s0)
 a0c:	0002                	c.slli64	zero
 a0e:	0000                	unimp
 a10:	0000                	unimp
 a12:	0100                	addi	s0,sp,128
 a14:	5d00                	lw	s0,56(a0)
	...
 a26:	00e8                	addi	a0,sp,76
 a28:	0000                	unimp
 a2a:	0000                	unimp
 a2c:	0000                	unimp
 a2e:	00f4                	addi	a3,sp,76
 a30:	0000                	unimp
 a32:	0000                	unimp
 a34:	0000                	unimp
 a36:	0002                	c.slli64	zero
 a38:	9f31                	addw	a4,a4,a2
 a3a:	00f4                	addi	a3,sp,76
 a3c:	0000                	unimp
 a3e:	0000                	unimp
 a40:	0000                	unimp
 a42:	0108                	addi	a0,sp,128
 a44:	0000                	unimp
 a46:	0000                	unimp
 a48:	0000                	unimp
 a4a:	0001                	nop
 a4c:	e05a                	sd	s6,0(sp)
 a4e:	0002                	c.slli64	zero
 a50:	0000                	unimp
 a52:	0000                	unimp
 a54:	e800                	sd	s0,16(s0)
 a56:	0002                	c.slli64	zero
 a58:	0000                	unimp
 a5a:	0000                	unimp
 a5c:	0200                	addi	s0,sp,256
 a5e:	3100                	fld	fs0,32(a0)
 a60:	009f 0000 0000      	0x9f
	...
 a6e:	0000                	unimp
 a70:	e800                	sd	s0,16(s0)
 a72:	0000                	unimp
 a74:	0000                	unimp
 a76:	0000                	unimp
 a78:	ec00                	sd	s0,24(s0)
 a7a:	0000                	unimp
 a7c:	0000                	unimp
 a7e:	0000                	unimp
 a80:	0100                	addi	s0,sp,128
 a82:	5d00                	lw	s0,56(a0)
 a84:	00ec                	addi	a1,sp,76
 a86:	0000                	unimp
 a88:	0000                	unimp
 a8a:	0000                	unimp
 a8c:	00f8                	addi	a4,sp,76
 a8e:	0000                	unimp
 a90:	0000                	unimp
 a92:	0000                	unimp
 a94:	0001                	nop
 a96:	fc5f 0000 0000      	0xfc5f
 a9c:	0000                	unimp
 a9e:	0400                	addi	s0,sp,512
 aa0:	0001                	nop
 aa2:	0000                	unimp
 aa4:	0000                	unimp
 aa6:	0100                	addi	s0,sp,128
 aa8:	5f00                	lw	s0,56(a4)
 aaa:	02e0                	addi	s0,sp,332
 aac:	0000                	unimp
 aae:	0000                	unimp
 ab0:	0000                	unimp
 ab2:	02e4                	addi	s1,sp,332
 ab4:	0000                	unimp
 ab6:	0000                	unimp
 ab8:	0000                	unimp
 aba:	0001                	nop
 abc:	e45f 0002 0000      	0x2e45f
 ac2:	0000                	unimp
 ac4:	e800                	sd	s0,16(s0)
 ac6:	0002                	c.slli64	zero
 ac8:	0000                	unimp
 aca:	0000                	unimp
 acc:	0600                	addi	s0,sp,768
 ace:	7d00                	ld	s0,56(a0)
 ad0:	8c00                	0x8c00
 ad2:	1b00                	addi	s0,sp,432
 ad4:	009f 0000 0000      	0x9f
	...
 ae2:	0000                	unimp
 ae4:	0400                	addi	s0,sp,512
 ae6:	0001                	nop
 ae8:	0000                	unimp
 aea:	0000                	unimp
 aec:	0800                	addi	s0,sp,16
 aee:	0001                	nop
 af0:	0000                	unimp
 af2:	0000                	unimp
 af4:	0300                	addi	s0,sp,384
 af6:	7a00                	ld	s0,48(a2)
 af8:	01089f7f          	kaddw	t5,a7,a6
 afc:	0000                	unimp
 afe:	0000                	unimp
 b00:	0000                	unimp
 b02:	0128                	addi	a0,sp,136
 b04:	0000                	unimp
 b06:	0000                	unimp
 b08:	0000                	unimp
 b0a:	0001                	nop
 b0c:	005f 0000 0000      	0x5f
	...
 b1a:	0000                	unimp
 b1c:	dc00                	sw	s0,56(s0)
 b1e:	0001                	nop
 b20:	0000                	unimp
 b22:	0000                	unimp
 b24:	e800                	sd	s0,16(s0)
 b26:	0001                	nop
 b28:	0000                	unimp
 b2a:	0000                	unimp
 b2c:	0100                	addi	s0,sp,128
 b2e:	6100                	ld	s0,0(a0)
 b30:	01e8                	addi	a0,sp,204
 b32:	0000                	unimp
 b34:	0000                	unimp
 b36:	0000                	unimp
 b38:	0210                	addi	a2,sp,256
 b3a:	0000                	unimp
 b3c:	0000                	unimp
 b3e:	0000                	unimp
 b40:	0009                	c.nop	2
 b42:	0081                	addi	ra,ra,0
 b44:	007e                	c.slli	zero,0x1f
 b46:	7f1c                	ld	a5,56(a4)
 b48:	2200                	fld	fs0,0(a2)
 b4a:	009f 0000 0000      	0x9f
	...

Disassembly of section .debug_ranges:

0000000000000000 <.debug_ranges>:
   0:	0410                	addi	a2,sp,512
   2:	8020                	0x8020
   4:	0000                	unimp
   6:	0000                	unimp
   8:	0420                	addi	s0,sp,520
   a:	8020                	0x8020
   c:	0000                	unimp
   e:	0000                	unimp
  10:	0424                	addi	s1,sp,520
  12:	8020                	0x8020
  14:	0000                	unimp
  16:	0000                	unimp
  18:	0430                	addi	a2,sp,520
  1a:	8020                	0x8020
	...
  30:	000c                	0xc
  32:	8020                	0x8020
  34:	0000                	unimp
  36:	0000                	unimp
  38:	000c                	0xc
  3a:	8020                	0x8020
  3c:	0000                	unimp
  3e:	0000                	unimp
  40:	001c                	0x1c
  42:	8020                	0x8020
  44:	0000                	unimp
  46:	0000                	unimp
  48:	0024                	addi	s1,sp,8
  4a:	8020                	0x8020
	...
  60:	0028                	addi	a0,sp,8
  62:	8020                	0x8020
  64:	0000                	unimp
  66:	0000                	unimp
  68:	0034                	addi	a3,sp,8
  6a:	8020                	0x8020
  6c:	0000                	unimp
  6e:	0000                	unimp
  70:	0048                	addi	a0,sp,4
  72:	8020                	0x8020
  74:	0000                	unimp
  76:	0000                	unimp
  78:	0048                	addi	a0,sp,4
  7a:	8020                	0x8020
	...
  90:	0148                	addi	a0,sp,132
  92:	8020                	0x8020
  94:	0000                	unimp
  96:	0000                	unimp
  98:	0158                	addi	a4,sp,132
  9a:	8020                	0x8020
  9c:	0000                	unimp
  9e:	0000                	unimp
  a0:	0190                	addi	a2,sp,192
  a2:	8020                	0x8020
  a4:	0000                	unimp
  a6:	0000                	unimp
  a8:	0194                	addi	a3,sp,192
  aa:	8020                	0x8020
	...
  c0:	0180                	addi	s0,sp,192
  c2:	8020                	0x8020
  c4:	0000                	unimp
  c6:	0000                	unimp
  c8:	0180                	addi	s0,sp,192
  ca:	8020                	0x8020
  cc:	0000                	unimp
  ce:	0000                	unimp
  d0:	018c                	addi	a1,sp,192
  d2:	8020                	0x8020
  d4:	0000                	unimp
  d6:	0000                	unimp
  d8:	0190                	addi	a2,sp,192
  da:	8020                	0x8020
  dc:	0000                	unimp
  de:	0000                	unimp
  e0:	01ac                	addi	a1,sp,200
  e2:	8020                	0x8020
  e4:	0000                	unimp
  e6:	0000                	unimp
  e8:	01ac                	addi	a1,sp,200
  ea:	8020                	0x8020
  ec:	0000                	unimp
  ee:	0000                	unimp
  f0:	01b8                	addi	a4,sp,200
  f2:	8020                	0x8020
  f4:	0000                	unimp
  f6:	0000                	unimp
  f8:	01bc                	addi	a5,sp,200
  fa:	8020                	0x8020
	...
 110:	02bc                	addi	a5,sp,328
 112:	8020                	0x8020
 114:	0000                	unimp
 116:	0000                	unimp
 118:	02e8                	addi	a0,sp,332
 11a:	8020                	0x8020
 11c:	0000                	unimp
 11e:	0000                	unimp
 120:	02f0                	addi	a2,sp,332
 122:	8020                	0x8020
 124:	0000                	unimp
 126:	0000                	unimp
 128:	02f8                	addi	a4,sp,332
 12a:	8020                	0x8020
 12c:	0000                	unimp
 12e:	0000                	unimp
 130:	0300                	addi	s0,sp,384
 132:	8020                	0x8020
 134:	0000                	unimp
 136:	0000                	unimp
 138:	0314                	addi	a3,sp,384
 13a:	8020                	0x8020
 13c:	0000                	unimp
 13e:	0000                	unimp
 140:	0318                	addi	a4,sp,384
 142:	8020                	0x8020
 144:	0000                	unimp
 146:	0000                	unimp
 148:	0324                	addi	s1,sp,392
 14a:	8020                	0x8020
 14c:	0000                	unimp
 14e:	0000                	unimp
 150:	0334                	addi	a3,sp,392
 152:	8020                	0x8020
 154:	0000                	unimp
 156:	0000                	unimp
 158:	035c                	addi	a5,sp,388
 15a:	8020                	0x8020
	...
 170:	0380                	addi	s0,sp,448
 172:	8020                	0x8020
 174:	0000                	unimp
 176:	0000                	unimp
 178:	0380                	addi	s0,sp,448
 17a:	8020                	0x8020
 17c:	0000                	unimp
 17e:	0000                	unimp
 180:	0380                	addi	s0,sp,448
 182:	8020                	0x8020
 184:	0000                	unimp
 186:	0000                	unimp
 188:	03c4                	addi	s1,sp,452
 18a:	8020                	0x8020
	...
 1a0:	0398                	addi	a4,sp,448
 1a2:	8020                	0x8020
 1a4:	0000                	unimp
 1a6:	0000                	unimp
 1a8:	0398                	addi	a4,sp,448
 1aa:	8020                	0x8020
 1ac:	0000                	unimp
 1ae:	0000                	unimp
 1b0:	03a0                	addi	s0,sp,456
 1b2:	8020                	0x8020
 1b4:	0000                	unimp
 1b6:	0000                	unimp
 1b8:	03a4                	addi	s1,sp,456
 1ba:	8020                	0x8020
	...
 1d0:	0004                	0x4
 1d2:	8020                	0x8020
 1d4:	0000                	unimp
 1d6:	0000                	unimp
 1d8:	0408                	addi	a0,sp,512
 1da:	8020                	0x8020
 1dc:	0000                	unimp
 1de:	0000                	unimp
 1e0:	0408                	addi	a0,sp,512
 1e2:	8020                	0x8020
 1e4:	0000                	unimp
 1e6:	0000                	unimp
 1e8:	043c                	addi	a5,sp,520
 1ea:	8020                	0x8020
	...
 200:	043c                	addi	a5,sp,520
 202:	8020                	0x8020
 204:	0000                	unimp
 206:	0000                	unimp
 208:	0454                	addi	a3,sp,516
 20a:	8020                	0x8020
	...
 220:	0040                	addi	s0,sp,4
 222:	0000                	unimp
 224:	0000                	unimp
 226:	0000                	unimp
 228:	0048                	addi	a0,sp,4
 22a:	0000                	unimp
 22c:	0000                	unimp
 22e:	0000                	unimp
 230:	00d8                	addi	a4,sp,68
 232:	0000                	unimp
 234:	0000                	unimp
 236:	0000                	unimp
 238:	0148                	addi	a0,sp,132
 23a:	0000                	unimp
 23c:	0000                	unimp
 23e:	0000                	unimp
 240:	0290                	addi	a2,sp,320
 242:	0000                	unimp
 244:	0000                	unimp
 246:	0000                	unimp
 248:	02b4                	addi	a3,sp,328
 24a:	0000                	unimp
 24c:	0000                	unimp
 24e:	0000                	unimp
 250:	02e0                	addi	s0,sp,332
 252:	0000                	unimp
 254:	0000                	unimp
 256:	0000                	unimp
 258:	02e8                	addi	a0,sp,332
	...
 26e:	0000                	unimp
 270:	0040                	addi	s0,sp,4
 272:	0000                	unimp
 274:	0000                	unimp
 276:	0000                	unimp
 278:	0044                	addi	s1,sp,4
 27a:	0000                	unimp
 27c:	0000                	unimp
 27e:	0000                	unimp
 280:	00e8                	addi	a0,sp,76
 282:	0000                	unimp
 284:	0000                	unimp
 286:	0000                	unimp
 288:	00ec                	addi	a1,sp,76
 28a:	0000                	unimp
 28c:	0000                	unimp
 28e:	0000                	unimp
 290:	00f0                	addi	a2,sp,76
 292:	0000                	unimp
 294:	0000                	unimp
 296:	0000                	unimp
 298:	0100                	addi	s0,sp,128
	...
 2ae:	0000                	unimp
 2b0:	0100                	addi	s0,sp,128
 2b2:	0000                	unimp
 2b4:	0000                	unimp
 2b6:	0000                	unimp
 2b8:	0134                	addi	a3,sp,136
 2ba:	0000                	unimp
 2bc:	0000                	unimp
 2be:	0000                	unimp
 2c0:	02e0                	addi	s0,sp,332
 2c2:	0000                	unimp
 2c4:	0000                	unimp
 2c6:	0000                	unimp
 2c8:	02e8                	addi	a0,sp,332
	...
 2de:	0000                	unimp
 2e0:	0048                	addi	a0,sp,4
 2e2:	0000                	unimp
 2e4:	0000                	unimp
 2e6:	0000                	unimp
 2e8:	004c                	addi	a1,sp,4
 2ea:	0000                	unimp
 2ec:	0000                	unimp
 2ee:	0000                	unimp
 2f0:	0170                	addi	a2,sp,140
 2f2:	0000                	unimp
 2f4:	0000                	unimp
 2f6:	0000                	unimp
 2f8:	01d4                	addi	a3,sp,196
 2fa:	0000                	unimp
 2fc:	0000                	unimp
 2fe:	0000                	unimp
 300:	023c                	addi	a5,sp,264
 302:	0000                	unimp
 304:	0000                	unimp
 306:	0000                	unimp
 308:	0240                	addi	s0,sp,260
 30a:	0000                	unimp
 30c:	0000                	unimp
 30e:	0000                	unimp
 310:	0244                	addi	s1,sp,260
 312:	0000                	unimp
 314:	0000                	unimp
 316:	0000                	unimp
 318:	0250                	addi	a2,sp,260
 31a:	0000                	unimp
 31c:	0000                	unimp
 31e:	0000                	unimp
 320:	027c                	addi	a5,sp,268
 322:	0000                	unimp
 324:	0000                	unimp
 326:	0000                	unimp
 328:	0290                	addi	a2,sp,320
	...
 33e:	0000                	unimp
 340:	0048                	addi	a0,sp,4
 342:	0000                	unimp
 344:	0000                	unimp
 346:	0000                	unimp
 348:	004c                	addi	a1,sp,4
 34a:	0000                	unimp
 34c:	0000                	unimp
 34e:	0000                	unimp
 350:	0188                	addi	a0,sp,192
 352:	0000                	unimp
 354:	0000                	unimp
 356:	0000                	unimp
 358:	01d4                	addi	a3,sp,196
	...
 36e:	0000                	unimp
 370:	0048                	addi	a0,sp,4
 372:	0000                	unimp
 374:	0000                	unimp
 376:	0000                	unimp
 378:	004c                	addi	a1,sp,4
 37a:	0000                	unimp
 37c:	0000                	unimp
 37e:	0000                	unimp
 380:	0198                	addi	a4,sp,192
 382:	0000                	unimp
 384:	0000                	unimp
 386:	0000                	unimp
 388:	01c8                	addi	a0,sp,196
	...
 39e:	0000                	unimp
 3a0:	0304                	addi	s1,sp,384
 3a2:	0000                	unimp
 3a4:	0000                	unimp
 3a6:	0000                	unimp
 3a8:	030c                	addi	a1,sp,384
 3aa:	0000                	unimp
 3ac:	0000                	unimp
 3ae:	0000                	unimp
 3b0:	0310                	addi	a2,sp,384
 3b2:	0000                	unimp
 3b4:	0000                	unimp
 3b6:	0000                	unimp
 3b8:	0318                	addi	a4,sp,384
 3ba:	0000                	unimp
 3bc:	0000                	unimp
 3be:	0000                	unimp
 3c0:	0334                	addi	a3,sp,392
 3c2:	0000                	unimp
 3c4:	0000                	unimp
 3c6:	0000                	unimp
 3c8:	0388                	addi	a0,sp,448
	...
