
sbi.elf:     file format elf64-littleriscv


Disassembly of section .text:

0000000080000000 <_start>:
    .extern trapvector

	.text
_start:
	# park harts with id != 0
	csrr	t0, mhartid		# read current hart id
    80000000:	f14022f3          	csrr	t0,mhartid
	mv	tp, t0			# keep CPU's hartid in its tp for later usage.
    80000004:	00028213          	mv	tp,t0
	bnez	t0, park		# if we're not on the hart 0
    80000008:	00029c63          	bnez	t0,80000020 <park>
					# we park the hart
	# Setup stacks, the stack grows from bottom to top, so we put the
	# stack pointer to the very end of the stack range.
	slli	t0, t0, 10		# shift left the hart id by 1024
    8000000c:	00a29293          	slli	t0,t0,0xa
	la	sp, stacks + STACK_SIZE	# set the initial stack pointer
    80000010:	00002117          	auipc	sp,0x2
    80000014:	3f010113          	addi	sp,sp,1008 # 80002400 <stacks+0x400>
					# to the end of the first stack space
	add	sp, sp, t0		# move the current hart stack pointer
    80000018:	00510133          	add	sp,sp,t0
					# to its place in the stack space

    call   sbi_init            # hart 0 jump to sbi
    8000001c:	7bc000ef          	jal	ra,800007d8 <sbi_init>

0000000080000020 <park>:
    # j park

	# j	start_kernel		# hart 0 jump to c

park:
	wfi
    80000020:	10500073          	wfi
	j	park
    80000024:	ffdff06f          	j	80000020 <park>

0000000080000028 <_Z9plicClaimv>:

#define TIMER_INTERVAL 5000000

static xlen_t gpr[30];

int plicClaim(){
    80000028:	fe010113          	addi	sp,sp,-32
    8000002c:	00113c23          	sd	ra,24(sp)
    80000030:	00813823          	sd	s0,16(sp)
    80000034:	02010413          	addi	s0,sp,32
    int hart=csr::hart();
    80000038:	095000ef          	jal	ra,800008cc <_ZN3csr4hartEv>
    8000003c:	00050793          	mv	a5,a0
    80000040:	fef42623          	sw	a5,-20(s0)
    int irq=mmio<int>(platform::plic::claimOf(hart));
    80000044:	fec42783          	lw	a5,-20(s0)
    80000048:	00078513          	mv	a0,a5
    8000004c:	255000ef          	jal	ra,80000aa0 <_ZN8platform4plic7claimOfEi>
    80000050:	00050793          	mv	a5,a0
    80000054:	fef43023          	sd	a5,-32(s0)
 */
#define MAXNUM_CPU 8

template<typename T>
FORCEDINLINE T& mmio(xlen_t addr){
    return reinterpret_cast<T&>(*reinterpret_cast<T*>(addr));
    80000058:	fe043783          	ld	a5,-32(s0)
    8000005c:	0007a783          	lw	a5,0(a5)
    80000060:	fef42423          	sw	a5,-24(s0)
    return irq;
    80000064:	fe842783          	lw	a5,-24(s0)
}
    80000068:	00078513          	mv	a0,a5
    8000006c:	01813083          	ld	ra,24(sp)
    80000070:	01013403          	ld	s0,16(sp)
    80000074:	02010113          	addi	sp,sp,32
    80000078:	00008067          	ret

000000008000007c <_Z12plicCompletei>:
void plicComplete(int irq){
    8000007c:	fd010113          	addi	sp,sp,-48
    80000080:	02113423          	sd	ra,40(sp)
    80000084:	02813023          	sd	s0,32(sp)
    80000088:	03010413          	addi	s0,sp,48
    8000008c:	00050793          	mv	a5,a0
    80000090:	fcf42e23          	sw	a5,-36(s0)
    int hart=csr::hart();
    80000094:	039000ef          	jal	ra,800008cc <_ZN3csr4hartEv>
    80000098:	00050793          	mv	a5,a0
    8000009c:	fef42623          	sw	a5,-20(s0)
    mmio<int>(platform::plic::claimOf(hart))=irq;
    800000a0:	fec42783          	lw	a5,-20(s0)
    800000a4:	00078513          	mv	a0,a5
    800000a8:	1f9000ef          	jal	ra,80000aa0 <_ZN8platform4plic7claimOfEi>
    800000ac:	00050793          	mv	a5,a0
    800000b0:	fef43023          	sd	a5,-32(s0)
    800000b4:	fe043783          	ld	a5,-32(s0)
    800000b8:	fdc42703          	lw	a4,-36(s0)
    800000bc:	00e7a023          	sw	a4,0(a5)
}
    800000c0:	00000013          	nop
    800000c4:	02813083          	ld	ra,40(sp)
    800000c8:	02013403          	ld	s0,32(sp)
    800000cc:	03010113          	addi	sp,sp,48
    800000d0:	00008067          	ret

00000000800000d4 <_Z24externalInterruptHandlerv>:

void externalInterruptHandler(){
    800000d4:	fd010113          	addi	sp,sp,-48
    800000d8:	02113423          	sd	ra,40(sp)
    800000dc:	02813023          	sd	s0,32(sp)
    800000e0:	03010413          	addi	s0,sp,48
    int irq=plicClaim();
    800000e4:	f45ff0ef          	jal	ra,80000028 <_Z9plicClaimv>
    800000e8:	00050793          	mv	a5,a0
    800000ec:	fef42423          	sw	a5,-24(s0)
    // printf("externalInterruptHandler(irq=%d)\n",irq);
    static int levelcnt=0;
    levelcnt++;
    800000f0:	00004797          	auipc	a5,0x4
    800000f4:	0a078793          	addi	a5,a5,160 # 80004190 <_ZZ24externalInterruptHandlervE8levelcnt>
    800000f8:	0007a783          	lw	a5,0(a5)
    800000fc:	0017879b          	addiw	a5,a5,1
    80000100:	0007871b          	sext.w	a4,a5
    80000104:	00004797          	auipc	a5,0x4
    80000108:	08c78793          	addi	a5,a5,140 # 80004190 <_ZZ24externalInterruptHandlervE8levelcnt>
    8000010c:	00e7a023          	sw	a4,0(a5)
    if(irq==platform::uart0::irq){
    80000110:	fe842783          	lw	a5,-24(s0)
    80000114:	0007871b          	sext.w	a4,a5
    80000118:	00a00793          	li	a5,10
    8000011c:	08f71463          	bne	a4,a5,800001a4 <_Z24externalInterruptHandlerv+0xd0>
        using namespace platform::uart0;
        int cnt=0;
    80000120:	fe042623          	sw	zero,-20(s0)
        while(mmio<volatile lsr>(reg(LSR)).rxnemp){
    80000124:	00500513          	li	a0,5
    80000128:	7cc000ef          	jal	ra,800008f4 <_ZN8platform5uart03regENS0_4regsE>
    8000012c:	00050793          	mv	a5,a0
    80000130:	fcf43c23          	sd	a5,-40(s0)
    80000134:	fd843783          	ld	a5,-40(s0)
    80000138:	0007c783          	lbu	a5,0(a5)
    8000013c:	0017f793          	andi	a5,a5,1
    80000140:	0ff7f793          	andi	a5,a5,255
    80000144:	02078863          	beqz	a5,80000174 <_Z24externalInterruptHandlerv+0xa0>
            char c=mmio<volatile uint8_t>(reg(RHR));
    80000148:	00000513          	li	a0,0
    8000014c:	7a8000ef          	jal	ra,800008f4 <_ZN8platform5uart03regENS0_4regsE>
    80000150:	00050793          	mv	a5,a0
    80000154:	fcf43823          	sd	a5,-48(s0)
    80000158:	fd043783          	ld	a5,-48(s0)
    8000015c:	0007c783          	lbu	a5,0(a5)
    80000160:	fef403a3          	sb	a5,-25(s0)
            // printf("%c",c);
            cnt++;
    80000164:	fec42783          	lw	a5,-20(s0)
    80000168:	0017879b          	addiw	a5,a5,1
    8000016c:	fef42623          	sw	a5,-20(s0)
        while(mmio<volatile lsr>(reg(LSR)).rxnemp){
    80000170:	fb5ff06f          	j	80000124 <_Z24externalInterruptHandlerv+0x50>
        }
        // for(char c;mmio<volatile lsr>(reg(LSR)).txidle && (c=IO::next())>0;)mmio<volatile uint8_t>(reg(THR))=c;
        if(cnt)printf("&%d|%d^",cnt,levelcnt);
    80000174:	fec42783          	lw	a5,-20(s0)
    80000178:	0007879b          	sext.w	a5,a5
    8000017c:	02078463          	beqz	a5,800001a4 <_Z24externalInterruptHandlerv+0xd0>
    80000180:	00004797          	auipc	a5,0x4
    80000184:	01078793          	addi	a5,a5,16 # 80004190 <_ZZ24externalInterruptHandlervE8levelcnt>
    80000188:	0007a703          	lw	a4,0(a5)
    8000018c:	fec42783          	lw	a5,-20(s0)
    80000190:	00070613          	mv	a2,a4
    80000194:	00078593          	mv	a1,a5
    80000198:	00001517          	auipc	a0,0x1
    8000019c:	66850513          	addi	a0,a0,1640 # 80001800 <memcmp+0xd4>
    800001a0:	7e5000ef          	jal	ra,80001184 <printf>
    }
    plicComplete(irq);
    800001a4:	fe842783          	lw	a5,-24(s0)
    800001a8:	00078513          	mv	a0,a5
    800001ac:	ed1ff0ef          	jal	ra,8000007c <_Z12plicCompletei>
    levelcnt--;
    800001b0:	00004797          	auipc	a5,0x4
    800001b4:	fe078793          	addi	a5,a5,-32 # 80004190 <_ZZ24externalInterruptHandlervE8levelcnt>
    800001b8:	0007a783          	lw	a5,0(a5)
    800001bc:	fff7879b          	addiw	a5,a5,-1
    800001c0:	0007871b          	sext.w	a4,a5
    800001c4:	00004797          	auipc	a5,0x4
    800001c8:	fcc78793          	addi	a5,a5,-52 # 80004190 <_ZZ24externalInterruptHandlervE8levelcnt>
    800001cc:	00e7a023          	sw	a4,0(a5)
}
    800001d0:	00000013          	nop
    800001d4:	02813083          	ld	ra,40(sp)
    800001d8:	02013403          	ld	s0,32(sp)
    800001dc:	03010113          	addi	sp,sp,48
    800001e0:	00008067          	ret

00000000800001e4 <_ZL21timerInterruptHandlerv>:
static void timerInterruptHandler(){
    800001e4:	fe010113          	addi	sp,sp,-32
    800001e8:	00113c23          	sd	ra,24(sp)
    800001ec:	00813823          	sd	s0,16(sp)
    800001f0:	02010413          	addi	s0,sp,32
    int hart=csr::hart();
    800001f4:	6d8000ef          	jal	ra,800008cc <_ZN3csr4hartEv>
    800001f8:	00050793          	mv	a5,a0
    800001fc:	fef42623          	sw	a5,-20(s0)
    static int cnt=0;
    xlen_t time;csrRead(time,time);
    80000200:	c01027f3          	rdtime	a5
    80000204:	fef43023          	sd	a5,-32(s0)
    printf("timer Interrupt[%d]::%ld\n",cnt++,time);
    80000208:	00004797          	auipc	a5,0x4
    8000020c:	f8c78793          	addi	a5,a5,-116 # 80004194 <_ZZL21timerInterruptHandlervE3cnt>
    80000210:	0007a783          	lw	a5,0(a5)
    80000214:	0017871b          	addiw	a4,a5,1
    80000218:	0007069b          	sext.w	a3,a4
    8000021c:	00004717          	auipc	a4,0x4
    80000220:	f7870713          	addi	a4,a4,-136 # 80004194 <_ZZL21timerInterruptHandlervE3cnt>
    80000224:	00d72023          	sw	a3,0(a4)
    80000228:	fe043603          	ld	a2,-32(s0)
    8000022c:	00078593          	mv	a1,a5
    80000230:	00001517          	auipc	a0,0x1
    80000234:	5d850513          	addi	a0,a0,1496 # 80001808 <memcmp+0xdc>
    80000238:	74d000ef          	jal	ra,80001184 <printf>
    csrSet(mip,BIT(csr::mip::stip));
    8000023c:	02000793          	li	a5,32
    80000240:	3447a073          	csrs	mip,a5
    csrClear(mie,BIT(csr::mie::mtie));
    80000244:	08000793          	li	a5,128
    80000248:	3047b073          	csrc	mie,a5
}
    8000024c:	00000013          	nop
    80000250:	01813083          	ld	ra,24(sp)
    80000254:	01013403          	ld	s0,16(sp)
    80000258:	02010113          	addi	sp,sp,32
    8000025c:	00008067          	ret

0000000080000260 <_ZL13secallHandlerv>:
static void secallHandler(){
    80000260:	fe010113          	addi	sp,sp,-32
    80000264:	00113c23          	sd	ra,24(sp)
    80000268:	00813823          	sd	s0,16(sp)
    8000026c:	02010413          	addi	s0,sp,32
    register int ecallId asm("a7");
    xlen_t &rtval=gpr[9];
    80000270:	00004797          	auipc	a5,0x4
    80000274:	e7878793          	addi	a5,a5,-392 # 800040e8 <_ZL3gpr+0x48>
    80000278:	fef43423          	sd	a5,-24(s0)
    printf("secall [%d]\n",ecallId);
    8000027c:	0008879b          	sext.w	a5,a7
    80000280:	00078593          	mv	a1,a5
    80000284:	00001517          	auipc	a0,0x1
    80000288:	5a450513          	addi	a0,a0,1444 # 80001828 <memcmp+0xfc>
    8000028c:	6f9000ef          	jal	ra,80001184 <printf>
    switch(ecallId){
    80000290:	0008879b          	sext.w	a5,a7
    80000294:	00078693          	mv	a3,a5
    80000298:	00300713          	li	a4,3
    8000029c:	04e68c63          	beq	a3,a4,800002f4 <_ZL13secallHandlerv+0x94>
    800002a0:	00078693          	mv	a3,a5
    800002a4:	00300713          	li	a4,3
    800002a8:	06d74463          	blt	a4,a3,80000310 <_ZL13secallHandlerv+0xb0>
    800002ac:	00078693          	mv	a3,a5
    800002b0:	00100713          	li	a4,1
    800002b4:	00e68a63          	beq	a3,a4,800002c8 <_ZL13secallHandlerv+0x68>
    800002b8:	00078713          	mv	a4,a5
    800002bc:	00200793          	li	a5,2
    800002c0:	00f70c63          	beq	a4,a5,800002d8 <_ZL13secallHandlerv+0x78>
    800002c4:	04c0006f          	j	80000310 <_ZL13secallHandlerv+0xb0>
    using namespace sbi;
        case hart: csrRead(mhartid,rtval);break;
    800002c8:	f1402773          	csrr	a4,mhartid
    800002cc:	fe843783          	ld	a5,-24(s0)
    800002d0:	00e7b023          	sd	a4,0(a5)
    800002d4:	04c0006f          	j	80000320 <_ZL13secallHandlerv+0xc0>
        case xtie: csrSet(mie,BIT(csr::mie::mtie));csrClear(mip,BIT(csr::mip::stip));rtval=0;break;
    800002d8:	08000793          	li	a5,128
    800002dc:	3047a073          	csrs	mie,a5
    800002e0:	02000793          	li	a5,32
    800002e4:	3447b073          	csrc	mip,a5
    800002e8:	fe843783          	ld	a5,-24(s0)
    800002ec:	0007b023          	sd	zero,0(a5)
    800002f0:	0300006f          	j	80000320 <_ZL13secallHandlerv+0xc0>
        case xsie: csrSet(mie,BIT(csr::mie::msie));csrClear(mip,BIT(csr::mip::ssip));rtval=0;break;
    800002f4:	00800793          	li	a5,8
    800002f8:	3047a073          	csrs	mie,a5
    800002fc:	00200793          	li	a5,2
    80000300:	3447b073          	csrc	mip,a5
    80000304:	fe843783          	ld	a5,-24(s0)
    80000308:	0007b023          	sd	zero,0(a5)
    8000030c:	0140006f          	j	80000320 <_ZL13secallHandlerv+0xc0>
        default: rtval=1;
    80000310:	fe843783          	ld	a5,-24(s0)
    80000314:	00100713          	li	a4,1
    80000318:	00e7b023          	sd	a4,0(a5)
    }
}
    8000031c:	00000013          	nop
    80000320:	00000013          	nop
    80000324:	01813083          	ld	ra,24(sp)
    80000328:	01013403          	ld	s0,16(sp)
    8000032c:	02010113          	addi	sp,sp,32
    80000330:	00008067          	ret

0000000080000334 <mtraphandler>:
// extern "C" __attribute__((interrupt("machine"))) void mtraphandler(){
extern "C" void mtraphandler(){
    80000334:	fd010113          	addi	sp,sp,-48
    80000338:	02113423          	sd	ra,40(sp)
    8000033c:	02813023          	sd	s0,32(sp)
    80000340:	03010413          	addi	s0,sp,48
    ptr_t mepc; csrRead(mepc,mepc);
    80000344:	341027f3          	csrr	a5,mepc
    80000348:	fef43423          	sd	a5,-24(s0)
    xlen_t mcause; csrRead(mcause,mcause);
    8000034c:	342027f3          	csrr	a5,mcause
    80000350:	fef43023          	sd	a5,-32(s0)
    xlen_t mtval; csrRead(mtval,mtval);
    80000354:	343027f3          	csrr	a5,mtval
    80000358:	fcf43c23          	sd	a5,-40(s0)
    // csr::currentMode();
    // printf("mtraphandler cause=[%d]%d mepc=%lx\n",isInterrupt(mcause),mcause<<1>>1,mepc);

    if(csr::mcause::isInterrupt(mcause)){
    8000035c:	fe043503          	ld	a0,-32(s0)
    80000360:	540000ef          	jal	ra,800008a0 <_ZN3csr6mcause11isInterruptEm>
    80000364:	00050793          	mv	a5,a0
    80000368:	04078263          	beqz	a5,800003ac <mtraphandler+0x78>
        switch(mcause<<1>>1){
    8000036c:	fe043703          	ld	a4,-32(s0)
    80000370:	fff00793          	li	a5,-1
    80000374:	0017d793          	srli	a5,a5,0x1
    80000378:	00f777b3          	and	a5,a4,a5
    8000037c:	00700713          	li	a4,7
    80000380:	00e78863          	beq	a5,a4,80000390 <mtraphandler+0x5c>
    80000384:	00b00713          	li	a4,11
    80000388:	00e78863          	beq	a5,a4,80000398 <mtraphandler+0x64>
    8000038c:	0140006f          	j	800003a0 <mtraphandler+0x6c>
            // case msi: break;

            // case uti: break;
            // case sti: break;
            // case hti: break;
            case mti: timerInterruptHandler();break;
    80000390:	e55ff0ef          	jal	ra,800001e4 <_ZL21timerInterruptHandlerv>
    80000394:	07c0006f          	j	80000410 <mtraphandler+0xdc>

            // case uei: break;
            // case sei: break;
            // case hei: break;
            case mei: externalInterruptHandler();break;
    80000398:	d3dff0ef          	jal	ra,800000d4 <_Z24externalInterruptHandlerv>
    8000039c:	0740006f          	j	80000410 <mtraphandler+0xdc>
            default:
                halt();
    800003a0:	00000513          	li	a0,0
    800003a4:	691000ef          	jal	ra,80001234 <halt>
                csrWrite(mepc,mepc+4);
                // halt();
        }
    }
    // printf("mtraphandler over\n");
}
    800003a8:	0680006f          	j	80000410 <mtraphandler+0xdc>
        switch(mcause){
    800003ac:	fe043703          	ld	a4,-32(s0)
    800003b0:	00700793          	li	a5,7
    800003b4:	02f70263          	beq	a4,a5,800003d8 <mtraphandler+0xa4>
    800003b8:	fe043703          	ld	a4,-32(s0)
    800003bc:	00900793          	li	a5,9
    800003c0:	02f71463          	bne	a4,a5,800003e8 <mtraphandler+0xb4>
            case secall:secallHandler();csrWrite(mepc,mepc+4);break;
    800003c4:	e9dff0ef          	jal	ra,80000260 <_ZL13secallHandlerv>
    800003c8:	fe843783          	ld	a5,-24(s0)
    800003cc:	00478793          	addi	a5,a5,4
    800003d0:	34179073          	csrw	mepc,a5
    800003d4:	03c0006f          	j	80000410 <mtraphandler+0xdc>
            case storeAccessFault:csrWrite(mepc,mepc+4);break;
    800003d8:	fe843783          	ld	a5,-24(s0)
    800003dc:	00478793          	addi	a5,a5,4
    800003e0:	34179073          	csrw	mepc,a5
    800003e4:	02c0006f          	j	80000410 <mtraphandler+0xdc>
                printf("exception%d %p %p\n",mcause,mepc,mtval);
    800003e8:	fd843683          	ld	a3,-40(s0)
    800003ec:	fe843603          	ld	a2,-24(s0)
    800003f0:	fe043583          	ld	a1,-32(s0)
    800003f4:	00001517          	auipc	a0,0x1
    800003f8:	44450513          	addi	a0,a0,1092 # 80001838 <memcmp+0x10c>
    800003fc:	589000ef          	jal	ra,80001184 <printf>
                csrWrite(mepc,mepc+4);
    80000400:	fe843783          	ld	a5,-24(s0)
    80000404:	00478793          	addi	a5,a5,4
    80000408:	34179073          	csrw	mepc,a5
}
    8000040c:	0040006f          	j	80000410 <mtraphandler+0xdc>
    80000410:	00000013          	nop
    80000414:	02813083          	ld	ra,40(sp)
    80000418:	02013403          	ld	s0,32(sp)
    8000041c:	03010113          	addi	sp,sp,48
    80000420:	00008067          	ret

0000000080000424 <mtrapwrapper>:
xlen_t mstack;
extern "C" __attribute__((naked)) void mtrapwrapper(){
    csrSwap(mscratch,t6);
    80000424:	340f9ff3          	csrrw	t6,mscratch,t6
    saveContext();
    80000428:	001fb023          	sd	ra,0(t6)
    8000042c:	002fb423          	sd	sp,8(t6)
    80000430:	003fb823          	sd	gp,16(t6)
    80000434:	004fbc23          	sd	tp,24(t6)
    80000438:	025fb023          	sd	t0,32(t6)
    8000043c:	026fb423          	sd	t1,40(t6)
    80000440:	027fb823          	sd	t2,48(t6)
    80000444:	028fbc23          	sd	s0,56(t6)
    80000448:	049fb023          	sd	s1,64(t6)
    8000044c:	04afb423          	sd	a0,72(t6)
    80000450:	04bfb823          	sd	a1,80(t6)
    80000454:	04cfbc23          	sd	a2,88(t6)
    80000458:	06dfb023          	sd	a3,96(t6)
    8000045c:	06efb423          	sd	a4,104(t6)
    80000460:	06ffb823          	sd	a5,112(t6)
    80000464:	070fbc23          	sd	a6,120(t6)
    80000468:	091fb023          	sd	a7,128(t6)
    8000046c:	092fb423          	sd	s2,136(t6)
    80000470:	093fb823          	sd	s3,144(t6)
    80000474:	094fbc23          	sd	s4,152(t6)
    80000478:	0b5fb023          	sd	s5,160(t6)
    8000047c:	0b6fb423          	sd	s6,168(t6)
    80000480:	0b7fb823          	sd	s7,176(t6)
    80000484:	0b8fbc23          	sd	s8,184(t6)
    80000488:	0d9fb023          	sd	s9,192(t6)
    8000048c:	0dafb423          	sd	s10,200(t6)
    80000490:	0dbfb823          	sd	s11,208(t6)
    80000494:	0dcfbc23          	sd	t3,216(t6)
    80000498:	0fdfb023          	sd	t4,224(t6)
    8000049c:	0fefb423          	sd	t5,232(t6)
    register xlen_t sp asm("sp")=mstack;
    800004a0:	00004797          	auipc	a5,0x4
    800004a4:	b6078793          	addi	a5,a5,-1184 # 80004000 <mstack>
    800004a8:	0007b783          	ld	a5,0(a5)
    800004ac:	00078113          	mv	sp,a5
    mtraphandler();
    800004b0:	e85ff0ef          	jal	ra,80000334 <mtraphandler>
    restoreContext();
    800004b4:	000fb083          	ld	ra,0(t6)
    800004b8:	008fb103          	ld	sp,8(t6)
    800004bc:	010fb183          	ld	gp,16(t6)
    800004c0:	018fb203          	ld	tp,24(t6)
    800004c4:	020fb283          	ld	t0,32(t6)
    800004c8:	028fb303          	ld	t1,40(t6)
    800004cc:	030fb383          	ld	t2,48(t6)
    800004d0:	038fb403          	ld	s0,56(t6)
    800004d4:	040fb483          	ld	s1,64(t6)
    800004d8:	048fb503          	ld	a0,72(t6)
    800004dc:	050fb583          	ld	a1,80(t6)
    800004e0:	058fb603          	ld	a2,88(t6)
    800004e4:	060fb683          	ld	a3,96(t6)
    800004e8:	068fb703          	ld	a4,104(t6)
    800004ec:	070fb783          	ld	a5,112(t6)
    800004f0:	078fb803          	ld	a6,120(t6)
    800004f4:	080fb883          	ld	a7,128(t6)
    800004f8:	088fb903          	ld	s2,136(t6)
    800004fc:	090fb983          	ld	s3,144(t6)
    80000500:	098fba03          	ld	s4,152(t6)
    80000504:	0a0fba83          	ld	s5,160(t6)
    80000508:	0a8fbb03          	ld	s6,168(t6)
    8000050c:	0b0fbb83          	ld	s7,176(t6)
    80000510:	0b8fbc03          	ld	s8,184(t6)
    80000514:	0c0fbc83          	ld	s9,192(t6)
    80000518:	0c8fbd03          	ld	s10,200(t6)
    8000051c:	0d0fbd83          	ld	s11,208(t6)
    80000520:	0d8fbe03          	ld	t3,216(t6)
    80000524:	0e0fbe83          	ld	t4,224(t6)
    80000528:	0e8fbf03          	ld	t5,232(t6)
    csrSwap(mscratch,t6);
    8000052c:	340f9ff3          	csrrw	t6,mscratch,t6
    ExecInst(mret);
    80000530:	30200073          	mret
}
    80000534:	00000013          	nop

0000000080000538 <_Z11uartIntTestv>:
void uartIntTest(){
    80000538:	fe010113          	addi	sp,sp,-32
    8000053c:	00113c23          	sd	ra,24(sp)
    80000540:	00813823          	sd	s0,16(sp)
    80000544:	02010413          	addi	s0,sp,32
    using namespace platform::uart0::nonblocking;
    for(int i=1024;i;i--)putc('_');
    80000548:	40000793          	li	a5,1024
    8000054c:	fef42623          	sw	a5,-20(s0)
    80000550:	fec42783          	lw	a5,-20(s0)
    80000554:	0007879b          	sext.w	a5,a5
    80000558:	00078e63          	beqz	a5,80000574 <_Z11uartIntTestv+0x3c>
    8000055c:	05f00513          	li	a0,95
    80000560:	444000ef          	jal	ra,800009a4 <_ZN8platform5uart011nonblocking4putcEc>
    80000564:	fec42783          	lw	a5,-20(s0)
    80000568:	fff7879b          	addiw	a5,a5,-1
    8000056c:	fef42623          	sw	a5,-20(s0)
    80000570:	fe1ff06f          	j	80000550 <_Z11uartIntTestv+0x18>
    // 0123456789abcdefg0123456789abcdefg0123456789abcdefg0123456789abcdefg0123456789abcdefg0123456789abcdefg0123456789abcdefg0123456789abcdefg
}
    80000574:	00000013          	nop
    80000578:	01813083          	ld	ra,24(sp)
    8000057c:	01013403          	ld	s0,16(sp)
    80000580:	02010113          	addi	sp,sp,32
    80000584:	00008067          	ret

0000000080000588 <_Z8uartInitv>:
void uartInit(){
    80000588:	fb010113          	addi	sp,sp,-80
    8000058c:	04113423          	sd	ra,72(sp)
    80000590:	04813023          	sd	s0,64(sp)
    80000594:	05010413          	addi	s0,sp,80
    using namespace platform::uart0;
    auto &ier=mmio<volatile uint8_t>(reg(IER));
    80000598:	00100513          	li	a0,1
    8000059c:	358000ef          	jal	ra,800008f4 <_ZN8platform5uart03regENS0_4regsE>
    800005a0:	00050793          	mv	a5,a0
    800005a4:	faf43c23          	sd	a5,-72(s0)
    800005a8:	fb843783          	ld	a5,-72(s0)
    800005ac:	fef43423          	sd	a5,-24(s0)
    ier=0x00;
    800005b0:	fe843783          	ld	a5,-24(s0)
    800005b4:	00078023          	sb	zero,0(a5)
    puts("Hello Uart\n");
    800005b8:	00004797          	auipc	a5,0x4
    800005bc:	a5078793          	addi	a5,a5,-1456 # 80004008 <puts>
    800005c0:	0007b783          	ld	a5,0(a5)
    800005c4:	00001517          	auipc	a0,0x1
    800005c8:	28c50513          	addi	a0,a0,652 # 80001850 <memcmp+0x124>
    800005cc:	000780e7          	jalr	a5
    auto &lcr=mmio<volatile uint8_t>(reg(LCR));
    800005d0:	00300513          	li	a0,3
    800005d4:	320000ef          	jal	ra,800008f4 <_ZN8platform5uart03regENS0_4regsE>
    800005d8:	00050793          	mv	a5,a0
    800005dc:	fcf43023          	sd	a5,-64(s0)
    800005e0:	fc043783          	ld	a5,-64(s0)
    800005e4:	fef43023          	sd	a5,-32(s0)
    lcr=lcr|(1<<7);
    800005e8:	fe043783          	ld	a5,-32(s0)
    800005ec:	0007c783          	lbu	a5,0(a5)
    800005f0:	0ff7f793          	andi	a5,a5,255
    800005f4:	f807e793          	ori	a5,a5,-128
    800005f8:	0ff7f713          	andi	a4,a5,255
    800005fc:	fe043783          	ld	a5,-32(s0)
    80000600:	00e78023          	sb	a4,0(a5)
    mmio<volatile uint8_t>(reg(DLL))=0x03;
    80000604:	00000513          	li	a0,0
    80000608:	2ec000ef          	jal	ra,800008f4 <_ZN8platform5uart03regENS0_4regsE>
    8000060c:	00050793          	mv	a5,a0
    80000610:	fcf43423          	sd	a5,-56(s0)
    80000614:	fc843783          	ld	a5,-56(s0)
    80000618:	00300713          	li	a4,3
    8000061c:	00e78023          	sb	a4,0(a5)
    mmio<volatile uint8_t>(reg(DLM))=0x00;
    80000620:	00100513          	li	a0,1
    80000624:	2d0000ef          	jal	ra,800008f4 <_ZN8platform5uart03regENS0_4regsE>
    80000628:	00050793          	mv	a5,a0
    8000062c:	fcf43823          	sd	a5,-48(s0)
    80000630:	fd043783          	ld	a5,-48(s0)
    80000634:	00078023          	sb	zero,0(a5)
    lcr=3;
    80000638:	fe043783          	ld	a5,-32(s0)
    8000063c:	00300713          	li	a4,3
    80000640:	00e78023          	sb	a4,0(a5)
    mmio<volatile uint8_t>(reg(FCR))=0x7|(0x3<<6);
    80000644:	00200513          	li	a0,2
    80000648:	2ac000ef          	jal	ra,800008f4 <_ZN8platform5uart03regENS0_4regsE>
    8000064c:	00050793          	mv	a5,a0
    80000650:	fcf43c23          	sd	a5,-40(s0)
    80000654:	fd843783          	ld	a5,-40(s0)
    80000658:	fc700713          	li	a4,-57
    8000065c:	00e78023          	sb	a4,0(a5)
    ier=0x01;
    80000660:	fe843783          	ld	a5,-24(s0)
    80000664:	00100713          	li	a4,1
    80000668:	00e78023          	sb	a4,0(a5)
    // puts=IO::_nonblockingputs;
}
    8000066c:	00000013          	nop
    80000670:	04813083          	ld	ra,72(sp)
    80000674:	04013403          	ld	s0,64(sp)
    80000678:	05010113          	addi	sp,sp,80
    8000067c:	00008067          	ret

0000000080000680 <_Z8plicInitv>:
void plicInit(){
    80000680:	fc010113          	addi	sp,sp,-64
    80000684:	02113c23          	sd	ra,56(sp)
    80000688:	02813823          	sd	s0,48(sp)
    8000068c:	04010413          	addi	s0,sp,64
    // int hart=csr::hart();
    using namespace platform::plic;
    int hart=csr::hart();
    80000690:	23c000ef          	jal	ra,800008cc <_ZN3csr4hartEv>
    80000694:	00050793          	mv	a5,a0
    80000698:	fef42623          	sw	a5,-20(s0)
    xlen_t addr=priorityOf(platform::uart0::irq);
    8000069c:	0c0007b7          	lui	a5,0xc000
    800006a0:	02878793          	addi	a5,a5,40 # c000028 <STACK_SIZE+0xbfffc28>
    800006a4:	fef43023          	sd	a5,-32(s0)
    800006a8:	fe043783          	ld	a5,-32(s0)
    800006ac:	fcf43423          	sd	a5,-56(s0)
    800006b0:	fc843783          	ld	a5,-56(s0)
    mmio<word_t>(addr)=1;
    800006b4:	00100713          	li	a4,1
    800006b8:	00e7a023          	sw	a4,0(a5)
    mmio<word_t>(enableOf(hart))=1<<platform::uart0::irq;
    800006bc:	fec42783          	lw	a5,-20(s0)
    800006c0:	00078513          	mv	a0,a5
    800006c4:	364000ef          	jal	ra,80000a28 <_ZN8platform4plic8enableOfEi>
    800006c8:	00050793          	mv	a5,a0
    800006cc:	fcf43823          	sd	a5,-48(s0)
    800006d0:	fd043783          	ld	a5,-48(s0)
    800006d4:	40000713          	li	a4,1024
    800006d8:	00e7a023          	sw	a4,0(a5)
    mmio<word_t>(thresholdOf(hart))=0;
    800006dc:	fec42783          	lw	a5,-20(s0)
    800006e0:	00078513          	mv	a0,a5
    800006e4:	380000ef          	jal	ra,80000a64 <_ZN8platform4plic11thresholdOfEi>
    800006e8:	00050793          	mv	a5,a0
    800006ec:	fcf43c23          	sd	a5,-40(s0)
    800006f0:	fd843783          	ld	a5,-40(s0)
    800006f4:	0007a023          	sw	zero,0(a5)
    uartInit();
    800006f8:	e91ff0ef          	jal	ra,80000588 <_Z8uartInitv>
}
    800006fc:	00000013          	nop
    80000700:	03813083          	ld	ra,56(sp)
    80000704:	03013403          	ld	s0,48(sp)
    80000708:	04010113          	addi	sp,sp,64
    8000070c:	00008067          	ret

0000000080000710 <_Z9timerInitv>:
void timerInit(){
    80000710:	fe010113          	addi	sp,sp,-32
    80000714:	00113c23          	sd	ra,24(sp)
    80000718:	00813823          	sd	s0,16(sp)
    8000071c:	02010413          	addi	s0,sp,32
    int hart=csr::hart();
    80000720:	1ac000ef          	jal	ra,800008cc <_ZN3csr4hartEv>
    80000724:	00050793          	mv	a5,a0
    80000728:	fef42623          	sw	a5,-20(s0)
    mmio<xlen_t>(platform::clint::mtimecmpOf(hart))=TIMER_INTERVAL;
    8000072c:	fec42783          	lw	a5,-20(s0)
    80000730:	00078513          	mv	a0,a5
    80000734:	3ac000ef          	jal	ra,80000ae0 <_ZN8platform5clint10mtimecmpOfEi>
    80000738:	00050793          	mv	a5,a0
    8000073c:	fef43023          	sd	a5,-32(s0)
    80000740:	fe043783          	ld	a5,-32(s0)
    80000744:	004c5737          	lui	a4,0x4c5
    80000748:	b4070713          	addi	a4,a4,-1216 # 4c4b40 <STACK_SIZE+0x4c4740>
    8000074c:	00e7b023          	sd	a4,0(a5)
    csrSet(mie,BIT(csr::mie::mtie));
    80000750:	08000793          	li	a5,128
    80000754:	3047a073          	csrs	mie,a5
}
    80000758:	00000013          	nop
    8000075c:	01813083          	ld	ra,24(sp)
    80000760:	01013403          	ld	s0,16(sp)
    80000764:	02010113          	addi	sp,sp,32
    80000768:	00008067          	ret

000000008000076c <_Z10mtrap_testv>:
void mtrap_test(){
    8000076c:	fe010113          	addi	sp,sp,-32
    80000770:	00113c23          	sd	ra,24(sp)
    80000774:	00813823          	sd	s0,16(sp)
    80000778:	02010413          	addi	s0,sp,32
    *(int *)0x00000000 = 100;
    8000077c:	00000713          	li	a4,0
    80000780:	06400793          	li	a5,100
    80000784:	00f72023          	sw	a5,0(a4)
    puts("mtrap test over");
    80000788:	00004797          	auipc	a5,0x4
    8000078c:	88078793          	addi	a5,a5,-1920 # 80004008 <puts>
    80000790:	0007b783          	ld	a5,0(a5)
    80000794:	00001517          	auipc	a0,0x1
    80000798:	0cc50513          	addi	a0,a0,204 # 80001860 <memcmp+0x134>
    8000079c:	000780e7          	jalr	a5
    for(int k=2;k;k--);
    800007a0:	00200793          	li	a5,2
    800007a4:	fef42623          	sw	a5,-20(s0)
    800007a8:	fec42783          	lw	a5,-20(s0)
    800007ac:	0007879b          	sext.w	a5,a5
    800007b0:	00078a63          	beqz	a5,800007c4 <_Z10mtrap_testv+0x58>
    800007b4:	fec42783          	lw	a5,-20(s0)
    800007b8:	fff7879b          	addiw	a5,a5,-1
    800007bc:	fef42623          	sw	a5,-20(s0)
    800007c0:	fe9ff06f          	j	800007a8 <_Z10mtrap_testv+0x3c>
    return;
    800007c4:	00000013          	nop
}
    800007c8:	01813083          	ld	ra,24(sp)
    800007cc:	01013403          	ld	s0,16(sp)
    800007d0:	02010113          	addi	sp,sp,32
    800007d4:	00008067          	ret

00000000800007d8 <sbi_init>:
extern "C" void sbi_init(){
    800007d8:	ff010113          	addi	sp,sp,-16
    800007dc:	00113423          	sd	ra,8(sp)
    800007e0:	00813023          	sd	s0,0(sp)
    800007e4:	01010413          	addi	s0,sp,16
// "csrw pmpaddr0, %1\n\t"
// "csrw pmpcfg0, %0\n\t"
// : : "r" (0xf), "r" (0x3fffffffffffffull) :);
    // csrWritei(mtvec,mtraphandler);
    register xlen_t sp asm("sp");
    mstack=sp;
    800007e8:	00010713          	mv	a4,sp
    800007ec:	00004797          	auipc	a5,0x4
    800007f0:	81478793          	addi	a5,a5,-2028 # 80004000 <mstack>
    800007f4:	00e7b023          	sd	a4,0(a5)
    puts=IO::_blockingputs;
    800007f8:	00004797          	auipc	a5,0x4
    800007fc:	81078793          	addi	a5,a5,-2032 # 80004008 <puts>
    80000800:	00000717          	auipc	a4,0x0
    80000804:	31c70713          	addi	a4,a4,796 # 80000b1c <_ZN2IO13_blockingputsEPKc>
    80000808:	00e7b023          	sd	a4,0(a5)
    plicInit();
    8000080c:	e75ff0ef          	jal	ra,80000680 <_Z8plicInitv>
    puts("plic init over\n");
    80000810:	00003797          	auipc	a5,0x3
    80000814:	7f878793          	addi	a5,a5,2040 # 80004008 <puts>
    80000818:	0007b783          	ld	a5,0(a5)
    8000081c:	00001517          	auipc	a0,0x1
    80000820:	05450513          	addi	a0,a0,84 # 80001870 <memcmp+0x144>
    80000824:	000780e7          	jalr	a5

    csrWrite(mscratch,gpr);
    80000828:	00004797          	auipc	a5,0x4
    8000082c:	87878793          	addi	a5,a5,-1928 # 800040a0 <_ZL3gpr>
    80000830:	34079073          	csrw	mscratch,a5
    {asm volatile ("csrw ""mtvec"", %0" :: "r"(mtrapwrapper));}
    80000834:	00000797          	auipc	a5,0x0
    80000838:	bf078793          	addi	a5,a5,-1040 # 80000424 <mtrapwrapper>
    8000083c:	30579073          	csrw	mtvec,a5
    csrSet(mie,BIT(csr::mie::meie));
    80000840:	000017b7          	lui	a5,0x1
    80000844:	80078793          	addi	a5,a5,-2048 # 800 <STACK_SIZE+0x400>
    80000848:	3047a073          	csrs	mie,a5
    // csrSet(mstatus,BIT(csr::mstatus::mie));
    // mtrap_test();
    uartIntTest();
    8000084c:	cedff0ef          	jal	ra,80000538 <_Z11uartIntTestv>

    // timerInit();
    csrSet(mideleg,BIT(csr::mie::stie)|BIT(csr::mie::ssie));
    80000850:	02200793          	li	a5,34
    80000854:	3037a073          	csrs	mideleg,a5
    csrSet(medeleg,BIT(csr::mcause::uecall));
    80000858:	10000793          	li	a5,256
    8000085c:	3027a073          	csrs	medeleg,a5
    csrSet(mie,BIT(csr::mie::mtie));
    80000860:	08000793          	li	a5,128
    80000864:	3047a073          	csrs	mie,a5
    csrSet(mstatus,1l<<csr::mstatus::mpp);
    80000868:	000017b7          	lui	a5,0x1
    8000086c:	80078793          	addi	a5,a5,-2048 # 800 <STACK_SIZE+0x400>
    80000870:	3007a073          	csrs	mstatus,a5
    csrWrite(mepc,0x80200000l);
    80000874:	40100793          	li	a5,1025
    80000878:	01579793          	slli	a5,a5,0x15
    8000087c:	34179073          	csrw	mepc,a5
    csrSet(mstatus,BIT(csr::mstatus::mpie));
    80000880:	08000793          	li	a5,128
    80000884:	3007a073          	csrs	mstatus,a5
    ExecInst(mret);
    80000888:	30200073          	mret
    8000088c:	00000013          	nop
    80000890:	00813083          	ld	ra,8(sp)
    80000894:	00013403          	ld	s0,0(sp)
    80000898:	01010113          	addi	sp,sp,16
    8000089c:	00008067          	ret

00000000800008a0 <_ZN3csr6mcause11isInterruptEm>:
            breakpoint=3,
            storeAccessFault=7,
            uecall=8,
            secall=9,
        };
        constexpr bool isInterrupt(xlen_t mcause){return (mcause>>63)&1;}
    800008a0:	fe010113          	addi	sp,sp,-32
    800008a4:	00813c23          	sd	s0,24(sp)
    800008a8:	02010413          	addi	s0,sp,32
    800008ac:	fea43423          	sd	a0,-24(s0)
    800008b0:	fe843783          	ld	a5,-24(s0)
    800008b4:	03f7d793          	srli	a5,a5,0x3f
    800008b8:	0ff7f793          	andi	a5,a5,255
    800008bc:	00078513          	mv	a0,a5
    800008c0:	01813403          	ld	s0,24(sp)
    800008c4:	02010113          	addi	sp,sp,32
    800008c8:	00008067          	ret

00000000800008cc <_ZN3csr4hartEv>:
        xlen_t mode:4;
        inline xlen_t value(){
            return *reinterpret_cast<xlen_t*>(this);
        }
    };
    inline int hart(){
    800008cc:	fe010113          	addi	sp,sp,-32
    800008d0:	00813c23          	sd	s0,24(sp)
    800008d4:	02010413          	addi	s0,sp,32
        int rt; csrRead(mhartid,rt);
    800008d8:	f14027f3          	csrr	a5,mhartid
    800008dc:	fef42623          	sw	a5,-20(s0)
        return rt;
    800008e0:	fec42783          	lw	a5,-20(s0)
    }
    800008e4:	00078513          	mv	a0,a5
    800008e8:	01813403          	ld	s0,24(sp)
    800008ec:	02010113          	addi	sp,sp,32
    800008f0:	00008067          	ret

00000000800008f4 <_ZN8platform5uart03regENS0_4regsE>:
            MCR=4,	// Modem Control Register
            LSR=5,	// Line Status Register
            MSR=6,	// Modem Status Register
            SPR=7,	// ScratchPad Register
        };
        constexpr xlen_t reg(regs r){return base+r;}
    800008f4:	fe010113          	addi	sp,sp,-32
    800008f8:	00813c23          	sd	s0,24(sp)
    800008fc:	02010413          	addi	s0,sp,32
    80000900:	00050793          	mv	a5,a0
    80000904:	fef42623          	sw	a5,-20(s0)
    80000908:	fec42783          	lw	a5,-20(s0)
    8000090c:	00078713          	mv	a4,a5
    80000910:	100007b7          	lui	a5,0x10000
    80000914:	00f707b3          	add	a5,a4,a5
    80000918:	00078513          	mv	a0,a5
    8000091c:	01813403          	ld	s0,24(sp)
    80000920:	02010113          	addi	sp,sp,32
    80000924:	00008067          	ret

0000000080000928 <_ZN8platform5uart08blocking4putcEc>:
            uint8_t txidle:1;
            uint8_t unused1:2;
        };
        namespace blocking
        {    
            inline void putc(char c) {
    80000928:	fd010113          	addi	sp,sp,-48
    8000092c:	02113423          	sd	ra,40(sp)
    80000930:	02813023          	sd	s0,32(sp)
    80000934:	03010413          	addi	s0,sp,48
    80000938:	00050793          	mv	a5,a0
    8000093c:	fcf40fa3          	sb	a5,-33(s0)
                while(!mmio<lsr>(reg(LSR)).txidle);
    80000940:	00500513          	li	a0,5
    80000944:	fb1ff0ef          	jal	ra,800008f4 <_ZN8platform5uart03regENS0_4regsE>
    80000948:	00050793          	mv	a5,a0
    8000094c:	fef43423          	sd	a5,-24(s0)
    return reinterpret_cast<T&>(*reinterpret_cast<T*>(addr));
    80000950:	fe843783          	ld	a5,-24(s0)
                while(!mmio<lsr>(reg(LSR)).txidle);
    80000954:	0007c783          	lbu	a5,0(a5) # 10000000 <STACK_SIZE+0xffffc00>
    80000958:	0207f793          	andi	a5,a5,32
    8000095c:	0ff7f793          	andi	a5,a5,255
    80000960:	0007879b          	sext.w	a5,a5
    80000964:	0017b793          	seqz	a5,a5
    80000968:	0ff7f793          	andi	a5,a5,255
    8000096c:	00078463          	beqz	a5,80000974 <_ZN8platform5uart08blocking4putcEc+0x4c>
    80000970:	fd1ff06f          	j	80000940 <_ZN8platform5uart08blocking4putcEc+0x18>
                mmio<char>(reg(THR))=c;
    80000974:	00000513          	li	a0,0
    80000978:	f7dff0ef          	jal	ra,800008f4 <_ZN8platform5uart03regENS0_4regsE>
    8000097c:	00050793          	mv	a5,a0
    80000980:	fef43023          	sd	a5,-32(s0)
    return reinterpret_cast<T&>(*reinterpret_cast<T*>(addr));
    80000984:	fe043783          	ld	a5,-32(s0)
                mmio<char>(reg(THR))=c;
    80000988:	fdf44703          	lbu	a4,-33(s0)
    8000098c:	00e78023          	sb	a4,0(a5)
            }
    80000990:	00000013          	nop
    80000994:	02813083          	ld	ra,40(sp)
    80000998:	02013403          	ld	s0,32(sp)
    8000099c:	03010113          	addi	sp,sp,48
    800009a0:	00008067          	ret

00000000800009a4 <_ZN8platform5uart011nonblocking4putcEc>:
                return mmio<char>(reg(RHR));
            }
        } // namespace blocking
        namespace nonblocking
        {
            inline bool putc(char c){
    800009a4:	fd010113          	addi	sp,sp,-48
    800009a8:	02113423          	sd	ra,40(sp)
    800009ac:	02813023          	sd	s0,32(sp)
    800009b0:	03010413          	addi	s0,sp,48
    800009b4:	00050793          	mv	a5,a0
    800009b8:	fcf40fa3          	sb	a5,-33(s0)
                if(!mmio<lsr>(reg(LSR)).txidle)return false;
    800009bc:	00500513          	li	a0,5
    800009c0:	f35ff0ef          	jal	ra,800008f4 <_ZN8platform5uart03regENS0_4regsE>
    800009c4:	00050793          	mv	a5,a0
    800009c8:	fef43423          	sd	a5,-24(s0)
    return reinterpret_cast<T&>(*reinterpret_cast<T*>(addr));
    800009cc:	fe843783          	ld	a5,-24(s0)
                if(!mmio<lsr>(reg(LSR)).txidle)return false;
    800009d0:	0007c783          	lbu	a5,0(a5)
    800009d4:	0207f793          	andi	a5,a5,32
    800009d8:	0ff7f793          	andi	a5,a5,255
    800009dc:	0007879b          	sext.w	a5,a5
    800009e0:	0017b793          	seqz	a5,a5
    800009e4:	0ff7f793          	andi	a5,a5,255
    800009e8:	00078663          	beqz	a5,800009f4 <_ZN8platform5uart011nonblocking4putcEc+0x50>
    800009ec:	00000793          	li	a5,0
    800009f0:	0240006f          	j	80000a14 <_ZN8platform5uart011nonblocking4putcEc+0x70>
                mmio<char>(reg(THR))=c;
    800009f4:	00000513          	li	a0,0
    800009f8:	efdff0ef          	jal	ra,800008f4 <_ZN8platform5uart03regENS0_4regsE>
    800009fc:	00050793          	mv	a5,a0
    80000a00:	fef43023          	sd	a5,-32(s0)
    return reinterpret_cast<T&>(*reinterpret_cast<T*>(addr));
    80000a04:	fe043783          	ld	a5,-32(s0)
                mmio<char>(reg(THR))=c;
    80000a08:	fdf44703          	lbu	a4,-33(s0)
    80000a0c:	00e78023          	sb	a4,0(a5)
                return true;
    80000a10:	00100793          	li	a5,1
            }
    80000a14:	00078513          	mv	a0,a5
    80000a18:	02813083          	ld	ra,40(sp)
    80000a1c:	02013403          	ld	s0,32(sp)
    80000a20:	03010113          	addi	sp,sp,48
    80000a24:	00008067          	ret

0000000080000a28 <_ZN8platform4plic8enableOfEi>:
            pending=base+0x1000,
            enable=base+0x2000,
            threshold=base+0x200000,
            claim=base+0x200004;
        constexpr xlen_t priorityOf(int id) {return priority+id*4;}
        constexpr xlen_t enableOf(int hart) { return enable+hart*0x80; }
    80000a28:	fe010113          	addi	sp,sp,-32
    80000a2c:	00813c23          	sd	s0,24(sp)
    80000a30:	02010413          	addi	s0,sp,32
    80000a34:	00050793          	mv	a5,a0
    80000a38:	fef42623          	sw	a5,-20(s0)
    80000a3c:	fec42783          	lw	a5,-20(s0)
    80000a40:	0077979b          	slliw	a5,a5,0x7
    80000a44:	0007879b          	sext.w	a5,a5
    80000a48:	00078713          	mv	a4,a5
    80000a4c:	0c0027b7          	lui	a5,0xc002
    80000a50:	00f707b3          	add	a5,a4,a5
    80000a54:	00078513          	mv	a0,a5
    80000a58:	01813403          	ld	s0,24(sp)
    80000a5c:	02010113          	addi	sp,sp,32
    80000a60:	00008067          	ret

0000000080000a64 <_ZN8platform4plic11thresholdOfEi>:
        constexpr xlen_t thresholdOf(int hart) { return threshold+hart*0x1000; }
    80000a64:	fe010113          	addi	sp,sp,-32
    80000a68:	00813c23          	sd	s0,24(sp)
    80000a6c:	02010413          	addi	s0,sp,32
    80000a70:	00050793          	mv	a5,a0
    80000a74:	fef42623          	sw	a5,-20(s0)
    80000a78:	fec42783          	lw	a5,-20(s0)
    80000a7c:	00c7979b          	slliw	a5,a5,0xc
    80000a80:	0007879b          	sext.w	a5,a5
    80000a84:	00078713          	mv	a4,a5
    80000a88:	0c2007b7          	lui	a5,0xc200
    80000a8c:	00f707b3          	add	a5,a4,a5
    80000a90:	00078513          	mv	a0,a5
    80000a94:	01813403          	ld	s0,24(sp)
    80000a98:	02010113          	addi	sp,sp,32
    80000a9c:	00008067          	ret

0000000080000aa0 <_ZN8platform4plic7claimOfEi>:
        constexpr xlen_t claimOf(int hart) { return claim+hart*0x1000; }
    80000aa0:	fe010113          	addi	sp,sp,-32
    80000aa4:	00813c23          	sd	s0,24(sp)
    80000aa8:	02010413          	addi	s0,sp,32
    80000aac:	00050793          	mv	a5,a0
    80000ab0:	fef42623          	sw	a5,-20(s0)
    80000ab4:	fec42783          	lw	a5,-20(s0)
    80000ab8:	00c7979b          	slliw	a5,a5,0xc
    80000abc:	0007879b          	sext.w	a5,a5
    80000ac0:	00078713          	mv	a4,a5
    80000ac4:	0c2007b7          	lui	a5,0xc200
    80000ac8:	00478793          	addi	a5,a5,4 # c200004 <STACK_SIZE+0xc1ffc04>
    80000acc:	00f707b3          	add	a5,a4,a5
    80000ad0:	00078513          	mv	a0,a5
    80000ad4:	01813403          	ld	s0,24(sp)
    80000ad8:	02010113          	addi	sp,sp,32
    80000adc:	00008067          	ret

0000000080000ae0 <_ZN8platform5clint10mtimecmpOfEi>:
    {
        constexpr auto base=0x2000000l,
            mtime=base+0xbff8,
            mtimecmp=base+0x4000
            ;
        constexpr xlen_t mtimecmpOf(int hart) { return mtimecmp+hart*0x8; }
    80000ae0:	fe010113          	addi	sp,sp,-32
    80000ae4:	00813c23          	sd	s0,24(sp)
    80000ae8:	02010413          	addi	s0,sp,32
    80000aec:	00050793          	mv	a5,a0
    80000af0:	fef42623          	sw	a5,-20(s0)
    80000af4:	fec42783          	lw	a5,-20(s0)
    80000af8:	0037979b          	slliw	a5,a5,0x3
    80000afc:	0007879b          	sext.w	a5,a5
    80000b00:	00078713          	mv	a4,a5
    80000b04:	020047b7          	lui	a5,0x2004
    80000b08:	00f707b3          	add	a5,a4,a5
    80000b0c:	00078513          	mv	a0,a5
    80000b10:	01813403          	ld	s0,24(sp)
    80000b14:	02010113          	addi	sp,sp,32
    80000b18:	00008067          	ret

0000000080000b1c <_ZN2IO13_blockingputsEPKc>:

static klib::ringbuf<char> buf;

class IO{
public:
  inline static void _blockingputs(const char *s){
    80000b1c:	fe010113          	addi	sp,sp,-32
    80000b20:	00113c23          	sd	ra,24(sp)
    80000b24:	00813823          	sd	s0,16(sp)
    80000b28:	02010413          	addi	s0,sp,32
    80000b2c:	fea43423          	sd	a0,-24(s0)
    while(*s)platform::uart0::blocking::putc(*s++);
    80000b30:	fe843783          	ld	a5,-24(s0)
    80000b34:	0007c783          	lbu	a5,0(a5) # 2004000 <STACK_SIZE+0x2003c00>
    80000b38:	02078063          	beqz	a5,80000b58 <_ZN2IO13_blockingputsEPKc+0x3c>
    80000b3c:	fe843783          	ld	a5,-24(s0)
    80000b40:	00178713          	addi	a4,a5,1
    80000b44:	fee43423          	sd	a4,-24(s0)
    80000b48:	0007c783          	lbu	a5,0(a5)
    80000b4c:	00078513          	mv	a0,a5
    80000b50:	dd9ff0ef          	jal	ra,80000928 <_ZN8platform5uart08blocking4putcEc>
    80000b54:	fddff06f          	j	80000b30 <_ZN2IO13_blockingputsEPKc+0x14>
  }
    80000b58:	00000013          	nop
    80000b5c:	01813083          	ld	ra,24(sp)
    80000b60:	01013403          	ld	s0,16(sp)
    80000b64:	02010113          	addi	sp,sp,32
    80000b68:	00008067          	ret

0000000080000b6c <putchar>:

#include "klib.h"

void (*puts)(const char *s);

int putchar(char c){
    80000b6c:	fd010113          	addi	sp,sp,-48
    80000b70:	02113423          	sd	ra,40(sp)
    80000b74:	02813023          	sd	s0,32(sp)
    80000b78:	03010413          	addi	s0,sp,48
    80000b7c:	00050793          	mv	a5,a0
    80000b80:	fcf40fa3          	sb	a5,-33(s0)
	char buff[]={c,'\0'};
    80000b84:	fe041423          	sh	zero,-24(s0)
    80000b88:	fdf44783          	lbu	a5,-33(s0)
    80000b8c:	fef40423          	sb	a5,-24(s0)
	puts(buff);
    80000b90:	00003797          	auipc	a5,0x3
    80000b94:	47878793          	addi	a5,a5,1144 # 80004008 <puts>
    80000b98:	0007b703          	ld	a4,0(a5)
    80000b9c:	fe840793          	addi	a5,s0,-24
    80000ba0:	00078513          	mv	a0,a5
    80000ba4:	000700e7          	jalr	a4
}
    80000ba8:	00000013          	nop
    80000bac:	00078513          	mv	a0,a5
    80000bb0:	02813083          	ld	ra,40(sp)
    80000bb4:	02013403          	ld	s0,32(sp)
    80000bb8:	03010113          	addi	sp,sp,48
    80000bbc:	00008067          	ret

0000000080000bc0 <_ZL10_vsnprintfPcmPKcPv>:

static int _vsnprintf(char * out, size_t n, const char* s, va_list vl)
{
    80000bc0:	f8010113          	addi	sp,sp,-128
    80000bc4:	06813c23          	sd	s0,120(sp)
    80000bc8:	08010413          	addi	s0,sp,128
    80000bcc:	f8a43c23          	sd	a0,-104(s0)
    80000bd0:	f8b43823          	sd	a1,-112(s0)
    80000bd4:	f8c43423          	sd	a2,-120(s0)
    80000bd8:	f8d43023          	sd	a3,-128(s0)
	int format = 0;
    80000bdc:	fe042623          	sw	zero,-20(s0)
	int longarg = 0;
    80000be0:	fe042423          	sw	zero,-24(s0)
	size_t pos = 0;
    80000be4:	fe043023          	sd	zero,-32(s0)
	for (; *s; s++) {
    80000be8:	f8843783          	ld	a5,-120(s0)
    80000bec:	0007c783          	lbu	a5,0(a5)
    80000bf0:	46078a63          	beqz	a5,80001064 <_ZL10_vsnprintfPcmPKcPv+0x4a4>
		if (format) {
    80000bf4:	fec42783          	lw	a5,-20(s0)
    80000bf8:	0007879b          	sext.w	a5,a5
    80000bfc:	3e078c63          	beqz	a5,80000ff4 <_ZL10_vsnprintfPcmPKcPv+0x434>
			switch(*s) {
    80000c00:	f8843783          	ld	a5,-120(s0)
    80000c04:	0007c783          	lbu	a5,0(a5)
    80000c08:	0007879b          	sext.w	a5,a5
    80000c0c:	f9d7869b          	addiw	a3,a5,-99
    80000c10:	0006871b          	sext.w	a4,a3
    80000c14:	01500793          	li	a5,21
    80000c18:	42e7ec63          	bltu	a5,a4,80001050 <_ZL10_vsnprintfPcmPKcPv+0x490>
    80000c1c:	02069793          	slli	a5,a3,0x20
    80000c20:	0207d793          	srli	a5,a5,0x20
    80000c24:	00279713          	slli	a4,a5,0x2
    80000c28:	00001797          	auipc	a5,0x1
    80000c2c:	c5878793          	addi	a5,a5,-936 # 80001880 <memcmp+0x154>
    80000c30:	00f707b3          	add	a5,a4,a5
    80000c34:	0007a783          	lw	a5,0(a5)
    80000c38:	0007871b          	sext.w	a4,a5
    80000c3c:	00001797          	auipc	a5,0x1
    80000c40:	c4478793          	addi	a5,a5,-956 # 80001880 <memcmp+0x154>
    80000c44:	00f707b3          	add	a5,a4,a5
    80000c48:	00078067          	jr	a5
			case 'l': {
				longarg = 1;
    80000c4c:	00100793          	li	a5,1
    80000c50:	fef42423          	sw	a5,-24(s0)
				break;
    80000c54:	4000006f          	j	80001054 <_ZL10_vsnprintfPcmPKcPv+0x494>
			}
			case 'p': {
				longarg = 1;
    80000c58:	00100793          	li	a5,1
    80000c5c:	fef42423          	sw	a5,-24(s0)
				if (out && pos < n) {
    80000c60:	f9843783          	ld	a5,-104(s0)
    80000c64:	02078263          	beqz	a5,80000c88 <_ZL10_vsnprintfPcmPKcPv+0xc8>
    80000c68:	fe043703          	ld	a4,-32(s0)
    80000c6c:	f9043783          	ld	a5,-112(s0)
    80000c70:	00f77c63          	bgeu	a4,a5,80000c88 <_ZL10_vsnprintfPcmPKcPv+0xc8>
					out[pos] = '0';
    80000c74:	f9843703          	ld	a4,-104(s0)
    80000c78:	fe043783          	ld	a5,-32(s0)
    80000c7c:	00f707b3          	add	a5,a4,a5
    80000c80:	03000713          	li	a4,48
    80000c84:	00e78023          	sb	a4,0(a5)
				}
				pos++;
    80000c88:	fe043783          	ld	a5,-32(s0)
    80000c8c:	00178793          	addi	a5,a5,1
    80000c90:	fef43023          	sd	a5,-32(s0)
				if (out && pos < n) {
    80000c94:	f9843783          	ld	a5,-104(s0)
    80000c98:	02078263          	beqz	a5,80000cbc <_ZL10_vsnprintfPcmPKcPv+0xfc>
    80000c9c:	fe043703          	ld	a4,-32(s0)
    80000ca0:	f9043783          	ld	a5,-112(s0)
    80000ca4:	00f77c63          	bgeu	a4,a5,80000cbc <_ZL10_vsnprintfPcmPKcPv+0xfc>
					out[pos] = 'x';
    80000ca8:	f9843703          	ld	a4,-104(s0)
    80000cac:	fe043783          	ld	a5,-32(s0)
    80000cb0:	00f707b3          	add	a5,a4,a5
    80000cb4:	07800713          	li	a4,120
    80000cb8:	00e78023          	sb	a4,0(a5)
				}
				pos++;
    80000cbc:	fe043783          	ld	a5,-32(s0)
    80000cc0:	00178793          	addi	a5,a5,1
    80000cc4:	fef43023          	sd	a5,-32(s0)
			}
			case 'x': {
				long num = longarg ? va_arg(vl, long) : va_arg(vl, int);
    80000cc8:	fe842783          	lw	a5,-24(s0)
    80000ccc:	0007879b          	sext.w	a5,a5
    80000cd0:	00078c63          	beqz	a5,80000ce8 <_ZL10_vsnprintfPcmPKcPv+0x128>
    80000cd4:	f8043783          	ld	a5,-128(s0)
    80000cd8:	00878713          	addi	a4,a5,8
    80000cdc:	f8e43023          	sd	a4,-128(s0)
    80000ce0:	0007b783          	ld	a5,0(a5)
    80000ce4:	0140006f          	j	80000cf8 <_ZL10_vsnprintfPcmPKcPv+0x138>
    80000ce8:	f8043783          	ld	a5,-128(s0)
    80000cec:	00878713          	addi	a4,a5,8
    80000cf0:	f8e43023          	sd	a4,-128(s0)
    80000cf4:	0007a783          	lw	a5,0(a5)
    80000cf8:	faf43423          	sd	a5,-88(s0)
				int hexdigits = 2*(longarg ? sizeof(long) : sizeof(int))-1;
    80000cfc:	fe842783          	lw	a5,-24(s0)
    80000d00:	0007879b          	sext.w	a5,a5
    80000d04:	00078663          	beqz	a5,80000d10 <_ZL10_vsnprintfPcmPKcPv+0x150>
    80000d08:	00f00793          	li	a5,15
    80000d0c:	0080006f          	j	80000d14 <_ZL10_vsnprintfPcmPKcPv+0x154>
    80000d10:	00700793          	li	a5,7
    80000d14:	faf42223          	sw	a5,-92(s0)
				for(int i = hexdigits; i >= 0; i--) {
    80000d18:	fa442783          	lw	a5,-92(s0)
    80000d1c:	fcf42e23          	sw	a5,-36(s0)
    80000d20:	fdc42783          	lw	a5,-36(s0)
    80000d24:	0007879b          	sext.w	a5,a5
    80000d28:	0807cc63          	bltz	a5,80000dc0 <_ZL10_vsnprintfPcmPKcPv+0x200>
					int d = (num >> (4*i)) & 0xF;
    80000d2c:	fdc42783          	lw	a5,-36(s0)
    80000d30:	0027979b          	slliw	a5,a5,0x2
    80000d34:	0007879b          	sext.w	a5,a5
    80000d38:	fa843703          	ld	a4,-88(s0)
    80000d3c:	40f757b3          	sra	a5,a4,a5
    80000d40:	0007879b          	sext.w	a5,a5
    80000d44:	00f7f793          	andi	a5,a5,15
    80000d48:	faf42023          	sw	a5,-96(s0)
					if (out && pos < n) {
    80000d4c:	f9843783          	ld	a5,-104(s0)
    80000d50:	04078a63          	beqz	a5,80000da4 <_ZL10_vsnprintfPcmPKcPv+0x1e4>
    80000d54:	fe043703          	ld	a4,-32(s0)
    80000d58:	f9043783          	ld	a5,-112(s0)
    80000d5c:	04f77463          	bgeu	a4,a5,80000da4 <_ZL10_vsnprintfPcmPKcPv+0x1e4>
						out[pos] = (d < 10 ? '0'+d : 'a'+d-10);
    80000d60:	fa042783          	lw	a5,-96(s0)
    80000d64:	0007871b          	sext.w	a4,a5
    80000d68:	00900793          	li	a5,9
    80000d6c:	00e7cc63          	blt	a5,a4,80000d84 <_ZL10_vsnprintfPcmPKcPv+0x1c4>
    80000d70:	fa042783          	lw	a5,-96(s0)
    80000d74:	0ff7f793          	andi	a5,a5,255
    80000d78:	0307879b          	addiw	a5,a5,48
    80000d7c:	0ff7f793          	andi	a5,a5,255
    80000d80:	0140006f          	j	80000d94 <_ZL10_vsnprintfPcmPKcPv+0x1d4>
    80000d84:	fa042783          	lw	a5,-96(s0)
    80000d88:	0ff7f793          	andi	a5,a5,255
    80000d8c:	0577879b          	addiw	a5,a5,87
    80000d90:	0ff7f793          	andi	a5,a5,255
    80000d94:	f9843683          	ld	a3,-104(s0)
    80000d98:	fe043703          	ld	a4,-32(s0)
    80000d9c:	00e68733          	add	a4,a3,a4
    80000da0:	00f70023          	sb	a5,0(a4)
					}
					pos++;
    80000da4:	fe043783          	ld	a5,-32(s0)
    80000da8:	00178793          	addi	a5,a5,1
    80000dac:	fef43023          	sd	a5,-32(s0)
				for(int i = hexdigits; i >= 0; i--) {
    80000db0:	fdc42783          	lw	a5,-36(s0)
    80000db4:	fff7879b          	addiw	a5,a5,-1
    80000db8:	fcf42e23          	sw	a5,-36(s0)
    80000dbc:	f65ff06f          	j	80000d20 <_ZL10_vsnprintfPcmPKcPv+0x160>
				}
				longarg = 0;
    80000dc0:	fe042423          	sw	zero,-24(s0)
				format = 0;
    80000dc4:	fe042623          	sw	zero,-20(s0)
				break;
    80000dc8:	28c0006f          	j	80001054 <_ZL10_vsnprintfPcmPKcPv+0x494>
			}
			case 'd': {
				long num = longarg ? va_arg(vl, long) : va_arg(vl, int);
    80000dcc:	fe842783          	lw	a5,-24(s0)
    80000dd0:	0007879b          	sext.w	a5,a5
    80000dd4:	00078c63          	beqz	a5,80000dec <_ZL10_vsnprintfPcmPKcPv+0x22c>
    80000dd8:	f8043783          	ld	a5,-128(s0)
    80000ddc:	00878713          	addi	a4,a5,8
    80000de0:	f8e43023          	sd	a4,-128(s0)
    80000de4:	0007b783          	ld	a5,0(a5)
    80000de8:	0140006f          	j	80000dfc <_ZL10_vsnprintfPcmPKcPv+0x23c>
    80000dec:	f8043783          	ld	a5,-128(s0)
    80000df0:	00878713          	addi	a4,a5,8
    80000df4:	f8e43023          	sd	a4,-128(s0)
    80000df8:	0007a783          	lw	a5,0(a5)
    80000dfc:	fcf43823          	sd	a5,-48(s0)
				if (num < 0) {
    80000e00:	fd043783          	ld	a5,-48(s0)
    80000e04:	0407d263          	bgez	a5,80000e48 <_ZL10_vsnprintfPcmPKcPv+0x288>
					num = -num;
    80000e08:	fd043783          	ld	a5,-48(s0)
    80000e0c:	40f007b3          	neg	a5,a5
    80000e10:	fcf43823          	sd	a5,-48(s0)
					if (out && pos < n) {
    80000e14:	f9843783          	ld	a5,-104(s0)
    80000e18:	02078263          	beqz	a5,80000e3c <_ZL10_vsnprintfPcmPKcPv+0x27c>
    80000e1c:	fe043703          	ld	a4,-32(s0)
    80000e20:	f9043783          	ld	a5,-112(s0)
    80000e24:	00f77c63          	bgeu	a4,a5,80000e3c <_ZL10_vsnprintfPcmPKcPv+0x27c>
						out[pos] = '-';
    80000e28:	f9843703          	ld	a4,-104(s0)
    80000e2c:	fe043783          	ld	a5,-32(s0)
    80000e30:	00f707b3          	add	a5,a4,a5
    80000e34:	02d00713          	li	a4,45
    80000e38:	00e78023          	sb	a4,0(a5)
					}
					pos++;
    80000e3c:	fe043783          	ld	a5,-32(s0)
    80000e40:	00178793          	addi	a5,a5,1
    80000e44:	fef43023          	sd	a5,-32(s0)
				}
				long digits = 1;
    80000e48:	00100793          	li	a5,1
    80000e4c:	fcf43423          	sd	a5,-56(s0)
				for (long nn = num; nn /= 10; digits++);
    80000e50:	fd043783          	ld	a5,-48(s0)
    80000e54:	fcf43023          	sd	a5,-64(s0)
    80000e58:	fc043703          	ld	a4,-64(s0)
    80000e5c:	00a00793          	li	a5,10
    80000e60:	02f747b3          	div	a5,a4,a5
    80000e64:	fcf43023          	sd	a5,-64(s0)
    80000e68:	fc043783          	ld	a5,-64(s0)
    80000e6c:	00f037b3          	snez	a5,a5
    80000e70:	0ff7f793          	andi	a5,a5,255
    80000e74:	00078a63          	beqz	a5,80000e88 <_ZL10_vsnprintfPcmPKcPv+0x2c8>
    80000e78:	fc843783          	ld	a5,-56(s0)
    80000e7c:	00178793          	addi	a5,a5,1
    80000e80:	fcf43423          	sd	a5,-56(s0)
    80000e84:	fd5ff06f          	j	80000e58 <_ZL10_vsnprintfPcmPKcPv+0x298>
				for (int i = digits-1; i >= 0; i--) {
    80000e88:	fc843783          	ld	a5,-56(s0)
    80000e8c:	0007879b          	sext.w	a5,a5
    80000e90:	fff7879b          	addiw	a5,a5,-1
    80000e94:	0007879b          	sext.w	a5,a5
    80000e98:	faf42e23          	sw	a5,-68(s0)
    80000e9c:	fbc42783          	lw	a5,-68(s0)
    80000ea0:	0007879b          	sext.w	a5,a5
    80000ea4:	0607c863          	bltz	a5,80000f14 <_ZL10_vsnprintfPcmPKcPv+0x354>
					if (out && pos + i < n) {
    80000ea8:	f9843783          	ld	a5,-104(s0)
    80000eac:	04078463          	beqz	a5,80000ef4 <_ZL10_vsnprintfPcmPKcPv+0x334>
    80000eb0:	fbc42703          	lw	a4,-68(s0)
    80000eb4:	fe043783          	ld	a5,-32(s0)
    80000eb8:	00f707b3          	add	a5,a4,a5
    80000ebc:	f9043703          	ld	a4,-112(s0)
    80000ec0:	02e7fa63          	bgeu	a5,a4,80000ef4 <_ZL10_vsnprintfPcmPKcPv+0x334>
						out[pos + i] = '0' + (num % 10);
    80000ec4:	fd043703          	ld	a4,-48(s0)
    80000ec8:	00a00793          	li	a5,10
    80000ecc:	02f767b3          	rem	a5,a4,a5
    80000ed0:	0ff7f713          	andi	a4,a5,255
    80000ed4:	fbc42683          	lw	a3,-68(s0)
    80000ed8:	fe043783          	ld	a5,-32(s0)
    80000edc:	00f687b3          	add	a5,a3,a5
    80000ee0:	f9843683          	ld	a3,-104(s0)
    80000ee4:	00f687b3          	add	a5,a3,a5
    80000ee8:	0307071b          	addiw	a4,a4,48
    80000eec:	0ff77713          	andi	a4,a4,255
    80000ef0:	00e78023          	sb	a4,0(a5)
					}
					num /= 10;
    80000ef4:	fd043703          	ld	a4,-48(s0)
    80000ef8:	00a00793          	li	a5,10
    80000efc:	02f747b3          	div	a5,a4,a5
    80000f00:	fcf43823          	sd	a5,-48(s0)
				for (int i = digits-1; i >= 0; i--) {
    80000f04:	fbc42783          	lw	a5,-68(s0)
    80000f08:	fff7879b          	addiw	a5,a5,-1
    80000f0c:	faf42e23          	sw	a5,-68(s0)
    80000f10:	f8dff06f          	j	80000e9c <_ZL10_vsnprintfPcmPKcPv+0x2dc>
				}
				pos += digits;
    80000f14:	fc843783          	ld	a5,-56(s0)
    80000f18:	fe043703          	ld	a4,-32(s0)
    80000f1c:	00f707b3          	add	a5,a4,a5
    80000f20:	fef43023          	sd	a5,-32(s0)
				longarg = 0;
    80000f24:	fe042423          	sw	zero,-24(s0)
				format = 0;
    80000f28:	fe042623          	sw	zero,-20(s0)
				break;
    80000f2c:	1280006f          	j	80001054 <_ZL10_vsnprintfPcmPKcPv+0x494>
			}
			case 's': {
				const char* s2 = va_arg(vl, const char*);
    80000f30:	f8043783          	ld	a5,-128(s0)
    80000f34:	00878713          	addi	a4,a5,8
    80000f38:	f8e43023          	sd	a4,-128(s0)
    80000f3c:	0007b783          	ld	a5,0(a5)
    80000f40:	faf43823          	sd	a5,-80(s0)
				while (*s2) {
    80000f44:	fb043783          	ld	a5,-80(s0)
    80000f48:	0007c783          	lbu	a5,0(a5)
    80000f4c:	04078663          	beqz	a5,80000f98 <_ZL10_vsnprintfPcmPKcPv+0x3d8>
					if (out && pos < n) {
    80000f50:	f9843783          	ld	a5,-104(s0)
    80000f54:	02078463          	beqz	a5,80000f7c <_ZL10_vsnprintfPcmPKcPv+0x3bc>
    80000f58:	fe043703          	ld	a4,-32(s0)
    80000f5c:	f9043783          	ld	a5,-112(s0)
    80000f60:	00f77e63          	bgeu	a4,a5,80000f7c <_ZL10_vsnprintfPcmPKcPv+0x3bc>
						out[pos] = *s2;
    80000f64:	f9843703          	ld	a4,-104(s0)
    80000f68:	fe043783          	ld	a5,-32(s0)
    80000f6c:	00f707b3          	add	a5,a4,a5
    80000f70:	fb043703          	ld	a4,-80(s0)
    80000f74:	00074703          	lbu	a4,0(a4)
    80000f78:	00e78023          	sb	a4,0(a5)
					}
					pos++;
    80000f7c:	fe043783          	ld	a5,-32(s0)
    80000f80:	00178793          	addi	a5,a5,1
    80000f84:	fef43023          	sd	a5,-32(s0)
					s2++;
    80000f88:	fb043783          	ld	a5,-80(s0)
    80000f8c:	00178793          	addi	a5,a5,1
    80000f90:	faf43823          	sd	a5,-80(s0)
				while (*s2) {
    80000f94:	fb1ff06f          	j	80000f44 <_ZL10_vsnprintfPcmPKcPv+0x384>
				}
				longarg = 0;
    80000f98:	fe042423          	sw	zero,-24(s0)
				format = 0;
    80000f9c:	fe042623          	sw	zero,-20(s0)
				break;
    80000fa0:	0b40006f          	j	80001054 <_ZL10_vsnprintfPcmPKcPv+0x494>
			}
			case 'c': {
				if (out && pos < n) {
    80000fa4:	f9843783          	ld	a5,-104(s0)
    80000fa8:	02078a63          	beqz	a5,80000fdc <_ZL10_vsnprintfPcmPKcPv+0x41c>
    80000fac:	fe043703          	ld	a4,-32(s0)
    80000fb0:	f9043783          	ld	a5,-112(s0)
    80000fb4:	02f77463          	bgeu	a4,a5,80000fdc <_ZL10_vsnprintfPcmPKcPv+0x41c>
					out[pos] = (char)va_arg(vl,int);
    80000fb8:	f8043783          	ld	a5,-128(s0)
    80000fbc:	00878713          	addi	a4,a5,8
    80000fc0:	f8e43023          	sd	a4,-128(s0)
    80000fc4:	0007a683          	lw	a3,0(a5)
    80000fc8:	f9843703          	ld	a4,-104(s0)
    80000fcc:	fe043783          	ld	a5,-32(s0)
    80000fd0:	00f707b3          	add	a5,a4,a5
    80000fd4:	0ff6f713          	andi	a4,a3,255
    80000fd8:	00e78023          	sb	a4,0(a5)
				}
				pos++;
    80000fdc:	fe043783          	ld	a5,-32(s0)
    80000fe0:	00178793          	addi	a5,a5,1
    80000fe4:	fef43023          	sd	a5,-32(s0)
				longarg = 0;
    80000fe8:	fe042423          	sw	zero,-24(s0)
				format = 0;
    80000fec:	fe042623          	sw	zero,-20(s0)
				break;
    80000ff0:	0640006f          	j	80001054 <_ZL10_vsnprintfPcmPKcPv+0x494>
			}
			default:
				break;
			}
		} else if (*s == '%') {
    80000ff4:	f8843783          	ld	a5,-120(s0)
    80000ff8:	0007c783          	lbu	a5,0(a5)
    80000ffc:	00078713          	mv	a4,a5
    80001000:	02500793          	li	a5,37
    80001004:	00f71863          	bne	a4,a5,80001014 <_ZL10_vsnprintfPcmPKcPv+0x454>
			format = 1;
    80001008:	00100793          	li	a5,1
    8000100c:	fef42623          	sw	a5,-20(s0)
    80001010:	0440006f          	j	80001054 <_ZL10_vsnprintfPcmPKcPv+0x494>
		} else {
			if (out && pos < n) {
    80001014:	f9843783          	ld	a5,-104(s0)
    80001018:	02078463          	beqz	a5,80001040 <_ZL10_vsnprintfPcmPKcPv+0x480>
    8000101c:	fe043703          	ld	a4,-32(s0)
    80001020:	f9043783          	ld	a5,-112(s0)
    80001024:	00f77e63          	bgeu	a4,a5,80001040 <_ZL10_vsnprintfPcmPKcPv+0x480>
				out[pos] = *s;
    80001028:	f9843703          	ld	a4,-104(s0)
    8000102c:	fe043783          	ld	a5,-32(s0)
    80001030:	00f707b3          	add	a5,a4,a5
    80001034:	f8843703          	ld	a4,-120(s0)
    80001038:	00074703          	lbu	a4,0(a4)
    8000103c:	00e78023          	sb	a4,0(a5)
			}
			pos++;
    80001040:	fe043783          	ld	a5,-32(s0)
    80001044:	00178793          	addi	a5,a5,1
    80001048:	fef43023          	sd	a5,-32(s0)
    8000104c:	0080006f          	j	80001054 <_ZL10_vsnprintfPcmPKcPv+0x494>
				break;
    80001050:	00000013          	nop
	for (; *s; s++) {
    80001054:	f8843783          	ld	a5,-120(s0)
    80001058:	00178793          	addi	a5,a5,1
    8000105c:	f8f43423          	sd	a5,-120(s0)
    80001060:	b89ff06f          	j	80000be8 <_ZL10_vsnprintfPcmPKcPv+0x28>
		}
    	}
	if (out && pos < n) {
    80001064:	f9843783          	ld	a5,-104(s0)
    80001068:	02078263          	beqz	a5,8000108c <_ZL10_vsnprintfPcmPKcPv+0x4cc>
    8000106c:	fe043703          	ld	a4,-32(s0)
    80001070:	f9043783          	ld	a5,-112(s0)
    80001074:	00f77c63          	bgeu	a4,a5,8000108c <_ZL10_vsnprintfPcmPKcPv+0x4cc>
		out[pos] = 0;
    80001078:	f9843703          	ld	a4,-104(s0)
    8000107c:	fe043783          	ld	a5,-32(s0)
    80001080:	00f707b3          	add	a5,a4,a5
    80001084:	00078023          	sb	zero,0(a5)
    80001088:	0280006f          	j	800010b0 <_ZL10_vsnprintfPcmPKcPv+0x4f0>
	} else if (out && n) {
    8000108c:	f9843783          	ld	a5,-104(s0)
    80001090:	02078063          	beqz	a5,800010b0 <_ZL10_vsnprintfPcmPKcPv+0x4f0>
    80001094:	f9043783          	ld	a5,-112(s0)
    80001098:	00078c63          	beqz	a5,800010b0 <_ZL10_vsnprintfPcmPKcPv+0x4f0>
		out[n-1] = 0;
    8000109c:	f9043783          	ld	a5,-112(s0)
    800010a0:	fff78793          	addi	a5,a5,-1
    800010a4:	f9843703          	ld	a4,-104(s0)
    800010a8:	00f707b3          	add	a5,a4,a5
    800010ac:	00078023          	sb	zero,0(a5)
	}
	return pos;
    800010b0:	fe043783          	ld	a5,-32(s0)
    800010b4:	0007879b          	sext.w	a5,a5
}
    800010b8:	00078513          	mv	a0,a5
    800010bc:	07813403          	ld	s0,120(sp)
    800010c0:	08010113          	addi	sp,sp,128
    800010c4:	00008067          	ret

00000000800010c8 <_ZL8_vprintfPKcPv>:

static char out_buf[1000]; // buffer for _vprintf()

static int _vprintf(const char* s, va_list vl)
{
    800010c8:	fd010113          	addi	sp,sp,-48
    800010cc:	02113423          	sd	ra,40(sp)
    800010d0:	02813023          	sd	s0,32(sp)
    800010d4:	03010413          	addi	s0,sp,48
    800010d8:	fca43c23          	sd	a0,-40(s0)
    800010dc:	fcb43823          	sd	a1,-48(s0)
	int res = _vsnprintf(NULL, -1, s, vl);
    800010e0:	fd043683          	ld	a3,-48(s0)
    800010e4:	fd843603          	ld	a2,-40(s0)
    800010e8:	fff00593          	li	a1,-1
    800010ec:	00000513          	li	a0,0
    800010f0:	ad1ff0ef          	jal	ra,80000bc0 <_ZL10_vsnprintfPcmPKcPv>
    800010f4:	00050793          	mv	a5,a0
    800010f8:	fef42623          	sw	a5,-20(s0)
	if (res+1 >= sizeof(out_buf)) {
    800010fc:	fec42783          	lw	a5,-20(s0)
    80001100:	0017879b          	addiw	a5,a5,1
    80001104:	0007879b          	sext.w	a5,a5
    80001108:	00078713          	mv	a4,a5
    8000110c:	3e700793          	li	a5,999
    80001110:	02e7f063          	bgeu	a5,a4,80001130 <_ZL8_vprintfPKcPv+0x68>
		puts("error: output string size overflow\n");
    80001114:	00003797          	auipc	a5,0x3
    80001118:	ef478793          	addi	a5,a5,-268 # 80004008 <puts>
    8000111c:	0007b783          	ld	a5,0(a5)
    80001120:	00000517          	auipc	a0,0x0
    80001124:	7b850513          	addi	a0,a0,1976 # 800018d8 <memcmp+0x1ac>
    80001128:	000780e7          	jalr	a5
		while(1) {}
    8000112c:	0000006f          	j	8000112c <_ZL8_vprintfPKcPv+0x64>
	}
	_vsnprintf(out_buf, res + 1, s, vl);
    80001130:	fec42783          	lw	a5,-20(s0)
    80001134:	0017879b          	addiw	a5,a5,1
    80001138:	0007879b          	sext.w	a5,a5
    8000113c:	fd043683          	ld	a3,-48(s0)
    80001140:	fd843603          	ld	a2,-40(s0)
    80001144:	00078593          	mv	a1,a5
    80001148:	00003517          	auipc	a0,0x3
    8000114c:	0e050513          	addi	a0,a0,224 # 80004228 <_ZL7out_buf>
    80001150:	a71ff0ef          	jal	ra,80000bc0 <_ZL10_vsnprintfPcmPKcPv>
	puts(out_buf);
    80001154:	00003797          	auipc	a5,0x3
    80001158:	eb478793          	addi	a5,a5,-332 # 80004008 <puts>
    8000115c:	0007b783          	ld	a5,0(a5)
    80001160:	00003517          	auipc	a0,0x3
    80001164:	0c850513          	addi	a0,a0,200 # 80004228 <_ZL7out_buf>
    80001168:	000780e7          	jalr	a5
	return res;
    8000116c:	fec42783          	lw	a5,-20(s0)
}
    80001170:	00078513          	mv	a0,a5
    80001174:	02813083          	ld	ra,40(sp)
    80001178:	02013403          	ld	s0,32(sp)
    8000117c:	03010113          	addi	sp,sp,48
    80001180:	00008067          	ret

0000000080001184 <printf>:

int printf(const char* s, ...)
{
    80001184:	f9010113          	addi	sp,sp,-112
    80001188:	02113423          	sd	ra,40(sp)
    8000118c:	02813023          	sd	s0,32(sp)
    80001190:	03010413          	addi	s0,sp,48
    80001194:	fca43c23          	sd	a0,-40(s0)
    80001198:	00b43423          	sd	a1,8(s0)
    8000119c:	00c43823          	sd	a2,16(s0)
    800011a0:	00d43c23          	sd	a3,24(s0)
    800011a4:	02e43023          	sd	a4,32(s0)
    800011a8:	02f43423          	sd	a5,40(s0)
    800011ac:	03043823          	sd	a6,48(s0)
    800011b0:	03143c23          	sd	a7,56(s0)
	int res = 0;
    800011b4:	fe042623          	sw	zero,-20(s0)
	va_list vl;
	va_start(vl, s);
    800011b8:	04040793          	addi	a5,s0,64
    800011bc:	fcf43823          	sd	a5,-48(s0)
    800011c0:	fd043783          	ld	a5,-48(s0)
    800011c4:	fc878793          	addi	a5,a5,-56
    800011c8:	fef43023          	sd	a5,-32(s0)
	res = _vprintf(s, vl);
    800011cc:	fe043783          	ld	a5,-32(s0)
    800011d0:	00078593          	mv	a1,a5
    800011d4:	fd843503          	ld	a0,-40(s0)
    800011d8:	ef1ff0ef          	jal	ra,800010c8 <_ZL8_vprintfPKcPv>
    800011dc:	00050793          	mv	a5,a0
    800011e0:	fef42623          	sw	a5,-20(s0)
	va_end(vl);
	return res;
    800011e4:	fec42783          	lw	a5,-20(s0)
}
    800011e8:	00078513          	mv	a0,a5
    800011ec:	02813083          	ld	ra,40(sp)
    800011f0:	02013403          	ld	s0,32(sp)
    800011f4:	07010113          	addi	sp,sp,112
    800011f8:	00008067          	ret

00000000800011fc <_Z5panicPc>:

void panic(char *s)
{
    800011fc:	fe010113          	addi	sp,sp,-32
    80001200:	00113c23          	sd	ra,24(sp)
    80001204:	00813823          	sd	s0,16(sp)
    80001208:	02010413          	addi	s0,sp,32
    8000120c:	fea43423          	sd	a0,-24(s0)
	printf("panic: ");
    80001210:	00000517          	auipc	a0,0x0
    80001214:	6f050513          	addi	a0,a0,1776 # 80001900 <memcmp+0x1d4>
    80001218:	f6dff0ef          	jal	ra,80001184 <printf>
	printf(s);
    8000121c:	fe843503          	ld	a0,-24(s0)
    80001220:	f65ff0ef          	jal	ra,80001184 <printf>
	printf("\n");
    80001224:	00000517          	auipc	a0,0x0
    80001228:	6e450513          	addi	a0,a0,1764 # 80001908 <memcmp+0x1dc>
    8000122c:	f59ff0ef          	jal	ra,80001184 <printf>
	while(1){};
    80001230:	0000006f          	j	80001230 <_Z5panicPc+0x34>

0000000080001234 <halt>:
}
void halt(int errno){
    80001234:	fe010113          	addi	sp,sp,-32
    80001238:	00813c23          	sd	s0,24(sp)
    8000123c:	02010413          	addi	s0,sp,32
    80001240:	00050793          	mv	a5,a0
    80001244:	fef42623          	sw	a5,-20(s0)
	while(1)asm("wfi");
    80001248:	10500073          	wfi
    8000124c:	ffdff06f          	j	80001248 <halt+0x14>

0000000080001250 <strlen>:
}


size_t strlen(const char *s) {
    80001250:	fd010113          	addi	sp,sp,-48
    80001254:	02813423          	sd	s0,40(sp)
    80001258:	03010413          	addi	s0,sp,48
    8000125c:	fca43c23          	sd	a0,-40(s0)
  size_t len=0;
    80001260:	fe043423          	sd	zero,-24(s0)
  while(*s)s++,len++;
    80001264:	fd843783          	ld	a5,-40(s0)
    80001268:	0007c783          	lbu	a5,0(a5)
    8000126c:	02078063          	beqz	a5,8000128c <strlen+0x3c>
    80001270:	fd843783          	ld	a5,-40(s0)
    80001274:	00178793          	addi	a5,a5,1
    80001278:	fcf43c23          	sd	a5,-40(s0)
    8000127c:	fe843783          	ld	a5,-24(s0)
    80001280:	00178793          	addi	a5,a5,1
    80001284:	fef43423          	sd	a5,-24(s0)
    80001288:	fddff06f          	j	80001264 <strlen+0x14>
  return len;
    8000128c:	fe843783          	ld	a5,-24(s0)
}
    80001290:	00078513          	mv	a0,a5
    80001294:	02813403          	ld	s0,40(sp)
    80001298:	03010113          	addi	sp,sp,48
    8000129c:	00008067          	ret

00000000800012a0 <strcpy>:

char *strcpy(char *dst, const char *src) {
    800012a0:	fd010113          	addi	sp,sp,-48
    800012a4:	02813423          	sd	s0,40(sp)
    800012a8:	03010413          	addi	s0,sp,48
    800012ac:	fca43c23          	sd	a0,-40(s0)
    800012b0:	fcb43823          	sd	a1,-48(s0)
  char *j;
  for(j=dst;*src;src++,j++)*j=*src;
    800012b4:	fd843783          	ld	a5,-40(s0)
    800012b8:	fef43423          	sd	a5,-24(s0)
    800012bc:	fd043783          	ld	a5,-48(s0)
    800012c0:	0007c783          	lbu	a5,0(a5)
    800012c4:	02078863          	beqz	a5,800012f4 <strcpy+0x54>
    800012c8:	fd043783          	ld	a5,-48(s0)
    800012cc:	0007c703          	lbu	a4,0(a5)
    800012d0:	fe843783          	ld	a5,-24(s0)
    800012d4:	00e78023          	sb	a4,0(a5)
    800012d8:	fd043783          	ld	a5,-48(s0)
    800012dc:	00178793          	addi	a5,a5,1
    800012e0:	fcf43823          	sd	a5,-48(s0)
    800012e4:	fe843783          	ld	a5,-24(s0)
    800012e8:	00178793          	addi	a5,a5,1
    800012ec:	fef43423          	sd	a5,-24(s0)
    800012f0:	fcdff06f          	j	800012bc <strcpy+0x1c>
  *j='\0';
    800012f4:	fe843783          	ld	a5,-24(s0)
    800012f8:	00078023          	sb	zero,0(a5)
  return dst;
    800012fc:	fd843783          	ld	a5,-40(s0)
}
    80001300:	00078513          	mv	a0,a5
    80001304:	02813403          	ld	s0,40(sp)
    80001308:	03010113          	addi	sp,sp,48
    8000130c:	00008067          	ret

0000000080001310 <strncpy>:

char *strncpy(char *dst, const char *src, size_t n) {
    80001310:	fc010113          	addi	sp,sp,-64
    80001314:	02813c23          	sd	s0,56(sp)
    80001318:	04010413          	addi	s0,sp,64
    8000131c:	fca43c23          	sd	a0,-40(s0)
    80001320:	fcb43823          	sd	a1,-48(s0)
    80001324:	fcc43423          	sd	a2,-56(s0)
  char *j;
  size_t cnt=0;
    80001328:	fe043023          	sd	zero,-32(s0)
  for(j=dst;*src&&cnt<n;src++,j++,cnt++)*j=*src;
    8000132c:	fd843783          	ld	a5,-40(s0)
    80001330:	fef43423          	sd	a5,-24(s0)
    80001334:	fd043783          	ld	a5,-48(s0)
    80001338:	0007c783          	lbu	a5,0(a5)
    8000133c:	04078463          	beqz	a5,80001384 <strncpy+0x74>
    80001340:	fe043703          	ld	a4,-32(s0)
    80001344:	fc843783          	ld	a5,-56(s0)
    80001348:	02f77e63          	bgeu	a4,a5,80001384 <strncpy+0x74>
    8000134c:	fd043783          	ld	a5,-48(s0)
    80001350:	0007c703          	lbu	a4,0(a5)
    80001354:	fe843783          	ld	a5,-24(s0)
    80001358:	00e78023          	sb	a4,0(a5)
    8000135c:	fd043783          	ld	a5,-48(s0)
    80001360:	00178793          	addi	a5,a5,1
    80001364:	fcf43823          	sd	a5,-48(s0)
    80001368:	fe843783          	ld	a5,-24(s0)
    8000136c:	00178793          	addi	a5,a5,1
    80001370:	fef43423          	sd	a5,-24(s0)
    80001374:	fe043783          	ld	a5,-32(s0)
    80001378:	00178793          	addi	a5,a5,1
    8000137c:	fef43023          	sd	a5,-32(s0)
    80001380:	fb5ff06f          	j	80001334 <strncpy+0x24>
  for(;cnt<n;j++,cnt++)*j='\0';
    80001384:	fe043703          	ld	a4,-32(s0)
    80001388:	fc843783          	ld	a5,-56(s0)
    8000138c:	02f77463          	bgeu	a4,a5,800013b4 <strncpy+0xa4>
    80001390:	fe843783          	ld	a5,-24(s0)
    80001394:	00078023          	sb	zero,0(a5)
    80001398:	fe843783          	ld	a5,-24(s0)
    8000139c:	00178793          	addi	a5,a5,1
    800013a0:	fef43423          	sd	a5,-24(s0)
    800013a4:	fe043783          	ld	a5,-32(s0)
    800013a8:	00178793          	addi	a5,a5,1
    800013ac:	fef43023          	sd	a5,-32(s0)
    800013b0:	fd5ff06f          	j	80001384 <strncpy+0x74>
  return dst;
    800013b4:	fd843783          	ld	a5,-40(s0)
}
    800013b8:	00078513          	mv	a0,a5
    800013bc:	03813403          	ld	s0,56(sp)
    800013c0:	04010113          	addi	sp,sp,64
    800013c4:	00008067          	ret

00000000800013c8 <strcat>:

char *strcat(char *dst, const char *src) {
    800013c8:	fd010113          	addi	sp,sp,-48
    800013cc:	02813423          	sd	s0,40(sp)
    800013d0:	03010413          	addi	s0,sp,48
    800013d4:	fca43c23          	sd	a0,-40(s0)
    800013d8:	fcb43823          	sd	a1,-48(s0)
  char *j=dst;
    800013dc:	fd843783          	ld	a5,-40(s0)
    800013e0:	fef43423          	sd	a5,-24(s0)
  while(*j)j++;
    800013e4:	fe843783          	ld	a5,-24(s0)
    800013e8:	0007c783          	lbu	a5,0(a5)
    800013ec:	00078a63          	beqz	a5,80001400 <strcat+0x38>
    800013f0:	fe843783          	ld	a5,-24(s0)
    800013f4:	00178793          	addi	a5,a5,1
    800013f8:	fef43423          	sd	a5,-24(s0)
    800013fc:	fe9ff06f          	j	800013e4 <strcat+0x1c>
  for(;*src;src++,j++)*j=*src;
    80001400:	fd043783          	ld	a5,-48(s0)
    80001404:	0007c783          	lbu	a5,0(a5)
    80001408:	02078863          	beqz	a5,80001438 <strcat+0x70>
    8000140c:	fd043783          	ld	a5,-48(s0)
    80001410:	0007c703          	lbu	a4,0(a5)
    80001414:	fe843783          	ld	a5,-24(s0)
    80001418:	00e78023          	sb	a4,0(a5)
    8000141c:	fd043783          	ld	a5,-48(s0)
    80001420:	00178793          	addi	a5,a5,1
    80001424:	fcf43823          	sd	a5,-48(s0)
    80001428:	fe843783          	ld	a5,-24(s0)
    8000142c:	00178793          	addi	a5,a5,1
    80001430:	fef43423          	sd	a5,-24(s0)
    80001434:	fcdff06f          	j	80001400 <strcat+0x38>
  *j='\0';
    80001438:	fe843783          	ld	a5,-24(s0)
    8000143c:	00078023          	sb	zero,0(a5)
  return dst;
    80001440:	fd843783          	ld	a5,-40(s0)
}
    80001444:	00078513          	mv	a0,a5
    80001448:	02813403          	ld	s0,40(sp)
    8000144c:	03010113          	addi	sp,sp,48
    80001450:	00008067          	ret

0000000080001454 <strcmp>:

int strcmp(const char *s1, const char *s2) {
    80001454:	fe010113          	addi	sp,sp,-32
    80001458:	00813c23          	sd	s0,24(sp)
    8000145c:	02010413          	addi	s0,sp,32
    80001460:	fea43423          	sd	a0,-24(s0)
    80001464:	feb43023          	sd	a1,-32(s0)
  for(;*s1==*s2;s1++,s2++){
    80001468:	fe843783          	ld	a5,-24(s0)
    8000146c:	0007c703          	lbu	a4,0(a5)
    80001470:	fe043783          	ld	a5,-32(s0)
    80001474:	0007c783          	lbu	a5,0(a5)
    80001478:	02f71a63          	bne	a4,a5,800014ac <strcmp+0x58>
    if(!*s1)return 0;
    8000147c:	fe843783          	ld	a5,-24(s0)
    80001480:	0007c783          	lbu	a5,0(a5)
    80001484:	00079663          	bnez	a5,80001490 <strcmp+0x3c>
    80001488:	00000793          	li	a5,0
    8000148c:	0440006f          	j	800014d0 <strcmp+0x7c>
  for(;*s1==*s2;s1++,s2++){
    80001490:	fe843783          	ld	a5,-24(s0)
    80001494:	00178793          	addi	a5,a5,1
    80001498:	fef43423          	sd	a5,-24(s0)
    8000149c:	fe043783          	ld	a5,-32(s0)
    800014a0:	00178793          	addi	a5,a5,1
    800014a4:	fef43023          	sd	a5,-32(s0)
    800014a8:	fc1ff06f          	j	80001468 <strcmp+0x14>
  }
  return *s1<*s2?-1:1;
    800014ac:	fe843783          	ld	a5,-24(s0)
    800014b0:	0007c703          	lbu	a4,0(a5)
    800014b4:	fe043783          	ld	a5,-32(s0)
    800014b8:	0007c783          	lbu	a5,0(a5)
    800014bc:	00f77663          	bgeu	a4,a5,800014c8 <strcmp+0x74>
    800014c0:	fff00793          	li	a5,-1
    800014c4:	0080006f          	j	800014cc <strcmp+0x78>
    800014c8:	00100793          	li	a5,1
    800014cc:	00000013          	nop
}
    800014d0:	00078513          	mv	a0,a5
    800014d4:	01813403          	ld	s0,24(sp)
    800014d8:	02010113          	addi	sp,sp,32
    800014dc:	00008067          	ret

00000000800014e0 <strncmp>:

int strncmp(const char *s1, const char *s2, size_t n) {
    800014e0:	fc010113          	addi	sp,sp,-64
    800014e4:	02813c23          	sd	s0,56(sp)
    800014e8:	04010413          	addi	s0,sp,64
    800014ec:	fca43c23          	sd	a0,-40(s0)
    800014f0:	fcb43823          	sd	a1,-48(s0)
    800014f4:	fcc43423          	sd	a2,-56(s0)
  size_t cnt=1;
    800014f8:	00100793          	li	a5,1
    800014fc:	fef43423          	sd	a5,-24(s0)
  if(n==0)return 0;
    80001500:	fc843783          	ld	a5,-56(s0)
    80001504:	00079663          	bnez	a5,80001510 <strncmp+0x30>
    80001508:	00000793          	li	a5,0
    8000150c:	0840006f          	j	80001590 <strncmp+0xb0>
  for(;*s1==*s2;s1++,s2++,cnt++){
    80001510:	fd843783          	ld	a5,-40(s0)
    80001514:	0007c703          	lbu	a4,0(a5)
    80001518:	fd043783          	ld	a5,-48(s0)
    8000151c:	0007c783          	lbu	a5,0(a5)
    80001520:	04f71663          	bne	a4,a5,8000156c <strncmp+0x8c>
    if(!*s1||cnt==n)return 0;
    80001524:	fd843783          	ld	a5,-40(s0)
    80001528:	0007c783          	lbu	a5,0(a5)
    8000152c:	00078863          	beqz	a5,8000153c <strncmp+0x5c>
    80001530:	fe843703          	ld	a4,-24(s0)
    80001534:	fc843783          	ld	a5,-56(s0)
    80001538:	00f71663          	bne	a4,a5,80001544 <strncmp+0x64>
    8000153c:	00000793          	li	a5,0
    80001540:	0500006f          	j	80001590 <strncmp+0xb0>
  for(;*s1==*s2;s1++,s2++,cnt++){
    80001544:	fd843783          	ld	a5,-40(s0)
    80001548:	00178793          	addi	a5,a5,1
    8000154c:	fcf43c23          	sd	a5,-40(s0)
    80001550:	fd043783          	ld	a5,-48(s0)
    80001554:	00178793          	addi	a5,a5,1
    80001558:	fcf43823          	sd	a5,-48(s0)
    8000155c:	fe843783          	ld	a5,-24(s0)
    80001560:	00178793          	addi	a5,a5,1
    80001564:	fef43423          	sd	a5,-24(s0)
    80001568:	fa9ff06f          	j	80001510 <strncmp+0x30>
  }
  return *s1<*s2?-1:1;
    8000156c:	fd843783          	ld	a5,-40(s0)
    80001570:	0007c703          	lbu	a4,0(a5)
    80001574:	fd043783          	ld	a5,-48(s0)
    80001578:	0007c783          	lbu	a5,0(a5)
    8000157c:	00f77663          	bgeu	a4,a5,80001588 <strncmp+0xa8>
    80001580:	fff00793          	li	a5,-1
    80001584:	0080006f          	j	8000158c <strncmp+0xac>
    80001588:	00100793          	li	a5,1
    8000158c:	00000013          	nop
}
    80001590:	00078513          	mv	a0,a5
    80001594:	03813403          	ld	s0,56(sp)
    80001598:	04010113          	addi	sp,sp,64
    8000159c:	00008067          	ret

00000000800015a0 <memset>:

void *memset(void *s, int c, size_t n) {
    800015a0:	fc010113          	addi	sp,sp,-64
    800015a4:	02813c23          	sd	s0,56(sp)
    800015a8:	04010413          	addi	s0,sp,64
    800015ac:	fca43c23          	sd	a0,-40(s0)
    800015b0:	00058793          	mv	a5,a1
    800015b4:	fcc43423          	sd	a2,-56(s0)
    800015b8:	fcf42a23          	sw	a5,-44(s0)
  for(char *b=(char*)s;b-(char*)s<n;b++)*b=c;
    800015bc:	fd843783          	ld	a5,-40(s0)
    800015c0:	fef43423          	sd	a5,-24(s0)
    800015c4:	fe843703          	ld	a4,-24(s0)
    800015c8:	fd843783          	ld	a5,-40(s0)
    800015cc:	40f707b3          	sub	a5,a4,a5
    800015d0:	00078713          	mv	a4,a5
    800015d4:	fc843783          	ld	a5,-56(s0)
    800015d8:	02f77263          	bgeu	a4,a5,800015fc <memset+0x5c>
    800015dc:	fd442783          	lw	a5,-44(s0)
    800015e0:	0ff7f713          	andi	a4,a5,255
    800015e4:	fe843783          	ld	a5,-24(s0)
    800015e8:	00e78023          	sb	a4,0(a5)
    800015ec:	fe843783          	ld	a5,-24(s0)
    800015f0:	00178793          	addi	a5,a5,1
    800015f4:	fef43423          	sd	a5,-24(s0)
    800015f8:	fcdff06f          	j	800015c4 <memset+0x24>
  return s;
    800015fc:	fd843783          	ld	a5,-40(s0)
}
    80001600:	00078513          	mv	a0,a5
    80001604:	03813403          	ld	s0,56(sp)
    80001608:	04010113          	addi	sp,sp,64
    8000160c:	00008067          	ret

0000000080001610 <memmove>:

void *memmove(void *dst, const void *src, size_t n) {
    80001610:	fc010113          	addi	sp,sp,-64
    80001614:	02813c23          	sd	s0,56(sp)
    80001618:	04010413          	addi	s0,sp,64
    8000161c:	fca43c23          	sd	a0,-40(s0)
    80001620:	fcb43823          	sd	a1,-48(s0)
    80001624:	fcc43423          	sd	a2,-56(s0)
  // may overlap
  const char *i=(const char*)src;
    80001628:	fd043783          	ld	a5,-48(s0)
    8000162c:	fef43423          	sd	a5,-24(s0)
  char *j=(char*)dst;
    80001630:	fd843783          	ld	a5,-40(s0)
    80001634:	fef43023          	sd	a5,-32(s0)
  for(i+=n-1,j+=n-1;i>=(const char*)src;i--,j--)*j=*i;
    80001638:	fc843783          	ld	a5,-56(s0)
    8000163c:	fff78793          	addi	a5,a5,-1
    80001640:	fe843703          	ld	a4,-24(s0)
    80001644:	00f707b3          	add	a5,a4,a5
    80001648:	fef43423          	sd	a5,-24(s0)
    8000164c:	fc843783          	ld	a5,-56(s0)
    80001650:	fff78793          	addi	a5,a5,-1
    80001654:	fe043703          	ld	a4,-32(s0)
    80001658:	00f707b3          	add	a5,a4,a5
    8000165c:	fef43023          	sd	a5,-32(s0)
    80001660:	fe843703          	ld	a4,-24(s0)
    80001664:	fd043783          	ld	a5,-48(s0)
    80001668:	02f76863          	bltu	a4,a5,80001698 <memmove+0x88>
    8000166c:	fe843783          	ld	a5,-24(s0)
    80001670:	0007c703          	lbu	a4,0(a5)
    80001674:	fe043783          	ld	a5,-32(s0)
    80001678:	00e78023          	sb	a4,0(a5)
    8000167c:	fe843783          	ld	a5,-24(s0)
    80001680:	fff78793          	addi	a5,a5,-1
    80001684:	fef43423          	sd	a5,-24(s0)
    80001688:	fe043783          	ld	a5,-32(s0)
    8000168c:	fff78793          	addi	a5,a5,-1
    80001690:	fef43023          	sd	a5,-32(s0)
    80001694:	fcdff06f          	j	80001660 <memmove+0x50>
  return dst;
    80001698:	fd843783          	ld	a5,-40(s0)
}
    8000169c:	00078513          	mv	a0,a5
    800016a0:	03813403          	ld	s0,56(sp)
    800016a4:	04010113          	addi	sp,sp,64
    800016a8:	00008067          	ret

00000000800016ac <memcpy>:

void *memcpy(void *out, const void *in, size_t n) {
    800016ac:	fc010113          	addi	sp,sp,-64
    800016b0:	02813c23          	sd	s0,56(sp)
    800016b4:	04010413          	addi	s0,sp,64
    800016b8:	fca43c23          	sd	a0,-40(s0)
    800016bc:	fcb43823          	sd	a1,-48(s0)
    800016c0:	fcc43423          	sd	a2,-56(s0)
  const char *i=(const char*)in;
    800016c4:	fd043783          	ld	a5,-48(s0)
    800016c8:	fef43423          	sd	a5,-24(s0)
  char *j=(char*)out;
    800016cc:	fd843783          	ld	a5,-40(s0)
    800016d0:	fef43023          	sd	a5,-32(s0)
  for(;j-((char*)out)<n;i++,j++)*j=*i;
    800016d4:	fe043703          	ld	a4,-32(s0)
    800016d8:	fd843783          	ld	a5,-40(s0)
    800016dc:	40f707b3          	sub	a5,a4,a5
    800016e0:	00078713          	mv	a4,a5
    800016e4:	fc843783          	ld	a5,-56(s0)
    800016e8:	02f77863          	bgeu	a4,a5,80001718 <memcpy+0x6c>
    800016ec:	fe843783          	ld	a5,-24(s0)
    800016f0:	0007c703          	lbu	a4,0(a5)
    800016f4:	fe043783          	ld	a5,-32(s0)
    800016f8:	00e78023          	sb	a4,0(a5)
    800016fc:	fe843783          	ld	a5,-24(s0)
    80001700:	00178793          	addi	a5,a5,1
    80001704:	fef43423          	sd	a5,-24(s0)
    80001708:	fe043783          	ld	a5,-32(s0)
    8000170c:	00178793          	addi	a5,a5,1
    80001710:	fef43023          	sd	a5,-32(s0)
    80001714:	fc1ff06f          	j	800016d4 <memcpy+0x28>
  return out;
    80001718:	fd843783          	ld	a5,-40(s0)
}
    8000171c:	00078513          	mv	a0,a5
    80001720:	03813403          	ld	s0,56(sp)
    80001724:	04010113          	addi	sp,sp,64
    80001728:	00008067          	ret

000000008000172c <memcmp>:

int memcmp(const void *s1, const void *s2, size_t n) {
    8000172c:	fb010113          	addi	sp,sp,-80
    80001730:	04813423          	sd	s0,72(sp)
    80001734:	05010413          	addi	s0,sp,80
    80001738:	fca43423          	sd	a0,-56(s0)
    8000173c:	fcb43023          	sd	a1,-64(s0)
    80001740:	fac43c23          	sd	a2,-72(s0)
  size_t cnt=1;
    80001744:	00100793          	li	a5,1
    80001748:	fef43423          	sd	a5,-24(s0)
  const unsigned char *i=(const unsigned char*)s1, *j=(const unsigned char*)s2;
    8000174c:	fc843783          	ld	a5,-56(s0)
    80001750:	fef43023          	sd	a5,-32(s0)
    80001754:	fc043783          	ld	a5,-64(s0)
    80001758:	fcf43c23          	sd	a5,-40(s0)
  if(n==0)return 0;
    8000175c:	fb843783          	ld	a5,-72(s0)
    80001760:	00079663          	bnez	a5,8000176c <memcmp+0x40>
    80001764:	00000793          	li	a5,0
    80001768:	0840006f          	j	800017ec <memcmp+0xc0>
  for(;*i==*j;i++,j++,cnt++){
    8000176c:	fe043783          	ld	a5,-32(s0)
    80001770:	0007c703          	lbu	a4,0(a5)
    80001774:	fd843783          	ld	a5,-40(s0)
    80001778:	0007c783          	lbu	a5,0(a5)
    8000177c:	04f71663          	bne	a4,a5,800017c8 <memcmp+0x9c>
    if(!*i||cnt>=n)return 0;
    80001780:	fe043783          	ld	a5,-32(s0)
    80001784:	0007c783          	lbu	a5,0(a5)
    80001788:	00078863          	beqz	a5,80001798 <memcmp+0x6c>
    8000178c:	fe843703          	ld	a4,-24(s0)
    80001790:	fb843783          	ld	a5,-72(s0)
    80001794:	00f76663          	bltu	a4,a5,800017a0 <memcmp+0x74>
    80001798:	00000793          	li	a5,0
    8000179c:	0500006f          	j	800017ec <memcmp+0xc0>
  for(;*i==*j;i++,j++,cnt++){
    800017a0:	fe043783          	ld	a5,-32(s0)
    800017a4:	00178793          	addi	a5,a5,1
    800017a8:	fef43023          	sd	a5,-32(s0)
    800017ac:	fd843783          	ld	a5,-40(s0)
    800017b0:	00178793          	addi	a5,a5,1
    800017b4:	fcf43c23          	sd	a5,-40(s0)
    800017b8:	fe843783          	ld	a5,-24(s0)
    800017bc:	00178793          	addi	a5,a5,1
    800017c0:	fef43423          	sd	a5,-24(s0)
    800017c4:	fa9ff06f          	j	8000176c <memcmp+0x40>
  }
  return *i<*j?-1:1;
    800017c8:	fe043783          	ld	a5,-32(s0)
    800017cc:	0007c703          	lbu	a4,0(a5)
    800017d0:	fd843783          	ld	a5,-40(s0)
    800017d4:	0007c783          	lbu	a5,0(a5)
    800017d8:	00f77663          	bgeu	a4,a5,800017e4 <memcmp+0xb8>
    800017dc:	fff00793          	li	a5,-1
    800017e0:	0080006f          	j	800017e8 <memcmp+0xbc>
    800017e4:	00100793          	li	a5,1
    800017e8:	00000013          	nop
}
    800017ec:	00078513          	mv	a0,a5
    800017f0:	04813403          	ld	s0,72(sp)
    800017f4:	05010113          	addi	sp,sp,80
    800017f8:	00008067          	ret

Disassembly of section .rodata:

0000000080001800 <.rodata>:
    80001800:	2526                	fld	fa0,72(sp)
    80001802:	7c64                	ld	s1,248(s0)
    80001804:	6425                	lui	s0,0x9
    80001806:	005e                	c.slli	zero,0x17
    80001808:	6974                	ld	a3,208(a0)
    8000180a:	656d                	lui	a0,0x1b
    8000180c:	2072                	fld	ft0,280(sp)
    8000180e:	6e49                	lui	t3,0x12
    80001810:	6574                	ld	a3,200(a0)
    80001812:	7272                	ld	tp,312(sp)
    80001814:	7075                	c.lui	zero,0xffffd
    80001816:	5b74                	lw	a3,116(a4)
    80001818:	6425                	lui	s0,0x9
    8000181a:	3a5d                	addiw	s4,s4,-9
    8000181c:	253a                	fld	fa0,392(sp)
    8000181e:	646c                	ld	a1,200(s0)
    80001820:	000a                	c.slli	zero,0x2
    80001822:	0000                	unimp
    80001824:	0000                	unimp
    80001826:	0000                	unimp
    80001828:	61636573          	csrrsi	a0,0x616,6
    8000182c:	6c6c                	ld	a1,216(s0)
    8000182e:	5b20                	lw	s0,112(a4)
    80001830:	6425                	lui	s0,0x9
    80001832:	0a5d                	addi	s4,s4,23
    80001834:	0000                	unimp
    80001836:	0000                	unimp
    80001838:	7865                	lui	a6,0xffff9
    8000183a:	74706563          	bltu	zero,t2,80001f84 <_ZN8platform3ramL3endE+0x574>
    8000183e:	6f69                	lui	t5,0x1a
    80001840:	256e                	fld	fa0,216(sp)
    80001842:	2064                	fld	fs1,192(s0)
    80001844:	7025                	c.lui	zero,0xfffe9
    80001846:	2520                	fld	fs0,72(a0)
    80001848:	0a70                	addi	a2,sp,284
    8000184a:	0000                	unimp
    8000184c:	0000                	unimp
    8000184e:	0000                	unimp
    80001850:	6548                	ld	a0,136(a0)
    80001852:	6c6c                	ld	a1,216(s0)
    80001854:	6155206f          	j	80054668 <_ZL7out_buf+0x50440>
    80001858:	7472                	ld	s0,312(sp)
    8000185a:	000a                	c.slli	zero,0x2
    8000185c:	0000                	unimp
    8000185e:	0000                	unimp
    80001860:	746d                	lui	s0,0xffffb
    80001862:	6172                	ld	sp,280(sp)
    80001864:	2070                	fld	fa2,192(s0)
    80001866:	6574                	ld	a3,200(a0)
    80001868:	6f207473          	csrrci	s0,0x6f2,0
    8000186c:	6576                	ld	a0,344(sp)
    8000186e:	0072                	c.slli	zero,0x1c
    80001870:	6c70                	ld	a2,216(s0)
    80001872:	6369                	lui	t1,0x1a
    80001874:	6920                	ld	s0,80(a0)
    80001876:	696e                	ld	s2,216(sp)
    80001878:	2074                	fld	fa3,192(s0)
    8000187a:	7265766f          	jal	a2,80058fa0 <_ZL7out_buf+0x54d78>
    8000187e:	000a                	c.slli	zero,0x2
    80001880:	f724                	sd	s1,104(a4)
    80001882:	f54cffff          	0xf54cffff
    80001886:	f7d0ffff          	0xf7d0ffff
    8000188a:	f7d0ffff          	0xf7d0ffff
    8000188e:	f7d0ffff          	0xf7d0ffff
    80001892:	f7d0ffff          	0xf7d0ffff
    80001896:	f7d0ffff          	0xf7d0ffff
    8000189a:	f7d0ffff          	0xf7d0ffff
    8000189e:	f7d0ffff          	0xf7d0ffff
    800018a2:	f3ccffff          	0xf3ccffff
    800018a6:	f7d0ffff          	0xf7d0ffff
    800018aa:	f7d0ffff          	0xf7d0ffff
    800018ae:	f7d0ffff          	0xf7d0ffff
    800018b2:	f3d8ffff          	0xf3d8ffff
    800018b6:	f7d0ffff          	0xf7d0ffff
    800018ba:	f7d0ffff          	0xf7d0ffff
    800018be:	f6b0ffff          	0xf6b0ffff
    800018c2:	f7d0ffff          	0xf7d0ffff
    800018c6:	f7d0ffff          	0xf7d0ffff
    800018ca:	f7d0ffff          	0xf7d0ffff
    800018ce:	f7d0ffff          	0xf7d0ffff
    800018d2:	f448ffff          	0xf448ffff
    800018d6:	7265ffff          	0x7265ffff
    800018da:	6f72                	ld	t5,280(sp)
    800018dc:	3a72                	fld	fs4,312(sp)
    800018de:	6f20                	ld	s0,88(a4)
    800018e0:	7475                	lui	s0,0xffffd
    800018e2:	7570                	ld	a2,232(a0)
    800018e4:	2074                	fld	fa3,192(s0)
    800018e6:	69727473          	csrrci	s0,0x697,4
    800018ea:	676e                	ld	a4,216(sp)
    800018ec:	7320                	ld	s0,96(a4)
    800018ee:	7a69                	lui	s4,0xffffa
    800018f0:	2065                	0x2065
    800018f2:	7265766f          	jal	a2,80059018 <_ZL7out_buf+0x54df0>
    800018f6:	6c66                	ld	s8,88(sp)
    800018f8:	000a776f          	jal	a4,800a88f8 <_ZL7out_buf+0xa46d0>
    800018fc:	0000                	unimp
    800018fe:	0000                	unimp
    80001900:	6170                	ld	a2,192(a0)
    80001902:	696e                	ld	s2,216(sp)
    80001904:	00203a63          	0x203a63
    80001908:	000a                	c.slli	zero,0x2

Disassembly of section .srodata:

0000000080001910 <_ZN8platform5uart0L3irqE>:
    80001910:	000a                	c.slli	zero,0x2
    80001912:	0000                	unimp
    80001914:	0000                	unimp
	...

0000000080001918 <_ZN8platform5uart0L4baseE>:
    80001918:	0000                	unimp
    8000191a:	1000                	addi	s0,sp,32
    8000191c:	0000                	unimp
	...

0000000080001920 <_ZN8platform4plicL4baseE>:
    80001920:	0000                	unimp
    80001922:	0c00                	addi	s0,sp,528
    80001924:	0000                	unimp
	...

0000000080001928 <_ZN8platform4plicL8priorityE>:
    80001928:	0000                	unimp
    8000192a:	0c00                	addi	s0,sp,528
    8000192c:	0000                	unimp
	...

0000000080001930 <_ZN8platform4plicL7pendingE>:
    80001930:	1000                	addi	s0,sp,32
    80001932:	0c00                	addi	s0,sp,528
    80001934:	0000                	unimp
	...

0000000080001938 <_ZN8platform4plicL6enableE>:
    80001938:	2000                	fld	fs0,0(s0)
    8000193a:	0c00                	addi	s0,sp,528
    8000193c:	0000                	unimp
	...

0000000080001940 <_ZN8platform4plicL9thresholdE>:
    80001940:	0000                	unimp
    80001942:	0c20                	addi	s0,sp,536
    80001944:	0000                	unimp
	...

0000000080001948 <_ZN8platform4plicL5claimE>:
    80001948:	0004                	0x4
    8000194a:	0c20                	addi	s0,sp,536
    8000194c:	0000                	unimp
	...

0000000080001950 <_ZN8platform5clintL4baseE>:
    80001950:	0000                	unimp
    80001952:	0200                	addi	s0,sp,256
    80001954:	0000                	unimp
	...

0000000080001958 <_ZN8platform5clintL5mtimeE>:
    80001958:	bff8                	fsd	fa4,248(a5)
    8000195a:	0200                	addi	s0,sp,256
    8000195c:	0000                	unimp
	...

0000000080001960 <_ZN8platform5clintL8mtimecmpE>:
    80001960:	4000                	lw	s0,0(s0)
    80001962:	0200                	addi	s0,sp,256
    80001964:	0000                	unimp
	...

0000000080001968 <_ZN8platform3ramL5startE>:
    80001968:	0000                	unimp
    8000196a:	8000                	0x8000
    8000196c:	0000                	unimp
	...

0000000080001970 <_ZN8platform3ramL4sizeE>:
    80001970:	0000                	unimp
    80001972:	0800                	addi	s0,sp,16
    80001974:	0000                	unimp
	...

0000000080001978 <_ZN8platform3ramL3endE>:
    80001978:	0000                	unimp
    8000197a:	8800                	0x8800
    8000197c:	0000                	unimp
	...

0000000080001980 <_ZN2vmL8pageSizeE>:
    80001980:	1000                	addi	s0,sp,32
    80001982:	0000                	unimp
    80001984:	0000                	unimp
	...

0000000080001988 <_ZN2vmL18pageEntriesPerPageE>:
    80001988:	0200                	addi	s0,sp,256
    8000198a:	0000                	unimp
    8000198c:	0000                	unimp
	...

0000000080001990 <_ZN2vmL7vpnMaskE>:
    80001990:	000001ff          	radd16	gp,zero,zero
    80001994:	0000                	unimp
	...

0000000080001998 <_ZN4procL9UserStackE>:
    80001998:	ffffffff          	0xffffffff
    8000199c:	0000                	unimp
	...

00000000800019a0 <_ZN6kernelL13timerIntervalE>:
    800019a0:	4b40                	lw	s0,20(a4)
    800019a2:	004c                	addi	a1,sp,4
    800019a4:	0000                	unimp
	...

00000000800019a8 <_ZN8platform5uart0L3irqE>:
    800019a8:	000a                	c.slli	zero,0x2
    800019aa:	0000                	unimp
    800019ac:	0000                	unimp
	...

00000000800019b0 <_ZN8platform5uart0L4baseE>:
    800019b0:	0000                	unimp
    800019b2:	1000                	addi	s0,sp,32
    800019b4:	0000                	unimp
	...

00000000800019b8 <_ZN8platform4plicL4baseE>:
    800019b8:	0000                	unimp
    800019ba:	0c00                	addi	s0,sp,528
    800019bc:	0000                	unimp
	...

00000000800019c0 <_ZN8platform4plicL8priorityE>:
    800019c0:	0000                	unimp
    800019c2:	0c00                	addi	s0,sp,528
    800019c4:	0000                	unimp
	...

00000000800019c8 <_ZN8platform4plicL7pendingE>:
    800019c8:	1000                	addi	s0,sp,32
    800019ca:	0c00                	addi	s0,sp,528
    800019cc:	0000                	unimp
	...

00000000800019d0 <_ZN8platform4plicL6enableE>:
    800019d0:	2000                	fld	fs0,0(s0)
    800019d2:	0c00                	addi	s0,sp,528
    800019d4:	0000                	unimp
	...

00000000800019d8 <_ZN8platform4plicL9thresholdE>:
    800019d8:	0000                	unimp
    800019da:	0c20                	addi	s0,sp,536
    800019dc:	0000                	unimp
	...

00000000800019e0 <_ZN8platform4plicL5claimE>:
    800019e0:	0004                	0x4
    800019e2:	0c20                	addi	s0,sp,536
    800019e4:	0000                	unimp
	...

00000000800019e8 <_ZN8platform5clintL4baseE>:
    800019e8:	0000                	unimp
    800019ea:	0200                	addi	s0,sp,256
    800019ec:	0000                	unimp
	...

00000000800019f0 <_ZN8platform5clintL5mtimeE>:
    800019f0:	bff8                	fsd	fa4,248(a5)
    800019f2:	0200                	addi	s0,sp,256
    800019f4:	0000                	unimp
	...

00000000800019f8 <_ZN8platform5clintL8mtimecmpE>:
    800019f8:	4000                	lw	s0,0(s0)
    800019fa:	0200                	addi	s0,sp,256
    800019fc:	0000                	unimp
	...

0000000080001a00 <_ZN8platform3ramL5startE>:
    80001a00:	0000                	unimp
    80001a02:	8000                	0x8000
    80001a04:	0000                	unimp
	...

0000000080001a08 <_ZN8platform3ramL4sizeE>:
    80001a08:	0000                	unimp
    80001a0a:	0800                	addi	s0,sp,16
    80001a0c:	0000                	unimp
	...

0000000080001a10 <_ZN8platform3ramL3endE>:
    80001a10:	0000                	unimp
    80001a12:	8800                	0x8800
    80001a14:	0000                	unimp
	...

Disassembly of section .data:

0000000080001a18 <stacks-0x5e8>:
	...

0000000080002000 <stacks>:
	...

Disassembly of section .bss:

0000000080004000 <mstack>:
	...

0000000080004008 <puts>:
	...

0000000080004010 <_ZL3buf>:
	...

00000000800040a0 <_ZL3gpr>:
	...

0000000080004190 <_ZZ24externalInterruptHandlervE8levelcnt>:
    80004190:	0000                	unimp
	...

0000000080004194 <_ZZL21timerInterruptHandlervE3cnt>:
    80004194:	0000                	unimp
	...

0000000080004198 <_ZL3buf>:
	...

0000000080004228 <_ZL7out_buf>:
	...

Disassembly of section .riscv.attributes:

0000000000000000 <.riscv.attributes>:
   0:	2541                	addiw	a0,a0,16
   2:	0000                	unimp
   4:	7200                	ld	s0,32(a2)
   6:	7369                	lui	t1,0xffffa
   8:	01007663          	bgeu	zero,a6,14 <STACK_SIZE-0x3ec>
   c:	0000001b          	sext.w	zero,zero
  10:	1004                	addi	s1,sp,32
  12:	7205                	lui	tp,0xfffe1
  14:	3676                	fld	fa2,376(sp)
  16:	6934                	ld	a3,80(a0)
  18:	7032                	0x7032
  1a:	5f30                	lw	a2,120(a4)
  1c:	326d                	addiw	tp,tp,-5
  1e:	3070                	fld	fa2,224(s0)
  20:	615f 7032 0030      	0x307032615f

Disassembly of section .comment:

0000000000000000 <.comment>:
   0:	3a434347          	fmsub.d	ft6,ft6,ft4,ft7,rmm
   4:	2820                	fld	fs0,80(s0)
   6:	29554e47          	fmsub.s	ft8,fa0,fs5,ft5,rmm
   a:	3920                	fld	fs0,112(a0)
   c:	322e                	fld	ft4,232(sp)
   e:	302e                	fld	ft0,232(sp)
	...

Disassembly of section .debug_line:

0000000000000000 <.debug_line>:
       0:	0068                	addi	a0,sp,12
       2:	0000                	unimp
       4:	001e0003          	lb	zero,1(t3) # 12001 <STACK_SIZE+0x11c01>
       8:	0000                	unimp
       a:	0101                	addi	sp,sp,0
       c:	000d0efb          	0xd0efb
      10:	0101                	addi	sp,sp,0
      12:	0101                	addi	sp,sp,0
      14:	0000                	unimp
      16:	0100                	addi	s0,sp,128
      18:	0000                	unimp
      1a:	0001                	nop
      1c:	72617473          	csrrci	s0,0x726,2
      20:	2e74                	fld	fa3,216(a2)
      22:	00000053          	fadd.s	ft0,ft0,ft0,rne
      26:	0000                	unimp
      28:	0900                	addi	s0,sp,144
      2a:	0002                	c.slli64	zero
      2c:	0000                	unimp
      2e:	0080                	addi	s0,sp,64
      30:	0000                	unimp
      32:	0300                	addi	s0,sp,384
      34:	010c                	addi	a1,sp,128
      36:	04090103          	lb	sp,64(s2)
      3a:	0100                	addi	s0,sp,128
      3c:	04090103          	lb	sp,64(s2)
      40:	0100                	addi	s0,sp,128
      42:	04090403          	lb	s0,64(s2)
      46:	0100                	addi	s0,sp,128
      48:	04090103          	lb	sp,64(s2)
      4c:	0100                	addi	s0,sp,128
      4e:	08090203          	lb	tp,128(s2)
      52:	0100                	addi	s0,sp,128
      54:	04090303          	lb	t1,64(s2)
      58:	0100                	addi	s0,sp,128
      5a:	04090b03          	lb	s6,64(s2)
      5e:	0100                	addi	s0,sp,128
      60:	04090103          	lb	sp,64(s2)
      64:	0100                	addi	s0,sp,128
      66:	0409                	addi	s0,s0,2
      68:	0000                	unimp
      6a:	0101                	addi	sp,sp,0
      6c:	08df 0000 0003      	0x3000008df
      72:	00000107          	0x107
      76:	0101                	addi	sp,sp,0
      78:	000d0efb          	0xd0efb
      7c:	0101                	addi	sp,sp,0
      7e:	0101                	addi	sp,sp,0
      80:	0000                	unimp
      82:	0100                	addi	s0,sp,128
      84:	0000                	unimp
      86:	2e01                	sext.w	t3,t3
      88:	2f2e                	fld	ft10,200(sp)
      8a:	6e69                	lui	t3,0x1a
      8c:	64756c63          	bltu	a0,t2,6e4 <STACK_SIZE+0x2e4>
      90:	0065                	c.nop	25
      92:	6d6f682f          	0x6d6f682f
      96:	2f65                	addiw	t5,t5,25
      98:	797a                	ld	s2,440(sp)
      9a:	702e2f63          	0x702e2f63
      9e:	616c                	ld	a1,192(a0)
      a0:	6674                	ld	a3,200(a2)
      a2:	696d726f          	jal	tp,d7738 <STACK_SIZE+0xd7338>
      a6:	61702f6f          	jal	t5,2ebc <STACK_SIZE+0x2abc>
      aa:	67616b63          	bltu	sp,s6,720 <STACK_SIZE+0x320>
      ae:	7365                	lui	t1,0xffff9
      b0:	6f6f742f          	0x6f6f742f
      b4:	636c                	ld	a1,192(a4)
      b6:	6168                	ld	a0,192(a0)
      b8:	6e69                	lui	t3,0x1a
      ba:	672d                	lui	a4,0xb
      bc:	3364                	fld	fs1,224(a4)
      be:	7632                	ld	a2,296(sp)
      c0:	62696c2f          	0x62696c2f
      c4:	6363672f          	0x6363672f
      c8:	7369722f          	0x7369722f
      cc:	6e2d7663          	bgeu	s10,sp,7b8 <STACK_SIZE+0x3b8>
      d0:	6375                	lui	t1,0x1d
      d2:	656c                	ld	a1,200(a0)
      d4:	2d69                	addiw	s10,s10,26
      d6:	6c65                	lui	s8,0x19
      d8:	2f66                	fld	ft10,88(sp)
      da:	2e39                	addiw	t3,t3,14
      dc:	2e32                	fld	ft8,264(sp)
      de:	2f30                	fld	fa2,88(a4)
      e0:	6e69                	lui	t3,0x1a
      e2:	64756c63          	bltu	a0,t2,73a <STACK_SIZE+0x33a>
      e6:	0065                	c.nop	25
      e8:	7200                	ld	s0,32(a2)
      ea:	6376                	ld	t1,344(sp)
      ec:	682e7273          	csrrci	tp,0x682,28
      f0:	0068                	addi	a0,sp,12
      f2:	0001                	nop
      f4:	7000                	ld	s0,32(s0)
      f6:	616c                	ld	a1,192(a0)
      f8:	6674                	ld	a3,200(a2)
      fa:	2e6d726f          	jal	tp,d73e0 <STACK_SIZE+0xd6fe0>
      fe:	0068                	addi	a0,sp,12
     100:	0001                	nop
     102:	6b00                	ld	s0,16(a4)
     104:	696c                	ld	a1,208(a0)
     106:	2e62                	fld	ft8,24(sp)
     108:	6868                	ld	a0,208(s0)
     10a:	0100                	addi	s0,sp,128
     10c:	0000                	unimp
     10e:	2e696273          	csrrsi	tp,0x2e6,18
     112:	00006363          	bltu	zero,zero,118 <STACK_SIZE-0x2e8>
     116:	0000                	unimp
     118:	7974                	ld	a3,240(a0)
     11a:	6570                	ld	a2,200(a0)
     11c:	00682e73          	csrrs	t3,0x6,a6
     120:	0001                	nop
     122:	7300                	ld	s0,32(a4)
     124:	6474                	ld	a3,200(s0)
     126:	6564                	ld	s1,200(a0)
     128:	2e66                	fld	ft8,88(sp)
     12a:	0068                	addi	a0,sp,12
     12c:	0002                	c.slli64	zero
     12e:	7300                	ld	s0,32(a4)
     130:	6962                	ld	s2,24(sp)
     132:	682e                	ld	a6,200(sp)
     134:	0068                	addi	a0,sp,12
     136:	0001                	nop
     138:	7600                	ld	s0,40(a2)
     13a:	2e6d                	addiw	t3,t3,27
     13c:	6868                	ld	a0,208(s0)
     13e:	0100                	addi	s0,sp,128
     140:	0000                	unimp
     142:	6c61                	lui	s8,0x18
     144:	6f6c                	ld	a1,216(a4)
     146:	68682e63          	0x68682e63
     14a:	0100                	addi	s0,sp,128
     14c:	0000                	unimp
     14e:	62696c6b          	0x62696c6b
     152:	682e                	ld	a6,200(sp)
     154:	0100                	addi	s0,sp,128
     156:	0000                	unimp
     158:	65686373          	csrrsi	t1,0x656,16
     15c:	2e64                	fld	fs1,216(a2)
     15e:	6868                	ld	a0,208(s0)
     160:	0100                	addi	s0,sp,128
     162:	0000                	unimp
     164:	7270                	ld	a2,224(a2)
     166:	682e636f          	jal	t1,e67e8 <STACK_SIZE+0xe63e8>
     16a:	0068                	addi	a0,sp,12
     16c:	0001                	nop
     16e:	6b00                	ld	s0,16(a4)
     170:	7265                	lui	tp,0xffff9
     172:	656e                	ld	a0,216(sp)
     174:	2e6c                	fld	fa1,216(a2)
     176:	6868                	ld	a0,208(s0)
     178:	0100                	addi	s0,sp,128
     17a:	0000                	unimp
     17c:	0500                	addi	s0,sp,640
     17e:	0032                	c.slli	zero,0xc
     180:	0209                	addi	tp,tp,2
     182:	08a0                	addi	s0,sp,88
     184:	8000                	0x8000
     186:	0000                	unimp
     188:	0000                	unimp
     18a:	05012f03          	lw	t5,80(sp)
     18e:	09000347          	fmsub.s	ft6,ft0,fa6,ft1,rne
     192:	0010                	0x10
     194:	0501                	addi	a0,a0,0
     196:	0349                	addi	t1,t1,18
     198:	0900                	addi	s0,sp,144
     19a:	000c                	0xc
     19c:	0901                	addi	s2,s2,0
     19e:	0010                	0x10
     1a0:	0100                	addi	s0,sp,128
     1a2:	0501                	addi	a0,a0,0
     1a4:	0016                	c.slli	zero,0x5
     1a6:	0209                	addi	tp,tp,2
     1a8:	08cc                	addi	a1,sp,84
     1aa:	8000                	0x8000
     1ac:	0000                	unimp
     1ae:	0000                	unimp
     1b0:	0100c103          	lbu	sp,16(ra)
     1b4:	1105                	addi	sp,sp,-31
     1b6:	0c090103          	lb	sp,192(s2)
     1ba:	0100                	addi	s0,sp,128
     1bc:	1005                	c.nop	-31
     1be:	08090103          	lb	sp,128(s2)
     1c2:	0100                	addi	s0,sp,128
     1c4:	0505                	addi	a0,a0,1
     1c6:	04090103          	lb	sp,64(s2)
     1ca:	0100                	addi	s0,sp,128
     1cc:	1009                	c.nop	-30
     1ce:	0000                	unimp
     1d0:	0101                	addi	sp,sp,0
     1d2:	0204                	addi	s1,sp,256
     1d4:	2505                	addiw	a0,a0,1
     1d6:	0900                	addi	s0,sp,144
     1d8:	f402                	sd	zero,40(sp)
     1da:	0008                	0x8
     1dc:	0080                	addi	s0,sp,64
     1de:	0000                	unimp
     1e0:	0300                	addi	s0,sp,384
     1e2:	0125                	addi	sp,sp,9
     1e4:	3205                	addiw	tp,tp,-31
     1e6:	14090003          	lb	zero,320(s2)
     1ea:	0100                	addi	s0,sp,128
     1ec:	3105                	addiw	sp,sp,-31
     1ee:	08090003          	lb	zero,128(s2)
     1f2:	0100                	addi	s0,sp,128
     1f4:	3405                	addiw	s0,s0,-31
     1f6:	08090003          	lb	zero,128(s2)
     1fa:	0100                	addi	s0,sp,128
     1fc:	1009                	c.nop	-30
     1fe:	0000                	unimp
     200:	0101                	addi	sp,sp,0
     202:	0204                	addi	s1,sp,256
     204:	2605                	addiw	a2,a2,1
     206:	0900                	addi	s0,sp,144
     208:	2802                	fld	fa6,0(sp)
     20a:	0009                	c.nop	2
     20c:	0080                	addi	s0,sp,64
     20e:	0000                	unimp
     210:	0300                	addi	s0,sp,384
     212:	2a05012f          	0x2a05012f
     216:	18090103          	lb	sp,384(s2)
     21a:	0100                	addi	s0,sp,128
     21c:	3c05                	addiw	s8,s8,-31
     21e:	10096003          	lwu	zero,256(s2)
     222:	0100                	addi	s0,sp,128
     224:	1705                	addi	a4,a4,-31
     226:	04092003          	lw	zero,64(s2)
     22a:	0100                	addi	s0,sp,128
     22c:	1105                	addi	sp,sp,-31
     22e:	1c090003          	lb	zero,448(s2)
     232:	0100                	addi	s0,sp,128
     234:	2405                	addiw	s0,s0,1
     236:	04090103          	lb	sp,64(s2)
     23a:	0100                	addi	s0,sp,128
     23c:	3c05                	addiw	s8,s8,-31
     23e:	10095f03          	lhu	t5,256(s2)
     242:	0100                	addi	s0,sp,128
     244:	2505                	addiw	a0,a0,1
     246:	04092103          	lw	sp,64(s2)
     24a:	0100                	addi	s0,sp,128
     24c:	0d05                	addi	s10,s10,1
     24e:	08090103          	lb	sp,128(s2)
     252:	0100                	addi	s0,sp,128
     254:	1409                	addi	s0,s0,-30
     256:	0000                	unimp
     258:	0101                	addi	sp,sp,0
     25a:	0204                	addi	s1,sp,256
     25c:	2505                	addiw	a0,a0,1
     25e:	0900                	addi	s0,sp,144
     260:	a402                	fsd	ft0,8(sp)
     262:	0009                	c.nop	2
     264:	0080                	addi	s0,sp,64
     266:	0000                	unimp
     268:	0300                	addi	s0,sp,384
     26a:	013a                	slli	sp,sp,0xe
     26c:	2705                	addiw	a4,a4,1
     26e:	18090103          	lb	sp,384(s2)
     272:	0100                	addi	s0,sp,128
     274:	3c05                	addiw	s8,s8,-31
     276:	10095503          	lhu	a0,256(s2)
     27a:	0100                	addi	s0,sp,128
     27c:	1405                	addi	s0,s0,-31
     27e:	04092b03          	lw	s6,64(s2)
     282:	0100                	addi	s0,sp,128
     284:	1105                	addi	sp,sp,-31
     286:	18090003          	lb	zero,384(s2)
     28a:	0100                	addi	s0,sp,128
     28c:	3705                	addiw	a4,a4,-31
     28e:	0200                	addi	s0,sp,256
     290:	0104                	addi	s1,sp,128
     292:	04090003          	lb	zero,64(s2)
     296:	0100                	addi	s0,sp,128
     298:	2405                	addiw	s0,s0,1
     29a:	08090103          	lb	sp,128(s2)
     29e:	0100                	addi	s0,sp,128
     2a0:	3c05                	addiw	s8,s8,-31
     2a2:	10095403          	lhu	s0,256(s2)
     2a6:	0100                	addi	s0,sp,128
     2a8:	2505                	addiw	a0,a0,1
     2aa:	04092c03          	lw	s8,64(s2)
     2ae:	0100                	addi	s0,sp,128
     2b0:	1805                	addi	a6,a6,-31
     2b2:	08090103          	lb	sp,128(s2)
     2b6:	0100                	addi	s0,sp,128
     2b8:	0d05                	addi	s10,s10,1
     2ba:	04090103          	lb	sp,64(s2)
     2be:	0100                	addi	s0,sp,128
     2c0:	1409                	addi	s0,s0,-30
     2c2:	0000                	unimp
     2c4:	0101                	addi	sp,sp,0
     2c6:	0204                	addi	s1,sp,256
     2c8:	2d05                	addiw	s10,s10,1
     2ca:	0900                	addi	s0,sp,144
     2cc:	2802                	fld	fa6,0(sp)
     2ce:	000a                	c.slli	zero,0x2
     2d0:	0080                	addi	s0,sp,64
     2d2:	0000                	unimp
     2d4:	0300                	addi	s0,sp,384
     2d6:	050100cf          	0x50100cf
     2da:	0341                	addi	t1,t1,16
     2dc:	0900                	addi	s0,sp,144
     2de:	0014                	0x14
     2e0:	0501                	addi	a0,a0,0
     2e2:	033c                	addi	a5,sp,392
     2e4:	0900                	addi	s0,sp,144
     2e6:	0010                	0x10
     2e8:	0501                	addi	a0,a0,0
     2ea:	0348                	addi	a0,sp,388
     2ec:	0900                	addi	s0,sp,144
     2ee:	0008                	0x8
     2f0:	0901                	addi	s2,s2,0
     2f2:	0010                	0x10
     2f4:	0100                	addi	s0,sp,128
     2f6:	0401                	addi	s0,s0,0
     2f8:	0502                	c.slli64	a0
     2fa:	0030                	addi	a2,sp,8
     2fc:	0209                	addi	tp,tp,2
     2fe:	0a64                	addi	s1,sp,284
     300:	8000                	0x8000
     302:	0000                	unimp
     304:	0000                	unimp
     306:	0100d003          	lhu	zero,16(ra)
     30a:	4705                	li	a4,1
     30c:	14090003          	lb	zero,320(s2)
     310:	0100                	addi	s0,sp,128
     312:	4205                	li	tp,1
     314:	10090003          	lb	zero,256(s2)
     318:	0100                	addi	s0,sp,128
     31a:	5005                	c.li	zero,-31
     31c:	08090003          	lb	zero,128(s2)
     320:	0100                	addi	s0,sp,128
     322:	1009                	c.nop	-30
     324:	0000                	unimp
     326:	0101                	addi	sp,sp,0
     328:	0204                	addi	s1,sp,256
     32a:	2c05                	addiw	s8,s8,1
     32c:	0900                	addi	s0,sp,144
     32e:	a002                	fsd	ft0,0(sp)
     330:	000a                	c.slli	zero,0x2
     332:	0080                	addi	s0,sp,64
     334:	0000                	unimp
     336:	0300                	addi	s0,sp,384
     338:	00d1                	addi	ra,ra,20
     33a:	0501                	addi	a0,a0,0
     33c:	0900033f 05010014 	0x50100140900033f
     344:	033a                	slli	t1,t1,0xe
     346:	0900                	addi	s0,sp,144
     348:	0010                	0x10
     34a:	0501                	addi	a0,a0,0
     34c:	0348                	addi	a0,sp,388
     34e:	0900                	addi	s0,sp,144
     350:	000c                	0xc
     352:	0901                	addi	s2,s2,0
     354:	0010                	0x10
     356:	0100                	addi	s0,sp,128
     358:	0401                	addi	s0,s0,0
     35a:	0502                	c.slli64	a0
     35c:	0209002f          	0x209002f
     360:	0ae0                	addi	s0,sp,348
     362:	8000                	0x8000
     364:	0000                	unimp
     366:	0000                	unimp
     368:	0100d903          	lhu	s2,16(ra)
     36c:	4505                	li	a0,1
     36e:	14090003          	lb	zero,320(s2)
     372:	0100                	addi	s0,sp,128
     374:	4005                	c.li	zero,1
     376:	10090003          	lb	zero,256(s2)
     37a:	0100                	addi	s0,sp,128
     37c:	4b05                	li	s6,1
     37e:	08090003          	lb	zero,128(s2)
     382:	0100                	addi	s0,sp,128
     384:	1009                	c.nop	-30
     386:	0000                	unimp
     388:	0101                	addi	sp,sp,0
     38a:	0304                	addi	s1,sp,384
     38c:	1605                	addi	a2,a2,-31
     38e:	0900                	addi	s0,sp,144
     390:	1c02                	slli	s8,s8,0x20
     392:	0080000b          	0x80000b
     396:	0000                	unimp
     398:	0300                	addi	s0,sp,384
     39a:	01a6                	slli	gp,gp,0x9
     39c:	0501                	addi	a0,a0,0
     39e:	0402000b          	0x402000b
     3a2:	0302                	c.slli64	t1
     3a4:	0901                	addi	s2,s2,0
     3a6:	0014                	0x14
     3a8:	0501                	addi	a0,a0,0
     3aa:	000c                	0xc
     3ac:	0402                	c.slli64	s0
     3ae:	0302                	c.slli64	t1
     3b0:	0900                	addi	s0,sp,144
     3b2:	0008                	0x8
     3b4:	0501                	addi	a0,a0,0
     3b6:	0030                	addi	a2,sp,8
     3b8:	0402                	c.slli64	s0
     3ba:	0301                	addi	t1,t1,0
     3bc:	0900                	addi	s0,sp,144
     3be:	0004                	0x4
     3c0:	0501                	addi	a0,a0,0
     3c2:	002d                	c.nop	11
     3c4:	0402                	c.slli64	s0
     3c6:	0301                	addi	t1,t1,0
     3c8:	0900                	addi	s0,sp,144
     3ca:	000c                	0xc
     3cc:	0501                	addi	a0,a0,0
     3ce:	0005                	c.nop	1
     3d0:	0402                	c.slli64	s0
     3d2:	0301                	addi	t1,t1,0
     3d4:	0900                	addi	s0,sp,144
     3d6:	000c                	0xc
     3d8:	0501                	addi	a0,a0,0
     3da:	09010303          	lb	t1,144(sp)
     3de:	0004                	0x4
     3e0:	0901                	addi	s2,s2,0
     3e2:	0014                	0x14
     3e4:	0100                	addi	s0,sp,128
     3e6:	0401                	addi	s0,s0,0
     3e8:	0504                	addi	s1,sp,640
     3ea:	0010                	0x10
     3ec:	0209                	addi	tp,tp,2
     3ee:	0028                	addi	a0,sp,8
     3f0:	8000                	0x8000
     3f2:	0000                	unimp
     3f4:	0000                	unimp
     3f6:	05010b03          	lb	s6,80(sp)
     3fa:	09010317          	auipc	t1,0x9010
     3fe:	0010                	0x10
     400:	0501                	addi	a0,a0,0
     402:	0334                	addi	a3,sp,392
     404:	0901                	addi	s2,s2,0
     406:	000c                	0xc
     408:	0401                	addi	s0,s0,0
     40a:	0502                	c.slli64	a0
     40c:	033c                	addi	a5,sp,392
     40e:	00140903          	lb	s2,1(s0) # ffffffffffffd001 <_ZL7out_buf+0xffffffff7fff8dd9>
     412:	0401                	addi	s0,s0,0
     414:	0504                	addi	s1,sp,640
     416:	0334                	addi	a3,sp,392
     418:	097d                	addi	s2,s2,31
     41a:	0004                	0x4
     41c:	0501                	addi	a0,a0,0
     41e:	030c                	addi	a1,sp,384
     420:	0901                	addi	s2,s2,0
     422:	0008                	0x8
     424:	0501                	addi	a0,a0,0
     426:	0301                	addi	t1,t1,0
     428:	0901                	addi	s2,s2,0
     42a:	0004                	0x4
     42c:	0501                	addi	a0,a0,0
     42e:	0901031b          	addiw	t1,sp,144
     432:	0014                	0x14
     434:	0501                	addi	a0,a0,0
     436:	09010317          	auipc	t1,0x9010
     43a:	0018                	0x18
     43c:	0501                	addi	a0,a0,0
     43e:	032c                	addi	a1,sp,392
     440:	0901                	addi	s2,s2,0
     442:	000c                	0xc
     444:	0401                	addi	s0,s0,0
     446:	0502                	c.slli64	a0
     448:	033c                	addi	a5,sp,392
     44a:	097e                	slli	s2,s2,0x1f
     44c:	0014                	0x14
     44e:	0401                	addi	s0,s0,0
     450:	0504                	addi	s1,sp,640
     452:	032d                	addi	t1,t1,11
     454:	0902                	c.slli64	s2
     456:	0004                	0x4
     458:	0501                	addi	a0,a0,0
     45a:	0301                	addi	t1,t1,0
     45c:	0901                	addi	s2,s2,0
     45e:	0008                	0x8
     460:	0501                	addi	a0,a0,0
     462:	0320                	addi	s0,sp,392
     464:	0902                	c.slli64	s2
     466:	0014                	0x14
     468:	0501                	addi	a0,a0,0
     46a:	0316                	slli	t1,t1,0x5
     46c:	0901                	addi	s2,s2,0
     46e:	0010                	0x10
     470:	0501                	addi	a0,a0,0
     472:	030d                	addi	t1,t1,3
     474:	000c0903          	lb	s2,0(s8) # 18000 <STACK_SIZE+0x17c00>
     478:	0501                	addi	a0,a0,0
     47a:	0305                	addi	t1,t1,1
     47c:	0901                	addi	s2,s2,0
     47e:	0020                	addi	s0,sp,8
     480:	0501                	addi	a0,a0,0
     482:	030d                	addi	t1,t1,3
     484:	0902                	c.slli64	s2
     486:	0010                	0x10
     488:	0501                	addi	a0,a0,0
     48a:	032a                	slli	t1,t1,0xa
     48c:	0901                	addi	s2,s2,0
     48e:	0004                	0x4
     490:	0401                	addi	s0,s0,0
     492:	0502                	c.slli64	a0
     494:	033c                	addi	a5,sp,392
     496:	00100973          	0x100973
     49a:	0401                	addi	s0,s0,0
     49c:	0504                	addi	s1,sp,640
     49e:	032c                	addi	a1,sp,392
     4a0:	090d                	addi	s2,s2,3
     4a2:	0004                	0x4
     4a4:	0501                	addi	a0,a0,0
     4a6:	09010333          	0x9010333
     4aa:	0010                	0x10
     4ac:	0401                	addi	s0,s0,0
     4ae:	0502                	c.slli64	a0
     4b0:	033c                	addi	a5,sp,392
     4b2:	0972                	slli	s2,s2,0x1c
     4b4:	0010                	0x10
     4b6:	0401                	addi	s0,s0,0
     4b8:	0504                	addi	s1,sp,640
     4ba:	090e0333          	0x90e0333
     4be:	0004                	0x4
     4c0:	0501                	addi	a0,a0,0
     4c2:	0310                	addi	a2,sp,384
     4c4:	0902                	c.slli64	s2
     4c6:	0008                	0x8
     4c8:	0501                	addi	a0,a0,0
     4ca:	0309                	addi	t1,t1,2
     4cc:	097d                	addi	s2,s2,31
     4ce:	000c                	0xc
     4d0:	0301                	addi	t1,t1,0
     4d2:	0906                	slli	s2,s2,0x1
     4d4:	0004                	0x4
     4d6:	0501                	addi	a0,a0,0
     4d8:	0016                	c.slli	zero,0x5
     4da:	0402                	c.slli64	s0
     4dc:	0301                	addi	t1,t1,0
     4de:	0900                	addi	s0,sp,144
     4e0:	000c                	0xc
     4e2:	0501                	addi	a0,a0,0
     4e4:	0311                	addi	t1,t1,4
     4e6:	0902                	c.slli64	s2
     4e8:	0024                	addi	s1,sp,8
     4ea:	0501                	addi	a0,a0,0
     4ec:	030d                	addi	t1,t1,3
     4ee:	0901                	addi	s2,s2,0
     4f0:	000c                	0xc
     4f2:	0501                	addi	a0,a0,0
     4f4:	0301                	addi	t1,t1,0
     4f6:	0901                	addi	s2,s2,0
     4f8:	0020                	addi	s0,sp,8
     4fa:	0501                	addi	a0,a0,0
     4fc:	0324                	addi	s1,sp,392
     4fe:	0901                	addi	s2,s2,0
     500:	0014                	0x14
     502:	0501                	addi	a0,a0,0
     504:	09010317          	auipc	t1,0x9010
     508:	0010                	0x10
     50a:	0501                	addi	a0,a0,0
     50c:	0311                	addi	t1,t1,4
     50e:	0902                	c.slli64	s2
     510:	000c                	0xc
     512:	0501                	addi	a0,a0,0
     514:	0901030b          	0x901030b
     518:	0008                	0x8
     51a:	0501                	addi	a0,a0,0
     51c:	0305                	addi	t1,t1,1
     51e:	0901                	addi	s2,s2,0
     520:	0034                	addi	a3,sp,8
     522:	0301                	addi	t1,t1,0
     524:	0901                	addi	s2,s2,0
     526:	0008                	0x8
     528:	0501                	addi	a0,a0,0
     52a:	0301                	addi	t1,t1,0
     52c:	0901                	addi	s2,s2,0
     52e:	0008                	0x8
     530:	0501                	addi	a0,a0,0
     532:	031c                	addi	a5,sp,384
     534:	0901                	addi	s2,s2,0
     536:	0014                	0x14
     538:	0501                	addi	a0,a0,0
     53a:	030d                	addi	t1,t1,3
     53c:	0902                	c.slli64	s2
     53e:	0010                	0x10
     540:	0501                	addi	a0,a0,0
     542:	0901030b          	0x901030b
     546:	000c                	0xc
     548:	0501                	addi	a0,a0,0
     54a:	0305                	addi	t1,t1,1
     54c:	0901                	addi	s2,s2,0
     54e:	0014                	0x14
     550:	0501                	addi	a0,a0,0
     552:	0314                	addi	a3,sp,384
     554:	0902                	c.slli64	s2
     556:	0038                	addi	a4,sp,8
     558:	0501                	addi	a0,a0,0
     55a:	0900032b          	0x900032b
     55e:	000c                	0xc
     560:	0501                	addi	a0,a0,0
     562:	0314                	addi	a3,sp,384
     564:	0901                	addi	s2,s2,0
     566:	0004                	0x4
     568:	0501                	addi	a0,a0,0
     56a:	0334                	addi	a3,sp,392
     56c:	0900                	addi	s0,sp,144
     56e:	0008                	0x8
     570:	0501                	addi	a0,a0,0
     572:	0900035b          	0x900035b
     576:	0008                	0x8
     578:	0501                	addi	a0,a0,0
     57a:	035e                	slli	t1,t1,0x17
     57c:	0900                	addi	s0,sp,144
     57e:	0008                	0x8
     580:	0501                	addi	a0,a0,0
     582:	0314                	addi	a3,sp,384
     584:	0901                	addi	s2,s2,0
     586:	0004                	0x4
     588:	0501                	addi	a0,a0,0
     58a:	0334                	addi	a3,sp,392
     58c:	0900                	addi	s0,sp,144
     58e:	0008                	0x8
     590:	0501                	addi	a0,a0,0
     592:	0900035b          	0x900035b
     596:	0008                	0x8
     598:	0501                	addi	a0,a0,0
     59a:	035e                	slli	t1,t1,0x17
     59c:	0900                	addi	s0,sp,144
     59e:	0008                	0x8
     5a0:	0501                	addi	a0,a0,0
     5a2:	09010317          	auipc	t1,0x9010
     5a6:	0004                	0x4
     5a8:	0501                	addi	a0,a0,0
     5aa:	0301                	addi	t1,t1,0
     5ac:	0902                	c.slli64	s2
     5ae:	000c                	0xc
     5b0:	0501                	addi	a0,a0,0
     5b2:	031f 0902 0018      	0x180902031f
     5b8:	0501                	addi	a0,a0,0
     5ba:	0311                	addi	t1,t1,4
     5bc:	0901                	addi	s2,s2,0
     5be:	0010                	0x10
     5c0:	0501                	addi	a0,a0,0
     5c2:	0314                	addi	a3,sp,384
     5c4:	0901                	addi	s2,s2,0
     5c6:	0008                	0x8
     5c8:	0501                	addi	a0,a0,0
     5ca:	09010313          	addi	t1,sp,144
     5ce:	0008                	0x8
     5d0:	0501                	addi	a0,a0,0
     5d2:	0320                	addi	s0,sp,392
     5d4:	0904                	addi	s1,sp,144
     5d6:	0008                	0x8
     5d8:	0501                	addi	a0,a0,0
     5da:	0305                	addi	t1,t1,1
     5dc:	0900                	addi	s0,sp,144
     5de:	000c                	0xc
     5e0:	0501                	addi	a0,a0,0
     5e2:	0319                	addi	t1,t1,6
     5e4:	0901                	addi	s2,s2,0
     5e6:	0004                	0x4
     5e8:	0501                	addi	a0,a0,0
     5ea:	0309                	addi	t1,t1,2
     5ec:	0900                	addi	s0,sp,144
     5ee:	0010                	0x10
     5f0:	0501                	addi	a0,a0,0
     5f2:	032c                	addi	a1,sp,392
     5f4:	090a                	slli	s2,s2,0x2
     5f6:	0014                	0x14
     5f8:	0501                	addi	a0,a0,0
     5fa:	0900032f          	0x900032f
     5fe:	0004                	0x4
     600:	0301                	addi	t1,t1,0
     602:	0905                	addi	s2,s2,1
     604:	0004                	0x4
     606:	0501                	addi	a0,a0,0
     608:	0332                	slli	t1,t1,0xc
     60a:	0900                	addi	s0,sp,144
     60c:	0004                	0x4
     60e:	0501                	addi	a0,a0,0
     610:	0315                	addi	t1,t1,5
     612:	0902                	c.slli64	s2
     614:	0004                	0x4
     616:	0501                	addi	a0,a0,0
     618:	0301                	addi	t1,t1,0
     61a:	090e                	slli	s2,s2,0x3
     61c:	0008                	0x8
     61e:	0501                	addi	a0,a0,0
     620:	0309                	addi	t1,t1,2
     622:	0975                	addi	s2,s2,29
     624:	0004                	0x4
     626:	0501                	addi	a0,a0,0
     628:	0326                	slli	t1,t1,0x9
     62a:	0902                	c.slli64	s2
     62c:	0018                	0x18
     62e:	0501                	addi	a0,a0,0
     630:	0329                	addi	t1,t1,10
     632:	0900                	addi	s0,sp,144
     634:	0004                	0x4
     636:	0501                	addi	a0,a0,0
     638:	0900033f 0501000c 	0x501000c0900033f
     640:	09010323          	sb	a6,134(sp)
     644:	0004                	0x4
     646:	0501                	addi	a0,a0,0
     648:	0339                	addi	t1,t1,14
     64a:	0900                	addi	s0,sp,144
     64c:	000c                	0xc
     64e:	0501                	addi	a0,a0,0
     650:	09020317          	auipc	t1,0x9020
     654:	0004                	0x4
     656:	0501                	addi	a0,a0,0
     658:	0311                	addi	t1,t1,4
     65a:	0901                	addi	s2,s2,0
     65c:	0018                	0x18
     65e:	0501                	addi	a0,a0,0
     660:	0301                	addi	t1,t1,0
     662:	0905                	addi	s2,s2,1
     664:	000c                	0xc
     666:	0501                	addi	a0,a0,0
     668:	0336                	slli	t1,t1,0xd
     66a:	0902                	c.slli64	s2
     66c:	0018                	0x18
     66e:	0501                	addi	a0,a0,0
     670:	0305                	addi	t1,t1,1
     672:	0901                	addi	s2,s2,0
     674:	0000                	unimp
     676:	0501                	addi	a0,a0,0
     678:	0312                	slli	t1,t1,0x4
     67a:	0901                	addi	s2,s2,0
     67c:	0004                	0x4
     67e:	0501                	addi	a0,a0,0
     680:	0315                	addi	t1,t1,5
     682:	0901                	addi	s2,s2,0
     684:	0078                	addi	a4,sp,12
     686:	0501                	addi	a0,a0,0
     688:	0311                	addi	t1,t1,4
     68a:	0901                	addi	s2,s2,0
     68c:	0010                	0x10
     68e:	0501                	addi	a0,a0,0
     690:	0315                	addi	t1,t1,5
     692:	0901                	addi	s2,s2,0
     694:	0004                	0x4
     696:	0501                	addi	a0,a0,0
     698:	0305                	addi	t1,t1,1
     69a:	0901                	addi	s2,s2,0
     69c:	0078                	addi	a4,sp,12
     69e:	0301                	addi	t1,t1,0
     6a0:	0901                	addi	s2,s2,0
     6a2:	0004                	0x4
     6a4:	0501                	addi	a0,a0,0
     6a6:	0301                	addi	t1,t1,0
     6a8:	0901                	addi	s2,s2,0
     6aa:	0004                	0x4
     6ac:	0501                	addi	a0,a0,0
     6ae:	09010313          	addi	t1,sp,144
     6b2:	0004                	0x4
     6b4:	0501                	addi	a0,a0,0
     6b6:	030d                	addi	t1,t1,3
     6b8:	0902                	c.slli64	s2
     6ba:	0010                	0x10
     6bc:	0501                	addi	a0,a0,0
     6be:	0014                	0x14
     6c0:	0402                	c.slli64	s0
     6c2:	09000303          	lb	t1,144(zero) # 90 <STACK_SIZE-0x370>
     6c6:	0008                	0x8
     6c8:	0501                	addi	a0,a0,0
     6ca:	001e                	c.slli	zero,0x7
     6cc:	0402                	c.slli64	s0
     6ce:	0302                	c.slli64	t1
     6d0:	0900                	addi	s0,sp,144
     6d2:	000c                	0xc
     6d4:	0501                	addi	a0,a0,0
     6d6:	0005                	c.nop	1
     6d8:	0402                	c.slli64	s0
     6da:	0302                	c.slli64	t1
     6dc:	0900                	addi	s0,sp,144
     6de:	0008                	0x8
     6e0:	0501                	addi	a0,a0,0
     6e2:	0301                	addi	t1,t1,0
     6e4:	0902                	c.slli64	s2
     6e6:	0010                	0x10
     6e8:	0501                	addi	a0,a0,0
     6ea:	0310                	addi	a2,sp,384
     6ec:	0901                	addi	s2,s2,0
     6ee:	0014                	0x14
     6f0:	0501                	addi	a0,a0,0
     6f2:	032e                	slli	t1,t1,0xb
     6f4:	0902                	c.slli64	s2
     6f6:	0010                	0x10
     6f8:	0401                	addi	s0,s0,0
     6fa:	0502                	c.slli64	a0
     6fc:	033c                	addi	a5,sp,392
     6fe:	7f9a                	ld	t6,416(sp)
     700:	1009                	c.nop	-30
     702:	0100                	addi	s0,sp,128
     704:	0404                	addi	s1,sp,512
     706:	2e05                	addiw	t3,t3,1
     708:	0900e603          	lwu	a2,144(ra)
     70c:	0004                	0x4
     70e:	0501                	addi	a0,a0,0
     710:	0308                	addi	a0,sp,384
     712:	0901                	addi	s2,s2,0
     714:	0004                	0x4
     716:	0501                	addi	a0,a0,0
     718:	0309                	addi	t1,t1,2
     71a:	0901                	addi	s2,s2,0
     71c:	0008                	0x8
     71e:	0501                	addi	a0,a0,0
     720:	032e                	slli	t1,t1,0xb
     722:	0901                	addi	s2,s2,0
     724:	0018                	0x18
     726:	0401                	addi	s0,s0,0
     728:	0502                	c.slli64	a0
     72a:	033c                	addi	a5,sp,392
     72c:	10097f97          	auipc	t6,0x10097
     730:	0100                	addi	s0,sp,128
     732:	0404                	addi	s1,sp,512
     734:	2e05                	addiw	t3,t3,1
     736:	0900e903          	lwu	s2,144(ra)
     73a:	0004                	0x4
     73c:	0501                	addi	a0,a0,0
     73e:	0309                	addi	t1,t1,2
     740:	0901                	addi	s2,s2,0
     742:	0004                	0x4
     744:	0501                	addi	a0,a0,0
     746:	030c                	addi	a1,sp,384
     748:	0900                	addi	s0,sp,144
     74a:	000c                	0xc
     74c:	0501                	addi	a0,a0,0
     74e:	0308                	addi	a0,sp,384
     750:	0900                	addi	s0,sp,144
     752:	0008                	0x8
     754:	0501                	addi	a0,a0,0
     756:	0324                	addi	s1,sp,392
     758:	0901                	addi	s2,s2,0
     75a:	0008                	0x8
     75c:	0401                	addi	s0,s0,0
     75e:	0502                	c.slli64	a0
     760:	033c                	addi	a5,sp,392
     762:	7f95                	lui	t6,0xfffe5
     764:	1009                	c.nop	-30
     766:	0100                	addi	s0,sp,128
     768:	0404                	addi	s1,sp,512
     76a:	2505                	addiw	a0,a0,1
     76c:	0900eb03          	lwu	s6,144(ra)
     770:	0004                	0x4
     772:	0501                	addi	a0,a0,0
     774:	0324                	addi	s1,sp,392
     776:	0901                	addi	s2,s2,0
     778:	0008                	0x8
     77a:	0401                	addi	s0,s0,0
     77c:	0502                	c.slli64	a0
     77e:	033c                	addi	a5,sp,392
     780:	7f94                	ld	a3,56(a5)
     782:	1009                	c.nop	-30
     784:	0100                	addi	s0,sp,128
     786:	0404                	addi	s1,sp,512
     788:	2505                	addiw	a0,a0,1
     78a:	0900ec03          	lwu	s8,144(ra)
     78e:	0004                	0x4
     790:	0501                	addi	a0,a0,0
     792:	0308                	addi	a0,sp,384
     794:	0901                	addi	s2,s2,0
     796:	0004                	0x4
     798:	0501                	addi	a0,a0,0
     79a:	0324                	addi	s1,sp,392
     79c:	0901                	addi	s2,s2,0
     79e:	000c                	0xc
     7a0:	0401                	addi	s0,s0,0
     7a2:	0502                	c.slli64	a0
     7a4:	033c                	addi	a5,sp,392
     7a6:	7f92                	ld	t6,288(sp)
     7a8:	1009                	c.nop	-30
     7aa:	0100                	addi	s0,sp,128
     7ac:	0404                	addi	s1,sp,512
     7ae:	2505                	addiw	a0,a0,1
     7b0:	0900ee03          	lwu	t3,144(ra)
     7b4:	0004                	0x4
     7b6:	0501                	addi	a0,a0,0
     7b8:	0308                	addi	a0,sp,384
     7ba:	0901                	addi	s2,s2,0
     7bc:	0008                	0x8
     7be:	0501                	addi	a0,a0,0
     7c0:	0301                	addi	t1,t1,0
     7c2:	0902                	c.slli64	s2
     7c4:	000c                	0xc
     7c6:	0501                	addi	a0,a0,0
     7c8:	0310                	addi	a2,sp,384
     7ca:	0901                	addi	s2,s2,0
     7cc:	0014                	0x14
     7ce:	0501                	addi	a0,a0,0
     7d0:	09030317          	auipc	t1,0x9030
     7d4:	0010                	0x10
     7d6:	0501                	addi	a0,a0,0
     7d8:	030c                	addi	a1,sp,384
     7da:	0901                	addi	s2,s2,0
     7dc:	000c                	0xc
     7de:	0401                	addi	s0,s0,0
     7e0:	0502                	c.slli64	a0
     7e2:	033c                	addi	a5,sp,392
     7e4:	7f8a                	ld	t6,160(sp)
     7e6:	1409                	addi	s0,s0,-30
     7e8:	0100                	addi	s0,sp,128
     7ea:	0404                	addi	s1,sp,512
     7ec:	1705                	addi	a4,a4,-31
     7ee:	0900f703          	0x900f703
     7f2:	0004                	0x4
     7f4:	0501                	addi	a0,a0,0
     7f6:	0320                	addi	s0,sp,392
     7f8:	0901                	addi	s2,s2,0
     7fa:	0008                	0x8
     7fc:	0401                	addi	s0,s0,0
     7fe:	0502                	c.slli64	a0
     800:	033c                	addi	a5,sp,392
     802:	7f88                	ld	a0,56(a5)
     804:	1409                	addi	s0,s0,-30
     806:	0100                	addi	s0,sp,128
     808:	0404                	addi	s1,sp,512
     80a:	2105                	addiw	sp,sp,1
     80c:	0900f803          	0x900f803
     810:	0004                	0x4
     812:	0501                	addi	a0,a0,0
     814:	09010323          	sb	a6,134(sp)
     818:	0008                	0x8
     81a:	0401                	addi	s0,s0,0
     81c:	0502                	c.slli64	a0
     81e:	033c                	addi	a5,sp,392
     820:	14097f87          	0x14097f87
     824:	0100                	addi	s0,sp,128
     826:	0404                	addi	s1,sp,512
     828:	2405                	addiw	s0,s0,1
     82a:	0900f903          	0x900f903
     82e:	0004                	0x4
     830:	0501                	addi	a0,a0,0
     832:	030d                	addi	t1,t1,3
     834:	0901                	addi	s2,s2,0
     836:	0004                	0x4
     838:	0501                	addi	a0,a0,0
     83a:	0301                	addi	t1,t1,0
     83c:	0901                	addi	s2,s2,0
     83e:	0004                	0x4
     840:	0501                	addi	a0,a0,0
     842:	0311                	addi	t1,t1,4
     844:	0901                	addi	s2,s2,0
     846:	0014                	0x14
     848:	0501                	addi	a0,a0,0
     84a:	09010317          	auipc	t1,0x9010
     84e:	0010                	0x10
     850:	0501                	addi	a0,a0,0
     852:	09010333          	0x9010333
     856:	000c                	0xc
     858:	0401                	addi	s0,s0,0
     85a:	0502                	c.slli64	a0
     85c:	033c                	addi	a5,sp,392
     85e:	7f82                	ld	t6,32(sp)
     860:	1409                	addi	s0,s0,-30
     862:	0100                	addi	s0,sp,128
     864:	0404                	addi	s1,sp,512
     866:	3405                	addiw	s0,s0,-31
     868:	0900fe03          	0x900fe03
     86c:	0004                	0x4
     86e:	0501                	addi	a0,a0,0
     870:	0305                	addi	t1,t1,1
     872:	0901                	addi	s2,s2,0
     874:	000c                	0xc
     876:	0501                	addi	a0,a0,0
     878:	0301                	addi	t1,t1,0
     87a:	0901                	addi	s2,s2,0
     87c:	0008                	0x8
     87e:	0501                	addi	a0,a0,0
     880:	0312                	slli	t1,t1,0x4
     882:	0901                	addi	s2,s2,0
     884:	0014                	0x14
     886:	0501                	addi	a0,a0,0
     888:	0305                	addi	t1,t1,1
     88a:	0901                	addi	s2,s2,0
     88c:	0010                	0x10
     88e:	0501                	addi	a0,a0,0
     890:	0318                	addi	a4,sp,384
     892:	0900                	addi	s0,sp,144
     894:	0004                	0x4
     896:	0501                	addi	a0,a0,0
     898:	0309                	addi	t1,t1,2
     89a:	0901                	addi	s2,s2,0
     89c:	0008                	0x8
     89e:	0501                	addi	a0,a0,0
     8a0:	030d                	addi	t1,t1,3
     8a2:	0901                	addi	s2,s2,0
     8a4:	0018                	0x18
     8a6:	0501                	addi	a0,a0,0
     8a8:	0011                	c.nop	4
     8aa:	0402                	c.slli64	s0
     8ac:	09000303          	lb	t1,144(zero) # 90 <STACK_SIZE-0x370>
     8b0:	0008                	0x8
     8b2:	0501                	addi	a0,a0,0
     8b4:	0005                	c.nop	1
     8b6:	0402                	c.slli64	s0
     8b8:	0302                	c.slli64	t1
     8ba:	0900                	addi	s0,sp,144
     8bc:	000c                	0xc
     8be:	0301                	addi	t1,t1,0
     8c0:	0901                	addi	s2,s2,0
     8c2:	0010                	0x10
     8c4:	0501                	addi	a0,a0,0
     8c6:	0301                	addi	t1,t1,0
     8c8:	0901                	addi	s2,s2,0
     8ca:	0004                	0x4
     8cc:	0501                	addi	a0,a0,0
     8ce:	0901031b          	addiw	t1,sp,144
     8d2:	0010                	0x10
     8d4:	0501                	addi	a0,a0,0
     8d6:	0907030b          	0x907030b
     8da:	0010                	0x10
     8dc:	0501                	addi	a0,a0,0
     8de:	0309                	addi	t1,t1,2
     8e0:	0901                	addi	s2,s2,0
     8e2:	0010                	0x10
     8e4:	0501                	addi	a0,a0,0
     8e6:	030d                	addi	t1,t1,3
     8e8:	0901                	addi	s2,s2,0
     8ea:	0014                	0x14
     8ec:	0501                	addi	a0,a0,0
     8ee:	0309                	addi	t1,t1,2
     8f0:	0901                	addi	s2,s2,0
     8f2:	0004                	0x4
     8f4:	0501                	addi	a0,a0,0
     8f6:	0305                	addi	t1,t1,1
     8f8:	0902                	c.slli64	s2
     8fa:	0018                	0x18
     8fc:	0501                	addi	a0,a0,0
     8fe:	033e                	slli	t1,t1,0xf
     900:	0901                	addi	s2,s2,0
     902:	000c                	0xc
     904:	0501                	addi	a0,a0,0
     906:	0305                	addi	t1,t1,1
     908:	0901                	addi	s2,s2,0
     90a:	000c                	0xc
     90c:	0501                	addi	a0,a0,0
     90e:	0310                	addi	a2,sp,384
     910:	000c0903          	lb	s2,0(s8)
     914:	0501                	addi	a0,a0,0
     916:	0305                	addi	t1,t1,1
     918:	00040903          	lb	s2,0(s0)
     91c:	0301                	addi	t1,t1,0
     91e:	0901                	addi	s2,s2,0
     920:	0008                	0x8
     922:	0301                	addi	t1,t1,0
     924:	0901                	addi	s2,s2,0
     926:	0008                	0x8
     928:	0301                	addi	t1,t1,0
     92a:	0901                	addi	s2,s2,0
     92c:	0008                	0x8
     92e:	0301                	addi	t1,t1,0
     930:	0901                	addi	s2,s2,0
     932:	000c                	0xc
     934:	0301                	addi	t1,t1,0
     936:	0901                	addi	s2,s2,0
     938:	000c                	0xc
     93a:	0301                	addi	t1,t1,0
     93c:	0901                	addi	s2,s2,0
     93e:	0008                	0x8
     940:	0501                	addi	a0,a0,0
     942:	0301                	addi	t1,t1,0
     944:	0901                	addi	s2,s2,0
     946:	0004                	0x4
     948:	0901                	addi	s2,s2,0
     94a:	0014                	0x14
     94c:	0100                	addi	s0,sp,128
     94e:	6401                	0x6401
     950:	0300000b          	0x300000b
     954:	c400                	sw	s0,8(s0)
     956:	0000                	unimp
     958:	0100                	addi	s0,sp,128
     95a:	fb01                	bnez	a4,86a <STACK_SIZE+0x46a>
     95c:	0d0e                	slli	s10,s10,0x3
     95e:	0100                	addi	s0,sp,128
     960:	0101                	addi	sp,sp,0
     962:	0001                	nop
     964:	0000                	unimp
     966:	0001                	nop
     968:	0100                	addi	s0,sp,128
     96a:	2e2e                	fld	ft8,200(sp)
     96c:	6974752f          	0x6974752f
     970:	736c                	ld	a1,224(a4)
     972:	2f00                	fld	fs0,24(a4)
     974:	6f68                	ld	a0,216(a4)
     976:	656d                	lui	a0,0x1b
     978:	63797a2f          	0x63797a2f
     97c:	6c702e2f          	0x6c702e2f
     980:	7461                	lui	s0,0xffff8
     982:	6f66                	ld	t5,88(sp)
     984:	6d72                	ld	s10,280(sp)
     986:	6f69                	lui	t5,0x1a
     988:	6361702f          	0x6361702f
     98c:	6567616b          	0x6567616b
     990:	6f742f73          	csrrs	t5,0x6f7,s0
     994:	68636c6f          	jal	s8,3701a <STACK_SIZE+0x36c1a>
     998:	6961                	lui	s2,0x18
     99a:	2d6e                	fld	fs10,216(sp)
     99c:	32336467          	0x32336467
     9a0:	2f76                	fld	ft10,344(sp)
     9a2:	696c                	ld	a1,208(a0)
     9a4:	2f62                	fld	ft10,24(sp)
     9a6:	2f636367          	0x2f636367
     9aa:	6972                	ld	s2,280(sp)
     9ac:	2d766373          	csrrsi	t1,0x2d7,12
     9b0:	756e                	ld	a0,248(sp)
     9b2:	69656c63          	bltu	a0,s6,104a <STACK_SIZE+0xc4a>
     9b6:	652d                	lui	a0,0xb
     9b8:	666c                	ld	a1,200(a2)
     9ba:	322e392f          	0x322e392f
     9be:	302e                	fld	ft0,232(sp)
     9c0:	636e692f          	0x636e692f
     9c4:	756c                	ld	a1,232(a0)
     9c6:	6564                	ld	s1,200(a0)
     9c8:	2e00                	fld	fs0,24(a2)
     9ca:	2f2e                	fld	ft10,200(sp)
     9cc:	6e69                	lui	t3,0x1a
     9ce:	64756c63          	bltu	a0,t2,1026 <STACK_SIZE+0xc26>
     9d2:	0065                	c.nop	25
     9d4:	6b00                	ld	s0,16(a4)
     9d6:	696c                	ld	a1,208(a0)
     9d8:	6362                	ld	t1,24(sp)
     9da:	632e                	ld	t1,200(sp)
     9dc:	00010063          	beqz	sp,9dc <STACK_SIZE+0x5dc>
     9e0:	7300                	ld	s0,32(a4)
     9e2:	6474                	ld	a3,200(s0)
     9e4:	6564                	ld	s1,200(a0)
     9e6:	2e66                	fld	ft8,88(sp)
     9e8:	0068                	addi	a0,sp,12
     9ea:	0002                	c.slli64	zero
     9ec:	7300                	ld	s0,32(a4)
     9ee:	6474                	ld	a3,200(s0)
     9f0:	7261                	lui	tp,0xffff8
     9f2:	00682e67          	0x682e67
     9f6:	0002                	c.slli64	zero
     9f8:	7000                	ld	s0,32(s0)
     9fa:	616c                	ld	a1,192(a0)
     9fc:	6674                	ld	a3,200(a2)
     9fe:	2e6d726f          	jal	tp,d7ce4 <STACK_SIZE+0xd78e4>
     a02:	0068                	addi	a0,sp,12
     a04:	6b000003          	lb	zero,1712(zero) # 6b0 <STACK_SIZE+0x2b0>
     a08:	696c                	ld	a1,208(a0)
     a0a:	2e62                	fld	ft8,24(sp)
     a0c:	6868                	ld	a0,208(s0)
     a0e:	0300                	addi	s0,sp,384
     a10:	0000                	unimp
     a12:	62696c6b          	0x62696c6b
     a16:	682e                	ld	a6,200(sp)
     a18:	0300                	addi	s0,sp,384
     a1a:	0000                	unimp
     a1c:	0500                	addi	s0,sp,640
     a1e:	0014                	0x14
     a20:	0209                	addi	tp,tp,2
     a22:	0b6c                	addi	a1,sp,412
     a24:	8000                	0x8000
     a26:	0000                	unimp
     a28:	0000                	unimp
     a2a:	0518                	addi	a4,sp,640
     a2c:	09010307          	0x9010307
     a30:	0018                	0x18
     a32:	0501                	addi	a0,a0,0
     a34:	0315                	addi	t1,t1,5
     a36:	0900                	addi	s0,sp,144
     a38:	0004                	0x4
     a3a:	0501                	addi	a0,a0,0
     a3c:	0306                	slli	t1,t1,0x1
     a3e:	0901                	addi	s2,s2,0
     a40:	0008                	0x8
     a42:	0501                	addi	a0,a0,0
     a44:	0301                	addi	t1,t1,0
     a46:	0901                	addi	s2,s2,0
     a48:	0018                	0x18
     a4a:	0301                	addi	t1,t1,0
     a4c:	00180903          	lb	s2,1(a6) # ffffffffffff9001 <_ZL7out_buf+0xffffffff7fff4dd9>
     a50:	0501                	addi	a0,a0,0
     a52:	0306                	slli	t1,t1,0x1
     a54:	0901                	addi	s2,s2,0
     a56:	001c                	0x1c
     a58:	0301                	addi	t1,t1,0
     a5a:	0901                	addi	s2,s2,0
     a5c:	0004                	0x4
     a5e:	0501                	addi	a0,a0,0
     a60:	0309                	addi	t1,t1,2
     a62:	0901                	addi	s2,s2,0
     a64:	0004                	0x4
     a66:	0001                	nop
     a68:	0402                	c.slli64	s0
     a6a:	0301                	addi	t1,t1,0
     a6c:	0901                	addi	s2,s2,0
     a6e:	0004                	0x4
     a70:	0501                	addi	a0,a0,0
     a72:	000a                	c.slli	zero,0x2
     a74:	0402                	c.slli64	s0
     a76:	0301                	addi	t1,t1,0
     a78:	0900                	addi	s0,sp,144
     a7a:	0008                	0x8
     a7c:	0501                	addi	a0,a0,0
     a7e:	09010303          	lb	t1,144(sp)
     a82:	0004                	0x4
     a84:	0501                	addi	a0,a0,0
     a86:	0901030b          	0x901030b
     a8a:	000c                	0xc
     a8c:	0501                	addi	a0,a0,0
     a8e:	030d                	addi	t1,t1,3
     a90:	0902                	c.slli64	s2
     a92:	004c                	addi	a1,sp,4
     a94:	0501                	addi	a0,a0,0
     a96:	0305                	addi	t1,t1,1
     a98:	0901                	addi	s2,s2,0
     a9a:	0008                	0x8
     a9c:	0501                	addi	a0,a0,0
     a9e:	030d                	addi	t1,t1,3
     aa0:	00040903          	lb	s2,0(s0) # ffffffffffff8000 <_ZL7out_buf+0xffffffff7fff3dd8>
     aa4:	0501                	addi	a0,a0,0
     aa6:	0305                	addi	t1,t1,1
     aa8:	0901                	addi	s2,s2,0
     aaa:	0008                	0x8
     aac:	0501                	addi	a0,a0,0
     aae:	000d                	c.nop	3
     ab0:	0402                	c.slli64	s0
     ab2:	0301                	addi	t1,t1,0
     ab4:	0900                	addi	s0,sp,144
     ab6:	0008                	0x8
     ab8:	0301                	addi	t1,t1,0
     aba:	0901                	addi	s2,s2,0
     abc:	000c                	0xc
     abe:	0501                	addi	a0,a0,0
     ac0:	0900030f          	0x900030f
     ac4:	000c                	0xc
     ac6:	0501                	addi	a0,a0,0
     ac8:	0308                	addi	a0,sp,384
     aca:	0902                	c.slli64	s2
     acc:	0008                	0x8
     ace:	0501                	addi	a0,a0,0
     ad0:	0305                	addi	t1,t1,1
     ad2:	0901                	addi	s2,s2,0
     ad4:	000c                	0xc
     ad6:	0501                	addi	a0,a0,0
     ad8:	000d                	c.nop	3
     ada:	0402                	c.slli64	s0
     adc:	0301                	addi	t1,t1,0
     ade:	0900                	addi	s0,sp,144
     ae0:	0008                	0x8
     ae2:	0301                	addi	t1,t1,0
     ae4:	0901                	addi	s2,s2,0
     ae6:	000c                	0xc
     ae8:	0501                	addi	a0,a0,0
     aea:	0900030f          	0x900030f
     aee:	000c                	0xc
     af0:	0501                	addi	a0,a0,0
     af2:	0308                	addi	a0,sp,384
     af4:	0902                	c.slli64	s2
     af6:	0008                	0x8
     af8:	0501                	addi	a0,a0,0
     afa:	0318                	addi	a4,sp,384
     afc:	000c0903          	lb	s2,0(s8)
     b00:	0501                	addi	a0,a0,0
     b02:	032d                	addi	t1,t1,11
     b04:	0900                	addi	s0,sp,144
     b06:	0020                	addi	s0,sp,8
     b08:	0001                	nop
     b0a:	0402                	c.slli64	s0
     b0c:	0604                	addi	s1,sp,768
     b0e:	10090003          	lb	zero,256(s2) # 18100 <STACK_SIZE+0x17d00>
     b12:	0100                	addi	s0,sp,128
     b14:	0905                	addi	s2,s2,1
     b16:	0200                	addi	s0,sp,256
     b18:	0404                	addi	s1,sp,512
     b1a:	0306                	slli	t1,t1,0x1
     b1c:	0901                	addi	s2,s2,0
     b1e:	0004                	0x4
     b20:	0001                	nop
     b22:	0402                	c.slli64	s0
     b24:	0601                	addi	a2,a2,0
     b26:	0c090003          	lb	zero,192(s2)
     b2a:	0100                	addi	s0,sp,128
     b2c:	0200                	addi	s0,sp,256
     b2e:	0204                	addi	s1,sp,256
     b30:	08090003          	lb	zero,128(s2)
     b34:	0100                	addi	s0,sp,128
     b36:	0200                	addi	s0,sp,256
     b38:	0404                	addi	s1,sp,512
     b3a:	04090003          	lb	zero,64(s2)
     b3e:	0100                	addi	s0,sp,128
     b40:	0d05                	addi	s10,s10,1
     b42:	0200                	addi	s0,sp,256
     b44:	0404                	addi	s1,sp,512
     b46:	0306                	slli	t1,t1,0x1
     b48:	0901                	addi	s2,s2,0
     b4a:	0004                	0x4
     b4c:	0501                	addi	a0,a0,0
     b4e:	001e                	c.slli	zero,0x7
     b50:	0402                	c.slli64	s0
     b52:	0301                	addi	t1,t1,0
     b54:	0900                	addi	s0,sp,144
     b56:	0008                	0x8
     b58:	0501                	addi	a0,a0,0
     b5a:	0318                	addi	a4,sp,384
     b5c:	0901                	addi	s2,s2,0
     b5e:	000c                	0xc
     b60:	0501                	addi	a0,a0,0
     b62:	09000313          	li	t1,144
     b66:	000c                	0xc
     b68:	0501                	addi	a0,a0,0
     b6a:	031d                	addi	t1,t1,7
     b6c:	0900                	addi	s0,sp,144
     b6e:	0008                	0x8
     b70:	0501                	addi	a0,a0,0
     b72:	030a                	slli	t1,t1,0x2
     b74:	0900                	addi	s0,sp,144
     b76:	0004                	0x4
     b78:	0501                	addi	a0,a0,0
     b7a:	0306                	slli	t1,t1,0x1
     b7c:	0901                	addi	s2,s2,0
     b7e:	0008                	0x8
     b80:	0501                	addi	a0,a0,0
     b82:	000e                	c.slli	zero,0x3
     b84:	0402                	c.slli64	s0
     b86:	0301                	addi	t1,t1,0
     b88:	0900                	addi	s0,sp,144
     b8a:	0008                	0x8
     b8c:	0501                	addi	a0,a0,0
     b8e:	0310                	addi	a2,sp,384
     b90:	0901                	addi	s2,s2,0
     b92:	000c                	0xc
     b94:	0501                	addi	a0,a0,0
     b96:	001f 0402 0301      	0x3010402001f
     b9c:	0900                	addi	s0,sp,144
     b9e:	0010                	0x10
     ba0:	0501                	addi	a0,a0,0
     ba2:	0010                	0x10
     ba4:	0402                	c.slli64	s0
     ba6:	0301                	addi	t1,t1,0
     ba8:	0900                	addi	s0,sp,144
     baa:	0008                	0x8
     bac:	0501                	addi	a0,a0,0
     bae:	0029                	c.nop	10
     bb0:	0402                	c.slli64	s0
     bb2:	0302                	c.slli64	t1
     bb4:	0900                	addi	s0,sp,144
     bb6:	000c                	0xc
     bb8:	0501                	addi	a0,a0,0
     bba:	0010                	0x10
     bbc:	0402                	c.slli64	s0
     bbe:	0302                	c.slli64	t1
     bc0:	0900                	addi	s0,sp,144
     bc2:	0008                	0x8
     bc4:	0501                	addi	a0,a0,0
     bc6:	000e                	c.slli	zero,0x3
     bc8:	0402                	c.slli64	s0
     bca:	0304                	addi	s1,sp,384
     bcc:	0900                	addi	s0,sp,144
     bce:	0008                	0x8
     bd0:	0501                	addi	a0,a0,0
     bd2:	0010                	0x10
     bd4:	0402                	c.slli64	s0
     bd6:	0304                	addi	s1,sp,384
     bd8:	0900                	addi	s0,sp,144
     bda:	000c                	0xc
     bdc:	0501                	addi	a0,a0,0
     bde:	0009                	c.nop	2
     be0:	0402                	c.slli64	s0
     be2:	0302                	c.slli64	t1
     be4:	0902                	c.slli64	s2
     be6:	0004                	0x4
     be8:	0501                	addi	a0,a0,0
     bea:	0005                	c.nop	1
     bec:	0402                	c.slli64	s0
     bee:	0302                	c.slli64	t1
     bf0:	000c097b          	0xc097b
     bf4:	0501                	addi	a0,a0,0
     bf6:	030d                	addi	t1,t1,3
     bf8:	00100907          	0x100907
     bfc:	0501                	addi	a0,a0,0
     bfe:	030c                	addi	a1,sp,384
     c00:	0901                	addi	s2,s2,0
     c02:	0004                	0x4
     c04:	0501                	addi	a0,a0,0
     c06:	0305                	addi	t1,t1,1
     c08:	0901                	addi	s2,s2,0
     c0a:	0004                	0x4
     c0c:	0501                	addi	a0,a0,0
     c0e:	0318                	addi	a4,sp,384
     c10:	00040903          	lb	s2,0(s0)
     c14:	0501                	addi	a0,a0,0
     c16:	032d                	addi	t1,t1,11
     c18:	0900                	addi	s0,sp,144
     c1a:	0020                	addi	s0,sp,8
     c1c:	0001                	nop
     c1e:	0402                	c.slli64	s0
     c20:	0604                	addi	s1,sp,768
     c22:	10090003          	lb	zero,256(s2)
     c26:	0100                	addi	s0,sp,128
     c28:	0505                	addi	a0,a0,1
     c2a:	0200                	addi	s0,sp,256
     c2c:	0404                	addi	s1,sp,512
     c2e:	0306                	slli	t1,t1,0x1
     c30:	0901                	addi	s2,s2,0
     c32:	0004                	0x4
     c34:	0501                	addi	a0,a0,0
     c36:	030a                	slli	t1,t1,0x2
     c38:	0901                	addi	s2,s2,0
     c3a:	0008                	0x8
     c3c:	0501                	addi	a0,a0,0
     c3e:	0306                	slli	t1,t1,0x1
     c40:	0901                	addi	s2,s2,0
     c42:	000c                	0xc
     c44:	0501                	addi	a0,a0,0
     c46:	000e                	c.slli	zero,0x3
     c48:	0402                	c.slli64	s0
     c4a:	0301                	addi	t1,t1,0
     c4c:	0900                	addi	s0,sp,144
     c4e:	0008                	0x8
     c50:	0301                	addi	t1,t1,0
     c52:	0901                	addi	s2,s2,0
     c54:	000c                	0xc
     c56:	0501                	addi	a0,a0,0
     c58:	0310                	addi	a2,sp,384
     c5a:	0900                	addi	s0,sp,144
     c5c:	000c                	0xc
     c5e:	0501                	addi	a0,a0,0
     c60:	0309                	addi	t1,t1,2
     c62:	0902                	c.slli64	s2
     c64:	0008                	0x8
     c66:	0501                	addi	a0,a0,0
     c68:	030a                	slli	t1,t1,0x2
     c6a:	0902                	c.slli64	s2
     c6c:	000c                	0xc
     c6e:	0501                	addi	a0,a0,0
     c70:	0901030f          	0x901030f
     c74:	0008                	0x8
     c76:	0501                	addi	a0,a0,0
     c78:	001c                	0x1c
     c7a:	0402                	c.slli64	s0
     c7c:	09000303          	lb	t1,144(zero) # 90 <STACK_SIZE-0x370>
     c80:	0008                	0x8
     c82:	0501                	addi	a0,a0,0
     c84:	001f 0402 0303      	0x3030402001f
     c8a:	0900                	addi	s0,sp,144
     c8c:	0010                	0x10
     c8e:	0501                	addi	a0,a0,0
     c90:	0005                	c.nop	1
     c92:	0402                	c.slli64	s0
     c94:	0302                	c.slli64	t1
     c96:	0900                	addi	s0,sp,144
     c98:	0010                	0x10
     c9a:	0501                	addi	a0,a0,0
     c9c:	0318                	addi	a4,sp,384
     c9e:	0901                	addi	s2,s2,0
     ca0:	0010                	0x10
     ca2:	0501                	addi	a0,a0,0
     ca4:	030e                	slli	t1,t1,0x3
     ca6:	0900                	addi	s0,sp,144
     ca8:	0010                	0x10
     caa:	0501                	addi	a0,a0,0
     cac:	001e                	c.slli	zero,0x7
     cae:	0402                	c.slli64	s0
     cb0:	0301                	addi	t1,t1,0
     cb2:	0900                	addi	s0,sp,144
     cb4:	0004                	0x4
     cb6:	0501                	addi	a0,a0,0
     cb8:	0306                	slli	t1,t1,0x1
     cba:	0901                	addi	s2,s2,0
     cbc:	000c                	0xc
     cbe:	0501                	addi	a0,a0,0
     cc0:	04020017          	auipc	zero,0x4020
     cc4:	0301                	addi	t1,t1,0
     cc6:	0900                	addi	s0,sp,144
     cc8:	0008                	0x8
     cca:	0501                	addi	a0,a0,0
     ccc:	0015                	c.nop	5
     cce:	0402                	c.slli64	s0
     cd0:	0301                	addi	t1,t1,0
     cd2:	0900                	addi	s0,sp,144
     cd4:	0004                	0x4
     cd6:	0501                	addi	a0,a0,0
     cd8:	000e                	c.slli	zero,0x3
     cda:	0402                	c.slli64	s0
     cdc:	0301                	addi	t1,t1,0
     cde:	0900                	addi	s0,sp,144
     ce0:	0008                	0x8
     ce2:	0501                	addi	a0,a0,0
     ce4:	0321                	addi	t1,t1,8
     ce6:	0901                	addi	s2,s2,0
     ce8:	0008                	0x8
     cea:	0501                	addi	a0,a0,0
     cec:	031a                	slli	t1,t1,0x6
     cee:	0900                	addi	s0,sp,144
     cf0:	000c                	0xc
     cf2:	0501                	addi	a0,a0,0
     cf4:	0311                	addi	t1,t1,4
     cf6:	0900                	addi	s0,sp,144
     cf8:	0004                	0x4
     cfa:	0501                	addi	a0,a0,0
     cfc:	0900030f          	0x900030f
     d00:	0004                	0x4
     d02:	0501                	addi	a0,a0,0
     d04:	0312                	slli	t1,t1,0x4
     d06:	0900                	addi	s0,sp,144
     d08:	0008                	0x8
     d0a:	0501                	addi	a0,a0,0
     d0c:	031a                	slli	t1,t1,0x6
     d0e:	0900                	addi	s0,sp,144
     d10:	0008                	0x8
     d12:	0501                	addi	a0,a0,0
     d14:	0314                	addi	a3,sp,384
     d16:	0900                	addi	s0,sp,144
     d18:	0008                	0x8
     d1a:	0501                	addi	a0,a0,0
     d1c:	000a                	c.slli	zero,0x2
     d1e:	0402                	c.slli64	s0
     d20:	0302                	c.slli64	t1
     d22:	0902                	c.slli64	s2
     d24:	0004                	0x4
     d26:	0501                	addi	a0,a0,0
     d28:	0005                	c.nop	1
     d2a:	0402                	c.slli64	s0
     d2c:	0302                	c.slli64	t1
     d2e:	097c                	addi	a5,sp,156
     d30:	0010                	0x10
     d32:	0501                	addi	a0,a0,0
     d34:	030c                	addi	a1,sp,384
     d36:	0906                	slli	s2,s2,0x1
     d38:	0010                	0x10
     d3a:	0501                	addi	a0,a0,0
     d3c:	0309                	addi	t1,t1,2
     d3e:	0900                	addi	s0,sp,144
     d40:	0004                	0x4
     d42:	0501                	addi	a0,a0,0
     d44:	030d                	addi	t1,t1,3
     d46:	0901                	addi	s2,s2,0
     d48:	000c                	0xc
     d4a:	0501                	addi	a0,a0,0
     d4c:	030c                	addi	a1,sp,384
     d4e:	0901                	addi	s2,s2,0
     d50:	0004                	0x4
     d52:	0501                	addi	a0,a0,0
     d54:	0305                	addi	t1,t1,1
     d56:	0901                	addi	s2,s2,0
     d58:	0004                	0x4
     d5a:	0501                	addi	a0,a0,0
     d5c:	0316                	slli	t1,t1,0x5
     d5e:	00040903          	lb	s2,0(s0)
     d62:	0501                	addi	a0,a0,0
     d64:	030c                	addi	a1,sp,384
     d66:	0901                	addi	s2,s2,0
     d68:	0014                	0x14
     d6a:	0501                	addi	a0,a0,0
     d6c:	030d                	addi	t1,t1,3
     d6e:	0900                	addi	s0,sp,144
     d70:	0008                	0x8
     d72:	0501                	addi	a0,a0,0
     d74:	0306                	slli	t1,t1,0x1
     d76:	0901                	addi	s2,s2,0
     d78:	0004                	0x4
     d7a:	0501                	addi	a0,a0,0
     d7c:	000e                	c.slli	zero,0x3
     d7e:	0402                	c.slli64	s0
     d80:	0301                	addi	t1,t1,0
     d82:	0900                	addi	s0,sp,144
     d84:	0008                	0x8
     d86:	0301                	addi	t1,t1,0
     d88:	0901                	addi	s2,s2,0
     d8a:	000c                	0xc
     d8c:	0501                	addi	a0,a0,0
     d8e:	0312                	slli	t1,t1,0x4
     d90:	0900                	addi	s0,sp,144
     d92:	000c                	0xc
     d94:	0501                	addi	a0,a0,0
     d96:	0310                	addi	a2,sp,384
     d98:	0900                	addi	s0,sp,144
     d9a:	0008                	0x8
     d9c:	0501                	addi	a0,a0,0
     d9e:	0309                	addi	t1,t1,2
     da0:	0902                	c.slli64	s2
     da2:	0004                	0x4
     da4:	0501                	addi	a0,a0,0
     da6:	0308                	addi	a0,sp,384
     da8:	0901                	addi	s2,s2,0
     daa:	000c                	0xc
     dac:	0501                	addi	a0,a0,0
     dae:	0305                	addi	t1,t1,1
     db0:	000c097b          	0xc097b
     db4:	0501                	addi	a0,a0,0
     db6:	030d                	addi	t1,t1,3
     db8:	00040907          	0x40907
     dbc:	0501                	addi	a0,a0,0
     dbe:	030c                	addi	a1,sp,384
     dc0:	0901                	addi	s2,s2,0
     dc2:	0004                	0x4
     dc4:	0501                	addi	a0,a0,0
     dc6:	0305                	addi	t1,t1,1
     dc8:	0901                	addi	s2,s2,0
     dca:	0004                	0x4
     dcc:	0301                	addi	t1,t1,0
     dce:	00040903          	lb	s2,0(s0)
     dd2:	0501                	addi	a0,a0,0
     dd4:	000d                	c.nop	3
     dd6:	0402                	c.slli64	s0
     dd8:	0301                	addi	t1,t1,0
     dda:	0900                	addi	s0,sp,144
     ddc:	0008                	0x8
     dde:	0501                	addi	a0,a0,0
     de0:	09010317          	auipc	t1,0x9010
     de4:	000c                	0xc
     de6:	0501                	addi	a0,a0,0
     de8:	030d                	addi	t1,t1,3
     dea:	0900                	addi	s0,sp,144
     dec:	0010                	0x10
     dee:	0501                	addi	a0,a0,0
     df0:	0900030f          	0x900030f
     df4:	000c                	0xc
     df6:	0501                	addi	a0,a0,0
     df8:	0308                	addi	a0,sp,384
     dfa:	0902                	c.slli64	s2
     dfc:	0008                	0x8
     dfe:	0501                	addi	a0,a0,0
     e00:	030d                	addi	t1,t1,3
     e02:	0901                	addi	s2,s2,0
     e04:	000c                	0xc
     e06:	0501                	addi	a0,a0,0
     e08:	030c                	addi	a1,sp,384
     e0a:	0901                	addi	s2,s2,0
     e0c:	0004                	0x4
     e0e:	0501                	addi	a0,a0,0
     e10:	0305                	addi	t1,t1,1
     e12:	0901                	addi	s2,s2,0
     e14:	0004                	0x4
     e16:	0501                	addi	a0,a0,0
     e18:	030e                	slli	t1,t1,0x3
     e1a:	0905                	addi	s2,s2,1
     e1c:	0004                	0x4
     e1e:	0501                	addi	a0,a0,0
     e20:	030a                	slli	t1,t1,0x2
     e22:	0900                	addi	s0,sp,144
     e24:	0008                	0x8
     e26:	0501                	addi	a0,a0,0
     e28:	0901030b          	0x901030b
     e2c:	000c                	0xc
     e2e:	0501                	addi	a0,a0,0
     e30:	0304                	addi	s1,sp,384
     e32:	0902                	c.slli64	s2
     e34:	000c                	0xc
     e36:	0501                	addi	a0,a0,0
     e38:	000c                	0xc
     e3a:	0402                	c.slli64	s0
     e3c:	0301                	addi	t1,t1,0
     e3e:	0900                	addi	s0,sp,144
     e40:	0008                	0x8
     e42:	0301                	addi	t1,t1,0
     e44:	0901                	addi	s2,s2,0
     e46:	000c                	0xc
     e48:	0501                	addi	a0,a0,0
     e4a:	0310                	addi	a2,sp,384
     e4c:	0900                	addi	s0,sp,144
     e4e:	000c                	0xc
     e50:	0501                	addi	a0,a0,0
     e52:	030e                	slli	t1,t1,0x3
     e54:	0900                	addi	s0,sp,144
     e56:	0008                	0x8
     e58:	0501                	addi	a0,a0,0
     e5a:	09020307          	0x9020307
     e5e:	0004                	0x4
     e60:	0501                	addi	a0,a0,0
     e62:	0305                	addi	t1,t1,1
     e64:	0978                	addi	a4,sp,156
     e66:	0010                	0x10
     e68:	0501                	addi	a0,a0,0
     e6a:	0302                	c.slli64	t1
     e6c:	04097fb3          	0x4097fb3
     e70:	0100                	addi	s0,sp,128
     e72:	0900d803          	lhu	a6,144(ra)
     e76:	0010                	0x10
     e78:	0501                	addi	a0,a0,0
     e7a:	000a                	c.slli	zero,0x2
     e7c:	0402                	c.slli64	s0
     e7e:	0301                	addi	t1,t1,0
     e80:	0900                	addi	s0,sp,144
     e82:	0008                	0x8
     e84:	0301                	addi	t1,t1,0
     e86:	0901                	addi	s2,s2,0
     e88:	000c                	0xc
     e8a:	0501                	addi	a0,a0,0
     e8c:	030c                	addi	a1,sp,384
     e8e:	0900                	addi	s0,sp,144
     e90:	000c                	0xc
     e92:	0501                	addi	a0,a0,0
     e94:	0309                	addi	t1,t1,2
     e96:	0901                	addi	s2,s2,0
     e98:	0008                	0x8
     e9a:	0501                	addi	a0,a0,0
     e9c:	0011                	c.nop	4
     e9e:	0402                	c.slli64	s0
     ea0:	0301                	addi	t1,t1,0
     ea2:	0900                	addi	s0,sp,144
     ea4:	0008                	0x8
     ea6:	0501                	addi	a0,a0,0
     ea8:	030a                	slli	t1,t1,0x2
     eaa:	0901                	addi	s2,s2,0
     eac:	0008                	0x8
     eae:	0501                	addi	a0,a0,0
     eb0:	030c                	addi	a1,sp,384
     eb2:	0900                	addi	s0,sp,144
     eb4:	0010                	0x10
     eb6:	0501                	addi	a0,a0,0
     eb8:	0309                	addi	t1,t1,2
     eba:	0902                	c.slli64	s2
     ebc:	0004                	0x4
     ebe:	0501                	addi	a0,a0,0
     ec0:	0301                	addi	t1,t1,0
     ec2:	0901                	addi	s2,s2,0
     ec4:	0008                	0x8
     ec6:	0301                	addi	t1,t1,0
     ec8:	0905                	addi	s2,s2,1
     eca:	0010                	0x10
     ecc:	0501                	addi	a0,a0,0
     ece:	0316                	slli	t1,t1,0x5
     ed0:	0901                	addi	s2,s2,0
     ed2:	0018                	0x18
     ed4:	0501                	addi	a0,a0,0
     ed6:	0309                	addi	t1,t1,2
     ed8:	0901                	addi	s2,s2,0
     eda:	001c                	0x1c
     edc:	0501                	addi	a0,a0,0
     ede:	0302                	c.slli64	t1
     ee0:	0900                	addi	s0,sp,144
     ee2:	0010                	0x10
     ee4:	0501                	addi	a0,a0,0
     ee6:	09010307          	0x9010307
     eea:	0008                	0x8
     eec:	0501                	addi	a0,a0,0
     eee:	04020003          	lb	zero,64(tp) # ffffffffffff8040 <_ZL7out_buf+0xffffffff7fff3e18>
     ef2:	0301                	addi	t1,t1,0
     ef4:	0901                	addi	s2,s2,0
     ef6:	0018                	0x18
     ef8:	0501                	addi	a0,a0,0
     efa:	031a                	slli	t1,t1,0x6
     efc:	0902                	c.slli64	s2
     efe:	0004                	0x4
     f00:	0501                	addi	a0,a0,0
     f02:	030c                	addi	a1,sp,384
     f04:	0900                	addi	s0,sp,144
     f06:	000c                	0xc
     f08:	0501                	addi	a0,a0,0
     f0a:	0306                	slli	t1,t1,0x1
     f0c:	0901                	addi	s2,s2,0
     f0e:	0018                	0x18
     f10:	0501                	addi	a0,a0,0
     f12:	0309                	addi	t1,t1,2
     f14:	0901                	addi	s2,s2,0
     f16:	0018                	0x18
     f18:	0501                	addi	a0,a0,0
     f1a:	0301                	addi	t1,t1,0
     f1c:	0901                	addi	s2,s2,0
     f1e:	0004                	0x4
     f20:	0301                	addi	t1,t1,0
     f22:	00140903          	lb	s2,1(s0)
     f26:	0501                	addi	a0,a0,0
     f28:	0306                	slli	t1,t1,0x1
     f2a:	0901                	addi	s2,s2,0
     f2c:	0030                	addi	a2,sp,8
     f2e:	0501                	addi	a0,a0,0
     f30:	0302                	c.slli64	t1
     f32:	0902                	c.slli64	s2
     f34:	0004                	0x4
     f36:	0501                	addi	a0,a0,0
     f38:	0310                	addi	a2,sp,384
     f3a:	0901                	addi	s2,s2,0
     f3c:	0014                	0x14
     f3e:	0501                	addi	a0,a0,0
     f40:	0309                	addi	t1,t1,2
     f42:	0902                	c.slli64	s2
     f44:	0018                	0x18
     f46:	0501                	addi	a0,a0,0
     f48:	0301                	addi	t1,t1,0
     f4a:	0901                	addi	s2,s2,0
     f4c:	0004                	0x4
     f4e:	0301                	addi	t1,t1,0
     f50:	00140903          	lb	s2,1(s0)
     f54:	0501                	addi	a0,a0,0
     f56:	0308                	addi	a0,sp,384
     f58:	0901                	addi	s2,s2,0
     f5a:	0014                	0x14
     f5c:	0301                	addi	t1,t1,0
     f5e:	0901                	addi	s2,s2,0
     f60:	000c                	0xc
     f62:	0301                	addi	t1,t1,0
     f64:	0901                	addi	s2,s2,0
     f66:	0008                	0x8
     f68:	0501                	addi	a0,a0,0
     f6a:	0002                	c.slli64	zero
     f6c:	0402                	c.slli64	s0
     f6e:	0301                	addi	t1,t1,0
     f70:	0901                	addi	s2,s2,0
     f72:	000c                	0xc
     f74:	0501                	addi	a0,a0,0
     f76:	0315                	addi	t1,t1,5
     f78:	0902                	c.slli64	s2
     f7a:	0004                	0x4
     f7c:	0501                	addi	a0,a0,0
     f7e:	0014                	0x14
     f80:	0402                	c.slli64	s0
     f82:	0301                	addi	t1,t1,0
     f84:	0901                	addi	s2,s2,0
     f86:	0014                	0x14
     f88:	0501                	addi	a0,a0,0
     f8a:	031e                	slli	t1,t1,0x7
     f8c:	0904                	addi	s1,sp,144
     f8e:	0008                	0x8
     f90:	0501                	addi	a0,a0,0
     f92:	030a                	slli	t1,t1,0x2
     f94:	0901                	addi	s2,s2,0
     f96:	0010                	0x10
     f98:	0501                	addi	a0,a0,0
     f9a:	0009                	c.nop	2
     f9c:	0402                	c.slli64	s0
     f9e:	0302                	c.slli64	t1
     fa0:	0901                	addi	s2,s2,0
     fa2:	0004                	0x4
     fa4:	0501                	addi	a0,a0,0
     fa6:	000a                	c.slli	zero,0x2
     fa8:	0402                	c.slli64	s0
     faa:	0302                	c.slli64	t1
     fac:	0900                	addi	s0,sp,144
     fae:	0008                	0x8
     fb0:	0501                	addi	a0,a0,0
     fb2:	0402000f          	0x402000f
     fb6:	0301                	addi	t1,t1,0
     fb8:	0900                	addi	s0,sp,144
     fba:	0004                	0x4
     fbc:	0501                	addi	a0,a0,0
     fbe:	04020003          	lb	zero,64(tp) # 40 <STACK_SIZE-0x3c0>
     fc2:	0301                	addi	t1,t1,0
     fc4:	0900                	addi	s0,sp,144
     fc6:	0018                	0x18
     fc8:	0501                	addi	a0,a0,0
     fca:	030a                	slli	t1,t1,0x2
     fcc:	0901                	addi	s2,s2,0
     fce:	0004                	0x4
     fd0:	0501                	addi	a0,a0,0
     fd2:	0301                	addi	t1,t1,0
     fd4:	0901                	addi	s2,s2,0
     fd6:	0004                	0x4
     fd8:	0501                	addi	a0,a0,0
     fda:	032a                	slli	t1,t1,0xa
     fdc:	0902                	c.slli64	s2
     fde:	0010                	0x10
     fe0:	0501                	addi	a0,a0,0
     fe2:	0308                	addi	a0,sp,384
     fe4:	0902                	c.slli64	s2
     fe6:	0014                	0x14
     fe8:	0501                	addi	a0,a0,0
     fea:	000d                	c.nop	3
     fec:	0402                	c.slli64	s0
     fee:	09000303          	lb	t1,144(zero) # 90 <STACK_SIZE-0x370>
     ff2:	0008                	0x8
     ff4:	0501                	addi	a0,a0,0
     ff6:	000e                	c.slli	zero,0x3
     ff8:	0402                	c.slli64	s0
     ffa:	09000303          	lb	t1,144(zero) # 90 <STACK_SIZE-0x370>
     ffe:	0008                	0x8
    1000:	0501                	addi	a0,a0,0
    1002:	001f 0402 0302      	0x3020402001f
    1008:	0900                	addi	s0,sp,144
    100a:	0004                	0x4
    100c:	0501                	addi	a0,a0,0
    100e:	001e                	c.slli	zero,0x7
    1010:	0402                	c.slli64	s0
    1012:	0302                	c.slli64	t1
    1014:	0900                	addi	s0,sp,144
    1016:	0008                	0x8
    1018:	0501                	addi	a0,a0,0
    101a:	04020003          	lb	zero,64(tp) # 40 <STACK_SIZE-0x3c0>
    101e:	0302                	c.slli64	t1
    1020:	0900                	addi	s0,sp,144
    1022:	0008                	0x8
    1024:	0501                	addi	a0,a0,0
    1026:	0305                	addi	t1,t1,1
    1028:	0901                	addi	s2,s2,0
    102a:	001c                	0x1c
    102c:	0501                	addi	a0,a0,0
    102e:	030a                	slli	t1,t1,0x2
    1030:	0901                	addi	s2,s2,0
    1032:	0008                	0x8
    1034:	0501                	addi	a0,a0,0
    1036:	0301                	addi	t1,t1,0
    1038:	0901                	addi	s2,s2,0
    103a:	0004                	0x4
    103c:	0501                	addi	a0,a0,0
    103e:	0335                	addi	t1,t1,13
    1040:	0902                	c.slli64	s2
    1042:	0010                	0x10
    1044:	0501                	addi	a0,a0,0
    1046:	030a                	slli	t1,t1,0x2
    1048:	0902                	c.slli64	s2
    104a:	0018                	0x18
    104c:	0501                	addi	a0,a0,0
    104e:	0308                	addi	a0,sp,384
    1050:	0901                	addi	s2,s2,0
    1052:	0004                	0x4
    1054:	0501                	addi	a0,a0,0
    1056:	000d                	c.nop	3
    1058:	0402                	c.slli64	s0
    105a:	0304                	addi	s1,sp,384
    105c:	0900                	addi	s0,sp,144
    105e:	0008                	0x8
    1060:	0501                	addi	a0,a0,0
    1062:	0011                	c.nop	4
    1064:	0402                	c.slli64	s0
    1066:	0304                	addi	s1,sp,384
    1068:	0900                	addi	s0,sp,144
    106a:	0008                	0x8
    106c:	0001                	nop
    106e:	0402                	c.slli64	s0
    1070:	0602                	c.slli64	a2
    1072:	04090003          	lb	zero,64(s2)
    1076:	0100                	addi	s0,sp,128
    1078:	2c05                	addiw	s8,s8,1
    107a:	0200                	addi	s0,sp,256
    107c:	0304                	addi	s1,sp,384
    107e:	0306                	slli	t1,t1,0x1
    1080:	0900                	addi	s0,sp,144
    1082:	000c                	0xc
    1084:	0501                	addi	a0,a0,0
    1086:	0402002b          	0x402002b
    108a:	09000303          	lb	t1,144(zero) # 90 <STACK_SIZE-0x370>
    108e:	0008                	0x8
    1090:	0501                	addi	a0,a0,0
    1092:	04020003          	lb	zero,64(tp) # 40 <STACK_SIZE-0x3c0>
    1096:	09000303          	lb	t1,144(zero) # 90 <STACK_SIZE-0x370>
    109a:	0008                	0x8
    109c:	0501                	addi	a0,a0,0
    109e:	0402000b          	0x402000b
    10a2:	0302                	c.slli64	t1
    10a4:	0901                	addi	s2,s2,0
    10a6:	0028                	addi	a0,sp,8
    10a8:	0501                	addi	a0,a0,0
    10aa:	001a                	c.slli	zero,0x6
    10ac:	0402                	c.slli64	s0
    10ae:	0301                	addi	t1,t1,0
    10b0:	0900                	addi	s0,sp,144
    10b2:	000c                	0xc
    10b4:	0501                	addi	a0,a0,0
    10b6:	04020003          	lb	zero,64(tp) # 40 <STACK_SIZE-0x3c0>
    10ba:	0301                	addi	t1,t1,0
    10bc:	0900                	addi	s0,sp,144
    10be:	0008                	0x8
    10c0:	0501                	addi	a0,a0,0
    10c2:	030a                	slli	t1,t1,0x2
    10c4:	0901                	addi	s2,s2,0
    10c6:	001c                	0x1c
    10c8:	0501                	addi	a0,a0,0
    10ca:	0301                	addi	t1,t1,0
    10cc:	0901                	addi	s2,s2,0
    10ce:	0004                	0x4
    10d0:	0501                	addi	a0,a0,0
    10d2:	032a                	slli	t1,t1,0xa
    10d4:	0902                	c.slli64	s2
    10d6:	0010                	0x10
    10d8:	0501                	addi	a0,a0,0
    10da:	0309                	addi	t1,t1,2
    10dc:	0901                	addi	s2,s2,0
    10de:	0014                	0x14
    10e0:	0001                	nop
    10e2:	0402                	c.slli64	s0
    10e4:	0302                	c.slli64	t1
    10e6:	0901                	addi	s2,s2,0
    10e8:	0008                	0x8
    10ea:	0501                	addi	a0,a0,0
    10ec:	000a                	c.slli	zero,0x2
    10ee:	0402                	c.slli64	s0
    10f0:	0302                	c.slli64	t1
    10f2:	0900                	addi	s0,sp,144
    10f4:	0008                	0x8
    10f6:	0501                	addi	a0,a0,0
    10f8:	000d                	c.nop	3
    10fa:	0402                	c.slli64	s0
    10fc:	0301                	addi	t1,t1,0
    10fe:	0900                	addi	s0,sp,144
    1100:	0004                	0x4
    1102:	0501                	addi	a0,a0,0
    1104:	04020003          	lb	zero,64(tp) # 40 <STACK_SIZE-0x3c0>
    1108:	0301                	addi	t1,t1,0
    110a:	0900                	addi	s0,sp,144
    110c:	000c                	0xc
    110e:	0501                	addi	a0,a0,0
    1110:	0008                	0x8
    1112:	0402                	c.slli64	s0
    1114:	0302                	c.slli64	t1
    1116:	0901                	addi	s2,s2,0
    1118:	0004                	0x4
    111a:	0501                	addi	a0,a0,0
    111c:	0009                	c.nop	2
    111e:	0402                	c.slli64	s0
    1120:	0302                	c.slli64	t1
    1122:	0900                	addi	s0,sp,144
    1124:	0008                	0x8
    1126:	0501                	addi	a0,a0,0
    1128:	001a                	c.slli	zero,0x6
    112a:	0402                	c.slli64	s0
    112c:	0301                	addi	t1,t1,0
    112e:	0900                	addi	s0,sp,144
    1130:	0004                	0x4
    1132:	0501                	addi	a0,a0,0
    1134:	0019                	c.nop	6
    1136:	0402                	c.slli64	s0
    1138:	0301                	addi	t1,t1,0
    113a:	0900                	addi	s0,sp,144
    113c:	0008                	0x8
    113e:	0501                	addi	a0,a0,0
    1140:	04020003          	lb	zero,64(tp) # 40 <STACK_SIZE-0x3c0>
    1144:	0301                	addi	t1,t1,0
    1146:	0900                	addi	s0,sp,144
    1148:	0008                	0x8
    114a:	0501                	addi	a0,a0,0
    114c:	0305                	addi	t1,t1,1
    114e:	0901                	addi	s2,s2,0
    1150:	001c                	0x1c
    1152:	0501                	addi	a0,a0,0
    1154:	030a                	slli	t1,t1,0x2
    1156:	0901                	addi	s2,s2,0
    1158:	0008                	0x8
    115a:	0501                	addi	a0,a0,0
    115c:	0301                	addi	t1,t1,0
    115e:	0901                	addi	s2,s2,0
    1160:	0004                	0x4
    1162:	0501                	addi	a0,a0,0
    1164:	032c                	addi	a1,sp,392
    1166:	0902                	c.slli64	s2
    1168:	0010                	0x10
    116a:	0501                	addi	a0,a0,0
    116c:	0008                	0x8
    116e:	0402                	c.slli64	s0
    1170:	0301                	addi	t1,t1,0
    1172:	0901                	addi	s2,s2,0
    1174:	0014                	0x14
    1176:	0501                	addi	a0,a0,0
    1178:	000d                	c.nop	3
    117a:	0402                	c.slli64	s0
    117c:	0301                	addi	t1,t1,0
    117e:	0900                	addi	s0,sp,144
    1180:	0008                	0x8
    1182:	0501                	addi	a0,a0,0
    1184:	0402000b          	0x402000b
    1188:	0301                	addi	t1,t1,0
    118a:	0900                	addi	s0,sp,144
    118c:	0008                	0x8
    118e:	0501                	addi	a0,a0,0
    1190:	0309                	addi	t1,t1,2
    1192:	0901                	addi	s2,s2,0
    1194:	0004                	0x4
    1196:	0501                	addi	a0,a0,0
    1198:	0305                	addi	t1,t1,1
    119a:	0900                	addi	s0,sp,144
    119c:	0008                	0x8
    119e:	0501                	addi	a0,a0,0
    11a0:	0014                	0x14
    11a2:	0402                	c.slli64	s0
    11a4:	0301                	addi	t1,t1,0
    11a6:	0900                	addi	s0,sp,144
    11a8:	0004                	0x4
    11aa:	0501                	addi	a0,a0,0
    11ac:	097f0303          	lb	t1,151(t5) # 1a097 <STACK_SIZE+0x19c97>
    11b0:	0008                	0x8
    11b2:	0501                	addi	a0,a0,0
    11b4:	030a                	slli	t1,t1,0x2
    11b6:	001c0903          	lb	s2,1(s8)
    11ba:	0501                	addi	a0,a0,0
    11bc:	030e                	slli	t1,t1,0x3
    11be:	0900                	addi	s0,sp,144
    11c0:	0008                	0x8
    11c2:	0501                	addi	a0,a0,0
    11c4:	0311                	addi	t1,t1,4
    11c6:	0900                	addi	s0,sp,144
    11c8:	0008                	0x8
    11ca:	0001                	nop
    11cc:	0402                	c.slli64	s0
    11ce:	0601                	addi	a2,a2,0
    11d0:	04090003          	lb	zero,64(s2)
    11d4:	0100                	addi	s0,sp,128
    11d6:	1505                	addi	a0,a0,-31
    11d8:	0200                	addi	s0,sp,256
    11da:	0104                	addi	s1,sp,128
    11dc:	0306                	slli	t1,t1,0x1
    11de:	0900                	addi	s0,sp,144
    11e0:	0004                	0x4
    11e2:	0501                	addi	a0,a0,0
    11e4:	0011                	c.nop	4
    11e6:	0402                	c.slli64	s0
    11e8:	0302                	c.slli64	t1
    11ea:	0900                	addi	s0,sp,144
    11ec:	0004                	0x4
    11ee:	0501                	addi	a0,a0,0
    11f0:	0315                	addi	t1,t1,5
    11f2:	0900                	addi	s0,sp,144
    11f4:	0004                	0x4
    11f6:	0501                	addi	a0,a0,0
    11f8:	0301                	addi	t1,t1,0
    11fa:	0901                	addi	s2,s2,0
    11fc:	0004                	0x4
    11fe:	0501                	addi	a0,a0,0
    1200:	09020337          	lui	t1,0x9020
    1204:	0010                	0x10
    1206:	0501                	addi	a0,a0,0
    1208:	030a                	slli	t1,t1,0x2
    120a:	0901                	addi	s2,s2,0
    120c:	0018                	0x18
    120e:	0501                	addi	a0,a0,0
    1210:	09010303          	lb	t1,144(sp)
    1214:	0008                	0x8
    1216:	0501                	addi	a0,a0,0
    1218:	0012                	c.slli	zero,0x4
    121a:	0402                	c.slli64	s0
    121c:	0301                	addi	t1,t1,0
    121e:	0900                	addi	s0,sp,144
    1220:	0008                	0x8
    1222:	0501                	addi	a0,a0,0
    1224:	0008                	0x8
    1226:	0402                	c.slli64	s0
    1228:	0301                	addi	t1,t1,0
    122a:	0901                	addi	s2,s2,0
    122c:	0008                	0x8
    122e:	0501                	addi	a0,a0,0
    1230:	000d                	c.nop	3
    1232:	0402                	c.slli64	s0
    1234:	0301                	addi	t1,t1,0
    1236:	0900                	addi	s0,sp,144
    1238:	0008                	0x8
    123a:	0501                	addi	a0,a0,0
    123c:	0402000b          	0x402000b
    1240:	0301                	addi	t1,t1,0
    1242:	0900                	addi	s0,sp,144
    1244:	0008                	0x8
    1246:	0501                	addi	a0,a0,0
    1248:	0309                	addi	t1,t1,2
    124a:	0901                	addi	s2,s2,0
    124c:	0004                	0x4
    124e:	0501                	addi	a0,a0,0
    1250:	0305                	addi	t1,t1,1
    1252:	0900                	addi	s0,sp,144
    1254:	0008                	0x8
    1256:	0501                	addi	a0,a0,0
    1258:	000c                	0xc
    125a:	0402                	c.slli64	s0
    125c:	0302                	c.slli64	t1
    125e:	0900                	addi	s0,sp,144
    1260:	0004                	0x4
    1262:	0501                	addi	a0,a0,0
    1264:	001c                	0x1c
    1266:	0402                	c.slli64	s0
    1268:	09000303          	lb	t1,144(zero) # 90 <STACK_SIZE-0x370>
    126c:	000c                	0xc
    126e:	0501                	addi	a0,a0,0
    1270:	097f0303          	lb	t1,151(t5)
    1274:	0008                	0x8
    1276:	0501                	addi	a0,a0,0
    1278:	030a                	slli	t1,t1,0x2
    127a:	00280903          	lb	s2,2(a6)
    127e:	0501                	addi	a0,a0,0
    1280:	030e                	slli	t1,t1,0x3
    1282:	0900                	addi	s0,sp,144
    1284:	0008                	0x8
    1286:	0501                	addi	a0,a0,0
    1288:	0311                	addi	t1,t1,4
    128a:	0900                	addi	s0,sp,144
    128c:	0008                	0x8
    128e:	0001                	nop
    1290:	0402                	c.slli64	s0
    1292:	0601                	addi	a2,a2,0
    1294:	04090003          	lb	zero,64(s2)
    1298:	0100                	addi	s0,sp,128
    129a:	1505                	addi	a0,a0,-31
    129c:	0200                	addi	s0,sp,256
    129e:	0104                	addi	s1,sp,128
    12a0:	0306                	slli	t1,t1,0x1
    12a2:	0900                	addi	s0,sp,144
    12a4:	0004                	0x4
    12a6:	0501                	addi	a0,a0,0
    12a8:	0011                	c.nop	4
    12aa:	0402                	c.slli64	s0
    12ac:	0302                	c.slli64	t1
    12ae:	0900                	addi	s0,sp,144
    12b0:	0004                	0x4
    12b2:	0501                	addi	a0,a0,0
    12b4:	0315                	addi	t1,t1,5
    12b6:	0900                	addi	s0,sp,144
    12b8:	0004                	0x4
    12ba:	0501                	addi	a0,a0,0
    12bc:	0301                	addi	t1,t1,0
    12be:	0901                	addi	s2,s2,0
    12c0:	0004                	0x4
    12c2:	0501                	addi	a0,a0,0
    12c4:	0328                	addi	a0,sp,392
    12c6:	0902                	c.slli64	s2
    12c8:	0010                	0x10
    12ca:	0501                	addi	a0,a0,0
    12cc:	030d                	addi	t1,t1,3
    12ce:	0901                	addi	s2,s2,0
    12d0:	001c                	0x1c
    12d2:	0501                	addi	a0,a0,0
    12d4:	0019                	c.nop	6
    12d6:	0402                	c.slli64	s0
    12d8:	09000303          	lb	t1,144(zero) # 90 <STACK_SIZE-0x370>
    12dc:	0008                	0x8
    12de:	0501                	addi	a0,a0,0
    12e0:	0022                	c.slli	zero,0x8
    12e2:	0402                	c.slli64	s0
    12e4:	09000303          	lb	t1,144(zero) # 90 <STACK_SIZE-0x370>
    12e8:	0010                	0x10
    12ea:	0501                	addi	a0,a0,0
    12ec:	0402002b          	0x402002b
    12f0:	0302                	c.slli64	t1
    12f2:	0900                	addi	s0,sp,144
    12f4:	0008                	0x8
    12f6:	0501                	addi	a0,a0,0
    12f8:	04020003          	lb	zero,64(tp) # 40 <STACK_SIZE-0x3c0>
    12fc:	0302                	c.slli64	t1
    12fe:	0900                	addi	s0,sp,144
    1300:	0010                	0x10
    1302:	0501                	addi	a0,a0,0
    1304:	030a                	slli	t1,t1,0x2
    1306:	0901                	addi	s2,s2,0
    1308:	0010                	0x10
    130a:	0501                	addi	a0,a0,0
    130c:	0301                	addi	t1,t1,0
    130e:	0901                	addi	s2,s2,0
    1310:	0004                	0x4
    1312:	0501                	addi	a0,a0,0
    1314:	0335                	addi	t1,t1,13
    1316:	0902                	c.slli64	s2
    1318:	0010                	0x10
    131a:	0501                	addi	a0,a0,0
    131c:	0902030f          	0x902030f
    1320:	0018                	0x18
    1322:	0501                	addi	a0,a0,0
    1324:	0309                	addi	t1,t1,2
    1326:	0901                	addi	s2,s2,0
    1328:	0008                	0x8
    132a:	0501                	addi	a0,a0,0
    132c:	0308                	addi	a0,sp,384
    132e:	0901                	addi	s2,s2,0
    1330:	0008                	0x8
    1332:	0501                	addi	a0,a0,0
    1334:	0900030f          	0x900030f
    1338:	0014                	0x14
    133a:	0501                	addi	a0,a0,0
    133c:	0016                	c.slli	zero,0x5
    133e:	0402                	c.slli64	s0
    1340:	09000303          	lb	t1,144(zero) # 90 <STACK_SIZE-0x370>
    1344:	0014                	0x14
    1346:	0501                	addi	a0,a0,0
    1348:	0034                	addi	a3,sp,8
    134a:	0402                	c.slli64	s0
    134c:	0302                	c.slli64	t1
    134e:	0900                	addi	s0,sp,144
    1350:	000c                	0xc
    1352:	0501                	addi	a0,a0,0
    1354:	04020033          	0x4020033
    1358:	0302                	c.slli64	t1
    135a:	0900                	addi	s0,sp,144
    135c:	0008                	0x8
    135e:	0501                	addi	a0,a0,0
    1360:	04020003          	lb	zero,64(tp) # 40 <STACK_SIZE-0x3c0>
    1364:	0302                	c.slli64	t1
    1366:	0900                	addi	s0,sp,144
    1368:	0008                	0x8
    136a:	0501                	addi	a0,a0,0
    136c:	030a                	slli	t1,t1,0x2
    136e:	0901                	addi	s2,s2,0
    1370:	001c                	0x1c
    1372:	0501                	addi	a0,a0,0
    1374:	0301                	addi	t1,t1,0
    1376:	0901                	addi	s2,s2,0
    1378:	0004                	0x4
    137a:	0501                	addi	a0,a0,0
    137c:	09020333          	0x9020333
    1380:	0010                	0x10
    1382:	0501                	addi	a0,a0,0
    1384:	0901030f          	0x901030f
    1388:	0018                	0x18
    138a:	0501                	addi	a0,a0,0
    138c:	0309                	addi	t1,t1,2
    138e:	0901                	addi	s2,s2,0
    1390:	0008                	0x8
    1392:	0001                	nop
    1394:	0402                	c.slli64	s0
    1396:	0302                	c.slli64	t1
    1398:	0901                	addi	s2,s2,0
    139a:	0008                	0x8
    139c:	0501                	addi	a0,a0,0
    139e:	0016                	c.slli	zero,0x5
    13a0:	0402                	c.slli64	s0
    13a2:	0302                	c.slli64	t1
    13a4:	0900                	addi	s0,sp,144
    13a6:	0010                	0x10
    13a8:	0501                	addi	a0,a0,0
    13aa:	0024                	addi	s1,sp,8
    13ac:	0402                	c.slli64	s0
    13ae:	0301                	addi	t1,t1,0
    13b0:	0900                	addi	s0,sp,144
    13b2:	0008                	0x8
    13b4:	0501                	addi	a0,a0,0
    13b6:	04020023          	sb	zero,64(tp) # 40 <STACK_SIZE-0x3c0>
    13ba:	0301                	addi	t1,t1,0
    13bc:	0900                	addi	s0,sp,144
    13be:	0008                	0x8
    13c0:	0501                	addi	a0,a0,0
    13c2:	04020003          	lb	zero,64(tp) # 40 <STACK_SIZE-0x3c0>
    13c6:	0301                	addi	t1,t1,0
    13c8:	0900                	addi	s0,sp,144
    13ca:	0008                	0x8
    13cc:	0501                	addi	a0,a0,0
    13ce:	030a                	slli	t1,t1,0x2
    13d0:	0901                	addi	s2,s2,0
    13d2:	001c                	0x1c
    13d4:	0501                	addi	a0,a0,0
    13d6:	0301                	addi	t1,t1,0
    13d8:	0901                	addi	s2,s2,0
    13da:	0004                	0x4
    13dc:	0501                	addi	a0,a0,0
    13de:	0336                	slli	t1,t1,0xd
    13e0:	0902                	c.slli64	s2
    13e2:	0010                	0x10
    13e4:	0501                	addi	a0,a0,0
    13e6:	030a                	slli	t1,t1,0x2
    13e8:	0901                	addi	s2,s2,0
    13ea:	0018                	0x18
    13ec:	0501                	addi	a0,a0,0
    13ee:	0318                	addi	a4,sp,384
    13f0:	0901                	addi	s2,s2,0
    13f2:	0008                	0x8
    13f4:	0501                	addi	a0,a0,0
    13f6:	0335                	addi	t1,t1,13
    13f8:	0900                	addi	s0,sp,144
    13fa:	0008                	0x8
    13fc:	0501                	addi	a0,a0,0
    13fe:	09010303          	lb	t1,144(sp)
    1402:	0008                	0x8
    1404:	0501                	addi	a0,a0,0
    1406:	0012                	c.slli	zero,0x4
    1408:	0402                	c.slli64	s0
    140a:	0301                	addi	t1,t1,0
    140c:	0900                	addi	s0,sp,144
    140e:	0008                	0x8
    1410:	0501                	addi	a0,a0,0
    1412:	0008                	0x8
    1414:	0402                	c.slli64	s0
    1416:	0301                	addi	t1,t1,0
    1418:	0901                	addi	s2,s2,0
    141a:	0008                	0x8
    141c:	0501                	addi	a0,a0,0
    141e:	000c                	0xc
    1420:	0402                	c.slli64	s0
    1422:	0301                	addi	t1,t1,0
    1424:	0900                	addi	s0,sp,144
    1426:	0008                	0x8
    1428:	0501                	addi	a0,a0,0
    142a:	000a                	c.slli	zero,0x2
    142c:	0402                	c.slli64	s0
    142e:	0301                	addi	t1,t1,0
    1430:	0900                	addi	s0,sp,144
    1432:	0008                	0x8
    1434:	0501                	addi	a0,a0,0
    1436:	0309                	addi	t1,t1,2
    1438:	0901                	addi	s2,s2,0
    143a:	0004                	0x4
    143c:	0501                	addi	a0,a0,0
    143e:	0305                	addi	t1,t1,1
    1440:	0900                	addi	s0,sp,144
    1442:	0008                	0x8
    1444:	0501                	addi	a0,a0,0
    1446:	0402000b          	0x402000b
    144a:	0302                	c.slli64	t1
    144c:	0900                	addi	s0,sp,144
    144e:	0004                	0x4
    1450:	0501                	addi	a0,a0,0
    1452:	0402001b          	addiw	zero,tp,64
    1456:	09000303          	lb	t1,144(zero) # 90 <STACK_SIZE-0x370>
    145a:	000c                	0xc
    145c:	0501                	addi	a0,a0,0
    145e:	097f0303          	lb	t1,151(t5)
    1462:	0008                	0x8
    1464:	0501                	addi	a0,a0,0
    1466:	030a                	slli	t1,t1,0x2
    1468:	00280903          	lb	s2,2(a6)
    146c:	0501                	addi	a0,a0,0
    146e:	030d                	addi	t1,t1,3
    1470:	0900                	addi	s0,sp,144
    1472:	0008                	0x8
    1474:	0501                	addi	a0,a0,0
    1476:	0900030f          	0x900030f
    147a:	0008                	0x8
    147c:	0001                	nop
    147e:	0402                	c.slli64	s0
    1480:	0601                	addi	a2,a2,0
    1482:	04090003          	lb	zero,64(s2)
    1486:	0100                	addi	s0,sp,128
    1488:	1305                	addi	t1,t1,-31
    148a:	0200                	addi	s0,sp,256
    148c:	0104                	addi	s1,sp,128
    148e:	0306                	slli	t1,t1,0x1
    1490:	0900                	addi	s0,sp,144
    1492:	0004                	0x4
    1494:	0501                	addi	a0,a0,0
    1496:	0402000f          	0x402000f
    149a:	0302                	c.slli64	t1
    149c:	0900                	addi	s0,sp,144
    149e:	0004                	0x4
    14a0:	0501                	addi	a0,a0,0
    14a2:	09000313          	li	t1,144
    14a6:	0004                	0x4
    14a8:	0501                	addi	a0,a0,0
    14aa:	0301                	addi	t1,t1,0
    14ac:	0901                	addi	s2,s2,0
    14ae:	0004                	0x4
    14b0:	0901                	addi	s2,s2,0
    14b2:	0010                	0x10
    14b4:	0100                	addi	s0,sp,128
    14b6:	01              	Address 0x00000000000014b6 is out of bounds.


Disassembly of section .debug_info:

0000000000000000 <.debug_info>:
       0:	002a                	c.slli	zero,0xa
       2:	0000                	unimp
       4:	0002                	c.slli64	zero
       6:	0000                	unimp
       8:	0000                	unimp
       a:	0108                	addi	a0,sp,128
       c:	0000                	unimp
       e:	0000                	unimp
      10:	0000                	unimp
      12:	8000                	0x8000
      14:	0000                	unimp
      16:	0000                	unimp
      18:	0028                	addi	a0,sp,8
      1a:	8000                	0x8000
	...
      24:	0008                	0x8
      26:	0000                	unimp
      28:	0022                	c.slli	zero,0x8
      2a:	0000                	unimp
      2c:	8001                	c.srli64	s0
      2e:	1ef0                	addi	a2,sp,892
      30:	0000                	unimp
      32:	0004                	0x4
      34:	0014                	0x14
      36:	0000                	unimp
      38:	0108                	addi	a0,sp,128
      3a:	0fa8                	addi	a0,sp,984
      3c:	0000                	unimp
      3e:	8204                	0x8204
      40:	0008                	0x8
      42:	0800                	addi	s0,sp,16
	...
      50:	0000                	unimp
      52:	6c00                	ld	s0,24(s0)
      54:	0000                	unimp
      56:	0200                	addi	s0,sp,256
      58:	0959                	addi	s2,s2,22
      5a:	0000                	unimp
      5c:	0105                	addi	sp,sp,1
      5e:	0000350f          	0x350f
      62:	0300                	addi	s0,sp,384
      64:	0208                	addi	a0,sp,256
      66:	000010ef          	jal	ra,1066 <STACK_SIZE+0xc66>
      6a:	0205                	addi	tp,tp,1
      6c:	4819                	li	a6,6
      6e:	0000                	unimp
      70:	0400                	addi	s0,sp,512
      72:	00000037          	lui	zero,0x0
      76:	0805                	addi	a6,a6,1
      78:	0011a707          	flw	fa4,1(gp)
      7c:	0500                	addi	s0,sp,640
      7e:	0704                	addi	s1,sp,896
      80:	11ac                	addi	a1,sp,232
      82:	0000                	unimp
      84:	0e02                	c.slli64	t3
      86:	000a                	c.slli	zero,0x2
      88:	0500                	addi	s0,sp,640
      8a:	1804                	addi	s1,sp,48
      8c:	0062                	c.slli	zero,0x18
      8e:	0000                	unimp
      90:	0105                	addi	sp,sp,1
      92:	b708                	fsd	fa0,40(a4)
      94:	0012                	c.slli	zero,0x4
      96:	0600                	addi	s0,sp,768
      98:	0062                	c.slli	zero,0x18
      9a:	0000                	unimp
      9c:	69050407          	0x69050407
      a0:	746e                	ld	s0,248(sp)
      a2:	0400                	addi	s0,sp,512
      a4:	006e                	c.slli	zero,0x1b
      a6:	0000                	unimp
      a8:	0805                	addi	a6,a6,1
      aa:	0605                	addi	a2,a2,1
      ac:	0400000b          	0x400000b
      b0:	007a                	c.slli	zero,0x1e
      b2:	0000                	unimp
      b4:	8402                	jr	s0
      b6:	0006                	c.slli	zero,0x1
      b8:	0600                	addi	s0,sp,768
      ba:	17d1                	addi	a5,a5,-12
      bc:	0048                	addi	a0,sp,4
      be:	0000                	unimp
      c0:	0805                	addi	a6,a6,1
      c2:	0105                	addi	sp,sp,1
      c4:	0500000b          	0x500000b
      c8:	0410                	addi	a2,sp,512
      ca:	0e72                	slli	t3,t3,0x1c
      cc:	0000                	unimp
      ce:	2408                	fld	fa0,8(s0)
      d0:	05000013          	li	zero,80
      d4:	0601                	addi	a2,a2,0
      d6:	12b9                	addi	t0,t0,-18
      d8:	0000                	unimp
      da:	0205                	addi	tp,tp,1
      dc:	3a05                	addiw	s4,s4,-31
      de:	0010                	0x10
      e0:	0500                	addi	s0,sp,640
      e2:	0702                	c.slli64	a4
      e4:	1455                	addi	s0,s0,-11
      e6:	0000                	unimp
      e8:	6309                	lui	t1,0x2
      ea:	01007273          	csrrci	tp,0x10,0
      ee:	0b11                	addi	s6,s6,4
      f0:	02a6                	slli	t0,t0,0x9
      f2:	0000                	unimp
      f4:	6d09                	lui	s10,0x2
      f6:	6569                	lui	a0,0x1a
      f8:	0100                	addi	s0,sp,128
      fa:	012a0f13          	addi	t5,s4,18 # ffffffffffffa012 <_ZL7out_buf+0xffffffff7fff5dea>
      fe:	0000                	unimp
     100:	a80a                	fsd	ft2,16(sp)
     102:	0009                	c.nop	2
     104:	0700                	addi	s0,sp,896
     106:	4f04                	lw	s1,24(a4)
     108:	0000                	unimp
     10a:	0100                	addi	s0,sp,128
     10c:	0e15                	addi	t3,t3,5
     10e:	000d300b          	0xd300b
     112:	0000                	unimp
     114:	00095f0b          	0x95f0b
     118:	0100                	addi	s0,sp,128
     11a:	0003730b          	0x3730b
     11e:	0200                	addi	s0,sp,256
     120:	00014b0b          	0x14b0b
     124:	0300                	addi	s0,sp,384
     126:	0016330b          	0x16330b
     12a:	0400                	addi	s0,sp,512
     12c:	00120d0b          	0x120d0b
     130:	0500                	addi	s0,sp,640
     132:	000d350b          	0xd350b
     136:	0600                	addi	s0,sp,768
     138:	000a090b          	0xa090b
     13c:	0700                	addi	s0,sp,896
     13e:	00003a0b          	0x3a0b
     142:	0800                	addi	s0,sp,16
     144:	00133e0b          	0x133e0b
     148:	0900                	addi	s0,sp,144
     14a:	000e4d0b          	0xe4d0b
     14e:	0a00                	addi	s0,sp,272
     150:	000b260b          	0xb260b
     154:	0b00                	addi	s0,sp,400
     156:	0000                	unimp
     158:	6d09                	lui	s10,0x2
     15a:	7069                	c.lui	zero,0xffffa
     15c:	0100                	addi	s0,sp,128
     15e:	018e0f1b          	addiw	t5,t3,24
     162:	0000                	unimp
     164:	a80a                	fsd	ft2,16(sp)
     166:	0009                	c.nop	2
     168:	0700                	addi	s0,sp,896
     16a:	4f04                	lw	s1,24(a4)
     16c:	0000                	unimp
     16e:	0100                	addi	s0,sp,128
     170:	0e1d                	addi	t3,t3,7
     172:	000d3a0b          	0xd3a0b
     176:	0000                	unimp
     178:	00098a0b          	0x98a0b
     17c:	0100                	addi	s0,sp,128
     17e:	0003b40b          	0x3b40b
     182:	0200                	addi	s0,sp,256
     184:	0001590b          	0x1590b
     188:	0300                	addi	s0,sp,384
     18a:	0016380b          	0x16380b
     18e:	0400                	addi	s0,sp,512
     190:	0012650b          	0x12650b
     194:	0500                	addi	s0,sp,640
     196:	000d3f0b          	0xd3f0b
     19a:	0600                	addi	s0,sp,768
     19c:	000a560b          	0xa560b
     1a0:	0700                	addi	s0,sp,896
     1a2:	0000860b          	0x860b
     1a6:	0800                	addi	s0,sp,16
     1a8:	00134d0b          	0x134d0b
     1ac:	0900                	addi	s0,sp,144
     1ae:	000ec80b          	0xec80b
     1b2:	0a00                	addi	s0,sp,272
     1b4:	000b540b          	0xb540b
     1b8:	0b00                	addi	s0,sp,400
     1ba:	0000                	unimp
     1bc:	520c                	lw	a1,32(a2)
     1be:	0000                	unimp
     1c0:	0100                	addi	s0,sp,128
     1c2:	0f24                	addi	s1,sp,920
     1c4:	00000237          	lui	tp,0x0
     1c8:	d30d                	beqz	a4,ea <STACK_SIZE-0x316>
     1ca:	0001                	nop
     1cc:	0700                	addi	s0,sp,896
     1ce:	4f04                	lw	s1,24(a4)
     1d0:	0000                	unimp
     1d2:	0100                	addi	s0,sp,128
     1d4:	0e25                	addi	t3,t3,9
     1d6:	01f5                	addi	gp,gp,29
     1d8:	0000                	unimp
     1da:	750e                	ld	a0,224(sp)
     1dc:	00006973          	csrrsi	s2,ustatus,0
     1e0:	730e                	ld	t1,224(sp)
     1e2:	01006973          	csrrsi	s2,0x10,0
     1e6:	680e                	ld	a6,192(sp)
     1e8:	02006973          	csrrsi	s2,0x20,0
     1ec:	6d0e                	ld	s10,192(sp)
     1ee:	03006973          	csrrsi	s2,0x30,0
     1f2:	750e                	ld	a0,224(sp)
     1f4:	6974                	ld	a3,208(a0)
     1f6:	0400                	addi	s0,sp,512
     1f8:	730e                	ld	t1,224(sp)
     1fa:	6974                	ld	a3,208(a0)
     1fc:	0500                	addi	s0,sp,640
     1fe:	680e                	ld	a6,192(sp)
     200:	6974                	ld	a3,208(a0)
     202:	0600                	addi	s0,sp,768
     204:	6d0e                	ld	s10,192(sp)
     206:	6974                	ld	a3,208(a0)
     208:	0700                	addi	s0,sp,896
     20a:	750e                	ld	a0,224(sp)
     20c:	6965                	lui	s2,0x19
     20e:	0800                	addi	s0,sp,16
     210:	730e                	ld	t1,224(sp)
     212:	6965                	lui	s2,0x19
     214:	0900                	addi	s0,sp,144
     216:	680e                	ld	a6,192(sp)
     218:	6965                	lui	s2,0x19
     21a:	0a00                	addi	s0,sp,272
     21c:	6d0e                	ld	s10,192(sp)
     21e:	6965                	lui	s2,0x19
     220:	0b00                	addi	s0,sp,400
     222:	0d00                	addi	s0,sp,656
     224:	03b9                	addi	t2,t2,14
     226:	0000                	unimp
     228:	004f0407          	0x4f0407
     22c:	0000                	unimp
     22e:	2a01                	sext.w	s4,s4
     230:	200e                	fld	ft0,192(sp)
     232:	0002                	c.slli64	zero
     234:	0b00                	addi	s0,sp,400
     236:	1170                	addi	a2,sp,172
     238:	0000                	unimp
     23a:	114e0b03          	lb	s6,276(t3) # 1a114 <STACK_SIZE+0x19d14>
     23e:	0000                	unimp
     240:	136a0b07          	0x136a0b07
     244:	0000                	unimp
     246:	0b08                	addi	a0,sp,400
     248:	10e8                	addi	a0,sp,108
     24a:	0000                	unimp
     24c:	0009                	c.nop	2
     24e:	000b1a0f          	0xb1a0f
     252:	0100                	addi	s0,sp,128
     254:	1830                	addi	a2,sp,56
     256:	000009af          	0x9af
     25a:	00000b5b          	0xb5b
     25e:	3710                	fld	fa2,40(a4)
     260:	0000                	unimp
     262:	0000                	unimp
     264:	0c00                	addi	s0,sp,528
     266:	0479                	addi	s0,s0,30
     268:	0000                	unimp
     26a:	3201                	addiw	tp,tp,-32
     26c:	0002950f          	0x2950f
     270:	0a00                	addi	s0,sp,272
     272:	09a8                	addi	a0,sp,216
     274:	0000                	unimp
     276:	004f0407          	0x4f0407
     27a:	0000                	unimp
     27c:	3301                	addiw	t1,t1,-32
     27e:	0e0e                	slli	t3,t3,0x3
     280:	6975                	lui	s2,0x1d
     282:	0065                	c.nop	25
     284:	0e00                	addi	s0,sp,784
     286:	00656973          	csrrsi	s2,0x6,10
     28a:	0e01                	addi	t3,t3,0
     28c:	6968                	ld	a0,208(a0)
     28e:	0065                	c.nop	25
     290:	0e02                	c.slli64	t3
     292:	696d                	lui	s2,0x1b
     294:	0065                	c.nop	25
     296:	083c0b03          	lb	s6,131(s8)
     29a:	0000                	unimp
     29c:	0b04                	addi	s1,sp,400
     29e:	04ca                	slli	s1,s1,0x12
     2a0:	0000                	unimp
     2a2:	0b05                	addi	s6,s6,1
     2a4:	1660                	addi	s0,sp,812
     2a6:	0000                	unimp
     2a8:	0b06                	slli	s6,s6,0x1
     2aa:	00001343          	fmadd.s	ft6,ft0,ft0,ft0,rtz
     2ae:	70730e07          	0x70730e07
     2b2:	0070                	addi	a2,sp,12
     2b4:	0e08                	addi	a0,sp,784
     2b6:	706d                	c.lui	zero,0xffffb
     2b8:	0070                	addi	a2,sp,12
     2ba:	75730e0b          	0x75730e0b
     2be:	006d                	c.nop	27
     2c0:	0012                	c.slli	zero,0x4
     2c2:	1100                	addi	s0,sp,160
     2c4:	0ed6                	slli	t4,t4,0x15
     2c6:	0000                	unimp
     2c8:	4201                	li	tp,0
     2ca:	4a10                	lw	a2,16(a2)
     2cc:	0002                	c.slli64	zero
     2ce:	6e00                	ld	s0,24(a2)
     2d0:	0000                	unimp
     2d2:	0000                	unimp
     2d4:	7309                	lui	t1,0xfffe2
     2d6:	6962                	ld	s2,24(sp)
     2d8:	0700                	addi	s0,sp,896
     2da:	02da0b03          	lb	s6,45(s4)
     2de:	0000                	unimp
     2e0:	350a                	fld	fa0,160(sp)
     2e2:	0002                	c.slli64	zero
     2e4:	0700                	addi	s0,sp,896
     2e6:	4f04                	lw	s1,24(a4)
     2e8:	0000                	unimp
     2ea:	0700                	addi	s0,sp,896
     2ec:	0a05                	addi	s4,s4,1
     2ee:	0008370b          	0x8370b
     2f2:	0000                	unimp
     2f4:	000ed60b          	0xed60b
     2f8:	0100                	addi	s0,sp,128
     2fa:	0010950b          	0x10950b
     2fe:	0200                	addi	s0,sp,256
     300:	0006050b          	0x6050b
     304:	0300                	addi	s0,sp,384
     306:	0000                	unimp
     308:	0b0c                	addi	a1,sp,400
     30a:	0002                	c.slli64	zero
     30c:	0200                	addi	s0,sp,256
     30e:	055a0b13          	addi	s6,s4,85
     312:	0000                	unimp
     314:	390c                	fld	fa1,48(a0)
     316:	0014                	0x14
     318:	0200                	addi	s0,sp,256
     31a:	0f14                	addi	a3,sp,912
     31c:	0416                	slli	s0,s0,0x5
     31e:	0000                	unimp
     320:	6912                	ld	s2,256(sp)
     322:	7172                	ld	sp,312(sp)
     324:	0200                	addi	s0,sp,256
     326:	1816                	slli	a6,a6,0x25
     328:	0075                	c.nop	29
     32a:	0000                	unimp
     32c:	130a                	slli	t1,t1,0x22
     32e:	04d9                	addi	s1,s1,22
     330:	0000                	unimp
     332:	1702                	slli	a4,a4,0x20
     334:	8118                	0x8118
     336:	0000                	unimp
     338:	0000                	unimp
     33a:	0000                	unimp
     33c:	0d10                	addi	a2,sp,656
     33e:	033e                	slli	t1,t1,0xf
     340:	0000                	unimp
     342:	004f0407          	0x4f0407
     346:	0000                	unimp
     348:	1802                	slli	a6,a6,0x20
     34a:	6a0e                	ld	s4,192(sp)
     34c:	0e000003          	lb	zero,224(zero) # e0 <STACK_SIZE-0x320>
     350:	4852                	lw	a6,20(sp)
     352:	0052                	c.slli	zero,0x14
     354:	0e00                	addi	s0,sp,784
     356:	4854                	lw	a3,20(s0)
     358:	0052                	c.slli	zero,0x14
     35a:	0e00                	addi	s0,sp,784
     35c:	4c44                	lw	s1,28(s0)
     35e:	004c                	addi	a1,sp,4
     360:	0e00                	addi	s0,sp,784
     362:	4549                	li	a0,18
     364:	0052                	c.slli	zero,0x14
     366:	0e01                	addi	t3,t3,0
     368:	4c44                	lw	s1,28(s0)
     36a:	004d                	c.nop	19
     36c:	0e01                	addi	t3,t3,0
     36e:	4346                	lw	t1,80(sp)
     370:	0052                	c.slli	zero,0x14
     372:	0e02                	c.slli64	t3
     374:	5349                	li	t1,-14
     376:	0052                	c.slli	zero,0x14
     378:	0e02                	c.slli64	t3
     37a:	434c                	lw	a1,4(a4)
     37c:	0052                	c.slli	zero,0x14
     37e:	434d0e03          	lb	t3,1076(s10) # 2434 <STACK_SIZE+0x2034>
     382:	0052                	c.slli	zero,0x14
     384:	0e04                	addi	s1,sp,784
     386:	534c                	lw	a1,36(a4)
     388:	0052                	c.slli	zero,0x14
     38a:	0e05                	addi	t3,t3,1
     38c:	534d                	li	t1,-13
     38e:	0052                	c.slli	zero,0x14
     390:	0e06                	slli	t3,t3,0x1
     392:	00525053          	fadd.s	ft0,ft4,ft5,unknown
     396:	6c140007          	0x6c140007
     39a:	01007273          	csrrci	tp,0x10,0
     39e:	2702                	fld	fa4,0(sp)
     3a0:	b810                	fsd	fa2,48(s0)
     3a2:	15000003          	lb	zero,336(zero) # 150 <STACK_SIZE-0x2b0>
     3a6:	0a02                	c.slli64	s4
     3a8:	0000                	unimp
     3aa:	2902                	fld	fs2,0(sp)
     3ac:	5615                	li	a2,-27
     3ae:	0000                	unimp
     3b0:	0100                	addi	s0,sp,128
     3b2:	0701                	addi	a4,a4,0
     3b4:	1500                	addi	s0,sp,672
     3b6:	000011bf 56152a02 	0x56152a02000011bf
     3be:	0000                	unimp
     3c0:	0100                	addi	s0,sp,128
     3c2:	0304                	addi	s1,sp,384
     3c4:	1500                	addi	s0,sp,672
     3c6:	0801                	addi	a6,a6,0
     3c8:	0000                	unimp
     3ca:	2b02                	fld	fs6,0(sp)
     3cc:	5615                	li	a2,-27
     3ce:	0000                	unimp
     3d0:	0100                	addi	s0,sp,128
     3d2:	0201                	addi	tp,tp,0
     3d4:	1500                	addi	s0,sp,672
     3d6:	0bbc                	addi	a5,sp,472
     3d8:	0000                	unimp
     3da:	2c02                	fld	fs8,0(sp)
     3dc:	5615                	li	a2,-27
     3de:	0000                	unimp
     3e0:	0100                	addi	s0,sp,128
     3e2:	0002                	c.slli64	zero
     3e4:	0000                	unimp
     3e6:	6a06                	ld	s4,64(sp)
     3e8:	0c000003          	lb	zero,192(zero) # c0 <STACK_SIZE-0x340>
     3ec:	1318                	addi	a4,sp,416
     3ee:	0000                	unimp
     3f0:	3902                	fld	fs2,32(sp)
     3f2:	0003e013          	ori	zero,t2,0
     3f6:	0f00                	addi	s0,sp,912
     3f8:	0614                	addi	a3,sp,768
     3fa:	0000                	unimp
     3fc:	3b02                	fld	fs6,32(sp)
     3fe:	aa19                	j	514 <STACK_SIZE+0x114>
     400:	5b000013          	li	zero,1456
     404:	1000000b          	0x1000000b
     408:	05b1                	addi	a1,a1,12
     40a:	0000                	unimp
     40c:	0000                	unimp
     40e:	1b0c                	addi	a1,sp,432
     410:	02000013          	li	zero,32
     414:	132e                	slli	t1,t1,0x2b
     416:	000003ff          	radd16	t2,zero,zero
     41a:	1416                	slli	s0,s0,0x25
     41c:	0006                	c.slli	zero,0x1
     41e:	0200                	addi	s0,sp,256
     420:	1930                	addi	a2,sp,184
     422:	077e                	slli	a4,a4,0x1f
     424:	0000                	unimp
     426:	b110                	fsd	fa2,32(a0)
     428:	0005                	c.nop	1
     42a:	0000                	unimp
     42c:	1700                	addi	s0,sp,928
     42e:	6572                	ld	a0,280(sp)
     430:	26020067          	jr	608(tp) # 0 <STACK_SIZE-0x400>
     434:	db1a                	sw	t1,180(sp)
     436:	000e                	c.slli	zero,0x3
     438:	3700                	fld	fs0,40(a4)
     43a:	0000                	unimp
     43c:	1000                	addi	s0,sp,32
     43e:	0000030f          	0x30f
     442:	0000                	unimp
     444:	350c                	fld	fa1,40(a0)
     446:	0000                	unimp
     448:	0200                	addi	s0,sp,256
     44a:	04cd0f47          	0x4cd0f47
     44e:	0000                	unimp
     450:	0004d913          	srli	s2,s1,0x0
     454:	0200                	addi	s0,sp,256
     456:	1849                	addi	a6,a6,-14
     458:	0081                	addi	ra,ra,0
     45a:	0000                	unimp
     45c:	0000                	unimp
     45e:	0c00                	addi	s0,sp,528
     460:	0010df13          	srli	t5,ra,0x1
     464:	0200                	addi	s0,sp,256
     466:	0d4a                	slli	s10,s10,0x12
     468:	0081                	addi	ra,ra,0
     46a:	0000                	unimp
     46c:	0000                	unimp
     46e:	0c00                	addi	s0,sp,528
     470:	0007f913          	andi	s2,a5,0
     474:	0200                	addi	s0,sp,256
     476:	00810d4b          	fnmsub.s	fs10,ft2,fs0,ft0,rne
     47a:	0000                	unimp
     47c:	1000                	addi	s0,sp,32
     47e:	0c00                	addi	s0,sp,528
     480:	0005ed13          	ori	s10,a1,0
     484:	0200                	addi	s0,sp,256
     486:	0d4c                	addi	a1,sp,660
     488:	0081                	addi	ra,ra,0
     48a:	0000                	unimp
     48c:	2000                	fld	fs0,0(s0)
     48e:	0c00                	addi	s0,sp,528
     490:	0013eb13          	ori	s6,t2,1
     494:	0200                	addi	s0,sp,256
     496:	0d4d                	addi	s10,s10,19
     498:	0081                	addi	ra,ra,0
     49a:	0000                	unimp
     49c:	0000                	unimp
     49e:	0c20                	addi	s0,sp,536
     4a0:	0004e913          	ori	s2,s1,0
     4a4:	0200                	addi	s0,sp,256
     4a6:	0d4e                	slli	s10,s10,0x13
     4a8:	0081                	addi	ra,ra,0
     4aa:	0000                	unimp
     4ac:	0004                	0x4
     4ae:	0c20                	addi	s0,sp,536
     4b0:	f118                	sd	a4,32(a0)
     4b2:	02000007          	0x2000007
     4b6:	1a52                	slli	s4,s4,0x34
     4b8:	0c48                	addi	a0,sp,532
     4ba:	0000                	unimp
     4bc:	00000037          	lui	zero,0x0
     4c0:	049c                	addi	a5,sp,576
     4c2:	0000                	unimp
     4c4:	6e10                	ld	a2,24(a2)
     4c6:	0000                	unimp
     4c8:	0000                	unimp
     4ca:	0a18                	addi	a4,sp,272
     4cc:	0014                	0x14
     4ce:	0200                	addi	s0,sp,256
     4d0:	1a51                	addi	s4,s4,-12
     4d2:	1186                	slli	gp,gp,0x21
     4d4:	0000                	unimp
     4d6:	00000037          	lui	zero,0x0
     4da:	04b6                	slli	s1,s1,0xd
     4dc:	0000                	unimp
     4de:	6e10                	ld	a2,24(a2)
     4e0:	0000                	unimp
     4e2:	0000                	unimp
     4e4:	000c3f0f          	0xc3f0f
     4e8:	0200                	addi	s0,sp,256
     4ea:	1a50                	addi	a2,sp,308
     4ec:	1288                	addi	a0,sp,352
     4ee:	0000                	unimp
     4f0:	00000037          	lui	zero,0x0
     4f4:	6e10                	ld	a2,24(a2)
     4f6:	0000                	unimp
     4f8:	0000                	unimp
     4fa:	0c00                	addi	s0,sp,528
     4fc:	1114                	addi	a3,sp,160
     4fe:	0000                	unimp
     500:	5402                	lw	s0,32(sp)
     502:	0005200f          	0x5200f
     506:	1300                	addi	s0,sp,416
     508:	04d9                	addi	s1,s1,22
     50a:	0000                	unimp
     50c:	5602                	lw	a2,32(sp)
     50e:	8118                	0x8118
     510:	0000                	unimp
     512:	0000                	unimp
     514:	0000                	unimp
     516:	1302                	slli	t1,t1,0x20
     518:	1180                	addi	s0,sp,224
     51a:	0000                	unimp
     51c:	5702                	lw	a4,32(sp)
     51e:	810d                	srli	a0,a0,0x3
     520:	0000                	unimp
     522:	f800                	sd	s0,48(s0)
     524:	130200bf 00000150 	0x150130200bf
     52c:	5802                	lw	a6,32(sp)
     52e:	810d                	srli	a0,a0,0x3
     530:	0000                	unimp
     532:	0000                	unimp
     534:	0040                	addi	s0,sp,4
     536:	0f02                	c.slli64	t5
     538:	00000b0f          	0xb0f
     53c:	5a02                	lw	s4,32(sp)
     53e:	be1a                	fsd	ft6,312(sp)
     540:	0010                	0x10
     542:	3700                	fld	fs0,40(a4)
     544:	0000                	unimp
     546:	1000                	addi	s0,sp,32
     548:	006e                	c.slli	zero,0x1b
     54a:	0000                	unimp
     54c:	0000                	unimp
     54e:	7219                	lui	tp,0xfffe6
     550:	6d61                	lui	s10,0x18
     552:	0200                	addi	s0,sp,256
     554:	0f5d                	addi	t5,t5,23
     556:	00114813          	xori	a6,sp,1
     55a:	0200                	addi	s0,sp,256
     55c:	185f 0081 0000      	0x81185f
     562:	0000                	unimp
     564:	8000                	0x8000
     566:	000ed113          	srli	sp,t4,0x0
     56a:	0200                	addi	s0,sp,256
     56c:	0d60                	addi	s0,sp,668
     56e:	0081                	addi	ra,ra,0
     570:	0000                	unimp
     572:	0000                	unimp
     574:	0800                	addi	s0,sp,16
     576:	651a                	ld	a0,384(sp)
     578:	646e                	ld	s0,216(sp)
     57a:	0200                	addi	s0,sp,256
     57c:	0d61                	addi	s10,s10,24
     57e:	0081                	addi	ra,ra,0
     580:	0000                	unimp
     582:	0000                	unimp
     584:	8800                	0x8800
     586:	0000                	unimp
     588:	0002f21b          	0x2f21b
     58c:	1b00                	addi	s0,sp,432
     58e:	000002ff          	radd16	t0,zero,zero
     592:	0004221b          	0x4221b
     596:	1b00                	addi	s0,sp,432
     598:	0432                	slli	s0,s0,0xc
     59a:	0000                	unimp
     59c:	0004421b          	0x4421b
     5a0:	1b00                	addi	s0,sp,432
     5a2:	0452                	slli	s0,s0,0x14
     5a4:	0000                	unimp
     5a6:	0004621b          	0x4621b
     5aa:	1b00                	addi	s0,sp,432
     5ac:	0472                	slli	s0,s0,0x1c
     5ae:	0000                	unimp
     5b0:	0004d91b          	srliw	s2,s1,0x0
     5b4:	1b00                	addi	s0,sp,432
     5b6:	04e9                	addi	s1,s1,26
     5b8:	0000                	unimp
     5ba:	0004f91b          	0x4f91b
     5be:	1b00                	addi	s0,sp,432
     5c0:	0528                	addi	a0,sp,648
     5c2:	0000                	unimp
     5c4:	0005381b          	0x5381b
     5c8:	1b00                	addi	s0,sp,432
     5ca:	0548                	addi	a0,sp,644
     5cc:	0000                	unimp
     5ce:	ab1c                	fsd	fa5,16(a4)
     5d0:	0005                	c.nop	1
     5d2:	1000                	addi	s0,sp,32
     5d4:	000005ab          	0x5ab
     5d8:	1d00                	addi	s0,sp,688
     5da:	b808                	fsd	fa0,48(s0)
     5dc:	0005                	c.nop	1
     5de:	0500                	addi	s0,sp,640
     5e0:	0801                	addi	a6,a6,0
     5e2:	12c0                	addi	s0,sp,356
     5e4:	0000                	unimp
     5e6:	b104                	fsd	fs1,32(a0)
     5e8:	0005                	c.nop	1
     5ea:	1e00                	addi	s0,sp,816
     5ec:	0b62                	slli	s6,s6,0x18
     5ee:	0000                	unimp
     5f0:	1c0a                	slli	s8,s8,0x22
     5f2:	0005c90f          	0x5c90f
     5f6:	1d00                	addi	s0,sp,688
     5f8:	a008                	fsd	fa0,0(s0)
     5fa:	0005                	c.nop	1
     5fc:	0c00                	addi	s0,sp,528
     5fe:	028e                	slli	t0,t0,0x3
     600:	0000                	unimp
     602:	450b0803          	lb	a6,1104(s6)
     606:	1f00000b          	0x1f00000b
     60a:	15d6                	slli	a1,a1,0x35
     60c:	0000                	unimp
     60e:	0390                	addi	a2,sp,448
     610:	06d7081b          	addiw	a6,a4,109
     614:	0000                	unimp
     616:	5820                	lw	s0,112(s0)
     618:	0006                	c.slli	zero,0x1
     61a:	0300                	addi	s0,sp,384
     61c:	041d                	addi	s0,s0,7
     61e:	0b45                	addi	s6,s6,17
     620:	0000                	unimp
     622:	2000                	fld	fs0,0(s0)
     624:	0206                	slli	tp,tp,0x1
     626:	0000                	unimp
     628:	86091e03          	lh	t3,-1952(s2) # 1a860 <STACK_SIZE+0x1a460>
     62c:	0000                	unimp
     62e:	8000                	0x8000
     630:	4a20                	lw	s0,80(a2)
     632:	0006                	c.slli	zero,0x1
     634:	0300                	addi	s0,sp,384
     636:	0e1e                	slli	t3,t3,0x7
     638:	0086                	slli	ra,ra,0x1
     63a:	0000                	unimp
     63c:	2188                	fld	fa0,0(a1)
     63e:	01de                	slli	gp,gp,0x17
     640:	0000                	unimp
     642:	c5161f03          	lh	t5,-943(a2)
     646:	0012                	c.slli	zero,0x4
     648:	8600                	0x8600
     64a:	0000                	unimp
     64c:	2700                	fld	fs0,8(a4)
     64e:	0006                	c.slli	zero,0x1
     650:	3200                	fld	fs0,32(a2)
     652:	0006                	c.slli	zero,0x1
     654:	2200                	fld	fs0,0(a2)
     656:	0b55                	addi	s6,s6,21
     658:	0000                	unimp
     65a:	8610                	0x8610
     65c:	0000                	unimp
     65e:	0000                	unimp
     660:	74757023          	0x74757023
     664:	0300                	addi	s0,sp,384
     666:	0e20                	addi	s0,sp,792
     668:	0459                	addi	s0,s0,22
     66a:	0000                	unimp
     66c:	0646                	slli	a2,a2,0x11
     66e:	0000                	unimp
     670:	0651                	addi	a2,a2,20
     672:	0000                	unimp
     674:	5522                	lw	a0,40(sp)
     676:	1000000b          	0x1000000b
     67a:	05b1                	addi	a1,a1,12
     67c:	0000                	unimp
     67e:	2300                	fld	fs0,0(a4)
     680:	6f70                	ld	a2,216(a4)
     682:	0070                	addi	a2,sp,12
     684:	530e2403          	lw	s0,1328(t3)
     688:	65000003          	lb	zero,1616(zero) # 650 <STACK_SIZE+0x250>
     68c:	0006                	c.slli	zero,0x1
     68e:	6b00                	ld	s0,16(a4)
     690:	0006                	c.slli	zero,0x1
     692:	2200                	fld	fs0,0(a2)
     694:	0b55                	addi	s6,s6,21
     696:	0000                	unimp
     698:	2400                	fld	fs0,8(s0)
     69a:	00746567          	0x746567
     69e:	930b2703          	lw	a4,-1744(s6)
     6a2:	0002                	c.slli64	zero
     6a4:	b100                	fsd	fs0,32(a0)
     6a6:	0005                	c.nop	1
     6a8:	8300                	0x8300
     6aa:	0006                	c.slli	zero,0x1
     6ac:	8900                	0x8900
     6ae:	0006                	c.slli	zero,0x1
     6b0:	2200                	fld	fs0,0(a2)
     6b2:	0b55                	addi	s6,s6,21
     6b4:	0000                	unimp
     6b6:	2100                	fld	fs0,0(a0)
     6b8:	11b9                	addi	gp,gp,-18
     6ba:	0000                	unimp
     6bc:	0c0e2a03          	lw	s4,192(t3)
     6c0:	000e                	c.slli	zero,0x3
     6c2:	5b00                	lw	s0,48(a4)
     6c4:	a100000b          	0xa100000b
     6c8:	0006                	c.slli	zero,0x1
     6ca:	a700                	fsd	fs0,8(a4)
     6cc:	0006                	c.slli	zero,0x1
     6ce:	2200                	fld	fs0,0(a2)
     6d0:	0b55                	addi	s6,s6,21
     6d2:	0000                	unimp
     6d4:	2100                	fld	fs0,0(a0)
     6d6:	004d                	c.nop	19
     6d8:	0000                	unimp
     6da:	410f2d03          	lw	s10,1040(t5)
     6de:	0008                	0x8
     6e0:	5b00                	lw	s0,48(a4)
     6e2:	bf00000b          	0xbf00000b
     6e6:	0006                	c.slli	zero,0x1
     6e8:	c500                	sw	s0,8(a0)
     6ea:	0006                	c.slli	zero,0x1
     6ec:	2200                	fld	fs0,0(a2)
     6ee:	0b55                	addi	s6,s6,21
     6f0:	0000                	unimp
     6f2:	2500                	fld	fs0,8(a0)
     6f4:	0054                	addi	a3,sp,4
     6f6:	05b1                	addi	a1,a1,12
     6f8:	0000                	unimp
     6fa:	cd26                	sw	s1,152(sp)
     6fc:	000e                	c.slli	zero,0x3
     6fe:	4800                	lw	s0,16(s0)
     700:	0000                	unimp
     702:	8000                	0x8000
     704:	1f00                	addi	s0,sp,944
     706:	0000101b          	slliw	zero,zero,0x0
     70a:	0310                	addi	a2,sp,384
     70c:	083c                	addi	a5,sp,24
     70e:	0996                	slli	s3,s3,0x5
     710:	0000                	unimp
     712:	2402                	fld	fs0,0(sp)
     714:	0016                	c.slli	zero,0x5
     716:	0300                	addi	s0,sp,384
     718:	183d                	addi	a6,a6,-17
     71a:	13ca                	slli	t2,t2,0x32
     71c:	0000                	unimp
     71e:	0620                	addi	s0,sp,776
     720:	0002                	c.slli64	zero
     722:	0300                	addi	s0,sp,384
     724:	0d3e                	slli	s10,s10,0xf
     726:	06e4                	addi	s1,sp,844
     728:	0000                	unimp
     72a:	2000                	fld	fs0,0(s0)
     72c:	064a                	slli	a2,a2,0x12
     72e:	0000                	unimp
     730:	e40d3f03          	ld	t5,-448(s10) # 17e40 <STACK_SIZE+0x17a40>
     734:	0006                	c.slli	zero,0x1
     736:	0800                	addi	s0,sp,16
     738:	00178427          	0x178427
     73c:	0300                	addi	s0,sp,384
     73e:	0a40                	addi	s0,sp,276
     740:	0d44                	addi	s1,sp,660
     742:	0000                	unimp
     744:	071e                	slli	a4,a4,0x7
     746:	0000                	unimp
     748:	0724                	addi	s1,sp,904
     74a:	0000                	unimp
     74c:	d022                	sw	s0,32(sp)
     74e:	00000013          	nop
     752:	7628                	ld	a0,104(a2)
     754:	0002                	c.slli64	zero
     756:	0300                	addi	s0,sp,384
     758:	1641                	addi	a2,a2,-16
     75a:	1589                	addi	a1,a1,-30
     75c:	0000                	unimp
     75e:	0000073f 0006e410 	0x6e4100000073f
     766:	1000                	addi	s0,sp,32
     768:	06e4                	addi	s1,sp,844
     76a:	0000                	unimp
     76c:	2800                	fld	fs0,16(s0)
     76e:	09da                	slli	s3,s3,0x16
     770:	0000                	unimp
     772:	85164503          	lbu	a0,-1967(a2)
     776:	0001                	nop
     778:	5a00                	lw	s0,48(a2)
     77a:	10000007          	0x10000007
     77e:	06e4                	addi	s1,sp,844
     780:	0000                	unimp
     782:	e410                	sd	a2,8(s0)
     784:	0006                	c.slli	zero,0x1
     786:	0000                	unimp
     788:	0005b127          	fsd	ft0,2(a1)
     78c:	0300                	addi	s0,sp,384
     78e:	0f49                	addi	t5,t5,18
     790:	07aa                	slli	a5,a5,0xa
     792:	0000                	unimp
     794:	076e                	slli	a4,a4,0x1b
     796:	0000                	unimp
     798:	0779                	addi	a4,a4,30
     79a:	0000                	unimp
     79c:	d022                	sw	s0,32(sp)
     79e:	10000013          	li	zero,256
     7a2:	06e4                	addi	s1,sp,844
     7a4:	0000                	unimp
     7a6:	2700                	fld	fs0,8(a4)
     7a8:	05b1                	addi	a1,a1,12
     7aa:	0000                	unimp
     7ac:	710f4f03          	lbu	t5,1808(t5)
     7b0:	8d000013          	li	zero,-1840
     7b4:	98000007          	0x98000007
     7b8:	22000007          	0x22000007
     7bc:	13d0                	addi	a2,sp,484
     7be:	0000                	unimp
     7c0:	d610                	sw	a2,40(a2)
     7c2:	00000013          	nop
     7c6:	00030927          	0x30927
     7ca:	0300                	addi	s0,sp,384
     7cc:	146e0f53          	0x146e0f53
     7d0:	0000                	unimp
     7d2:	07ac                	addi	a1,sp,968
     7d4:	0000                	unimp
     7d6:	000007b7          	lui	a5,0x0
     7da:	d022                	sw	s0,32(sp)
     7dc:	10000013          	li	zero,256
     7e0:	06e4                	addi	s1,sp,844
     7e2:	0000                	unimp
     7e4:	2700                	fld	fs0,8(a4)
     7e6:	0309                	addi	t1,t1,2
     7e8:	0000                	unimp
     7ea:	ca0f5903          	lhu	s2,-864(t5)
     7ee:	0000                	unimp
     7f0:	cb00                	sw	s0,16(a4)
     7f2:	d6000007          	0xd6000007
     7f6:	22000007          	0x22000007
     7fa:	13d0                	addi	a2,sp,484
     7fc:	0000                	unimp
     7fe:	d610                	sw	a2,40(a2)
     800:	00000013          	nop
     804:	5e21                	li	t3,-24
     806:	0001                	nop
     808:	0300                	addi	s0,sp,384
     80a:	0c5d                	addi	s8,s8,23
     80c:	00000b6f          	jal	s6,80c <STACK_SIZE+0x40c>
     810:	000013bf 000007ee 	0x7ee000013bf
     818:	07f4                	addi	a3,sp,972
     81a:	0000                	unimp
     81c:	d022                	sw	s0,32(sp)
     81e:	00000013          	nop
     822:	0529                	addi	a0,a0,10
     824:	0001                	nop
     826:	1000                	addi	s0,sp,32
     828:	06096403          	lwu	s0,96(s2)
     82c:	0009                	c.nop	2
     82e:	2a00                	fld	fs0,16(a2)
     830:	7470                	ld	a2,232(s0)
     832:	0072                	c.slli	zero,0x1c
     834:	e40f6503          	lwu	a0,-448(t5)
     838:	0006                	c.slli	zero,0x1
     83a:	0000                	unimp
     83c:	2e20                	fld	fs0,88(a2)
     83e:	0000                	unimp
     840:	0300                	addi	s0,sp,384
     842:	1766                	slli	a4,a4,0x39
     844:	13d0                	addi	a2,sp,484
     846:	0000                	unimp
     848:	2b08                	fld	fa0,16(a4)
     84a:	0105                	addi	sp,sp,1
     84c:	0000                	unimp
     84e:	42076803          	lwu	a6,1056(a4) # b420 <STACK_SIZE+0xb020>
     852:	0100000f          	fence	w,unknown
     856:	0830                	addi	a2,sp,24
     858:	0000                	unimp
     85a:	0840                	addi	s0,sp,20
     85c:	0000                	unimp
     85e:	f322                	sd	s0,416(sp)
     860:	10000013          	li	zero,256
     864:	06e4                	addi	s1,sp,844
     866:	0000                	unimp
     868:	d010                	sw	a2,32(s0)
     86a:	00000013          	nop
     86e:	0c2c                	addi	a1,sp,536
     870:	000c                	0xc
     872:	0300                	addi	s0,sp,384
     874:	0a69                	addi	s4,s4,26
     876:	0cce                	slli	s9,s9,0x13
     878:	0000                	unimp
     87a:	13f9                	addi	t2,t2,-2
     87c:	0000                	unimp
     87e:	5901                	li	s2,-32
     880:	0008                	0x8
     882:	5f00                	lw	s0,56(a4)
     884:	0008                	0x8
     886:	2200                	fld	fs0,0(a2)
     888:	000013ff          	kaddw	t2,zero,zero
     88c:	2c00                	fld	fs0,24(s0)
     88e:	0bb1                	addi	s7,s7,12
     890:	0000                	unimp
     892:	910a6c03          	lwu	s8,-1776(s4)
     896:	000e                	c.slli	zero,0x3
     898:	0500                	addi	s0,sp,640
     89a:	0014                	0x14
     89c:	0100                	addi	s0,sp,128
     89e:	0878                	addi	a4,sp,28
     8a0:	0000                	unimp
     8a2:	087e                	slli	a6,a6,0x1f
     8a4:	0000                	unimp
     8a6:	ff22                	sd	s0,440(sp)
     8a8:	00000013          	nop
     8ac:	712c                	ld	a1,96(a0)
     8ae:	0008                	0x8
     8b0:	0300                	addi	s0,sp,384
     8b2:	010e116f          	jal	sp,e18c2 <STACK_SIZE+0xe14c2>
     8b6:	0000                	unimp
     8b8:	0000140b          	0x140b
     8bc:	9701                	srai	a4,a4,0x20
     8be:	0008                	0x8
     8c0:	9d00                	0x9d00
     8c2:	0008                	0x8
     8c4:	2200                	fld	fs0,0(a2)
     8c6:	000013f3          	csrrw	t2,ustatus,zero
     8ca:	2c00                	fld	fs0,24(s0)
     8cc:	0871                	addi	a6,a6,28
     8ce:	0000                	unimp
     8d0:	94107603          	0x94107603
     8d4:	0000                	unimp
     8d6:	f400                	sd	s0,40(s0)
     8d8:	01000007          	0x1000007
     8dc:	08b6                	slli	a7,a7,0xd
     8de:	0000                	unimp
     8e0:	08c1                	addi	a7,a7,16
     8e2:	0000                	unimp
     8e4:	f322                	sd	s0,416(sp)
     8e6:	10000013          	li	zero,256
     8ea:	006e                	c.slli	zero,0x1b
     8ec:	0000                	unimp
     8ee:	2c00                	fld	fs0,24(s0)
     8f0:	12f0                	addi	a2,sp,364
     8f2:	0000                	unimp
     8f4:	920c8803          	lb	a6,-1760(s9)
     8f8:	0008                	0x8
     8fa:	5b00                	lw	s0,48(a4)
     8fc:	0100000b          	0x100000b
     900:	08da                	slli	a7,a7,0x16
     902:	0000                	unimp
     904:	08e5                	addi	a7,a7,25
     906:	0000                	unimp
     908:	ff22                	sd	s0,440(sp)
     90a:	10000013          	li	zero,256
     90e:	1411                	addi	s0,s0,-28
     910:	0000                	unimp
     912:	2d00                	fld	fs0,24(a0)
     914:	0000068b          	0x68b
     918:	780c8b03          	lb	s6,1920(s9)
     91c:	0016                	c.slli	zero,0x5
     91e:	5b00                	lw	s0,48(a4)
     920:	0100000b          	0x100000b
     924:	08fa                	slli	a7,a7,0x1e
     926:	0000                	unimp
     928:	ff22                	sd	s0,440(sp)
     92a:	10000013          	li	zero,256
     92e:	1411                	addi	s0,s0,-28
     930:	0000                	unimp
     932:	0000                	unimp
     934:	f404                	sd	s1,40(s0)
     936:	21000007          	0x21000007
     93a:	1468                	addi	a0,sp,556
     93c:	0000                	unimp
     93e:	190c9003          	lh	zero,400(s9)
     942:	0006                	c.slli	zero,0x1
     944:	f400                	sd	s0,40(s0)
     946:	23000007          	0x23000007
     94a:	0009                	c.nop	2
     94c:	2900                	fld	fs0,16(a0)
     94e:	0009                	c.nop	2
     950:	2200                	fld	fs0,0(a2)
     952:	13d0                	addi	a2,sp,484
     954:	0000                	unimp
     956:	2400                	fld	fs0,8(s0)
     958:	6e65                	lui	t3,0x19
     95a:	0064                	addi	s1,sp,12
     95c:	cc0c9303          	lh	t1,-832(s9)
     960:	000a                	c.slli	zero,0x2
     962:	f400                	sd	s0,40(s0)
     964:	41000007          	0x41000007
     968:	0009                	c.nop	2
     96a:	4700                	lw	s0,8(a4)
     96c:	0009                	c.nop	2
     96e:	2200                	fld	fs0,0(a2)
     970:	13d0                	addi	a2,sp,484
     972:	0000                	unimp
     974:	2100                	fld	fs0,0(a0)
     976:	11b9                	addi	gp,gp,-18
     978:	0000                	unimp
     97a:	250f9603          	lh	a2,592(t6) # fffffffffffe5250 <_ZL7out_buf+0xffffffff7ffe1028>
     97e:	000a                	c.slli	zero,0x2
     980:	5b00                	lw	s0,48(a4)
     982:	5f00000b          	0x5f00000b
     986:	0009                	c.nop	2
     988:	6500                	ld	s0,8(a0)
     98a:	0009                	c.nop	2
     98c:	2200                	fld	fs0,0(a2)
     98e:	13d0                	addi	a2,sp,484
     990:	0000                	unimp
     992:	2700                	fld	fs0,8(a4)
     994:	1010                	addi	a2,sp,32
     996:	0000                	unimp
     998:	e50f9903          	lh	s2,-432(t6)
     99c:	0008                	0x8
     99e:	7900                	ld	s0,48(a0)
     9a0:	0009                	c.nop	2
     9a2:	8400                	0x8400
     9a4:	0009                	c.nop	2
     9a6:	2200                	fld	fs0,0(a2)
     9a8:	13d0                	addi	a2,sp,484
     9aa:	0000                	unimp
     9ac:	dc10                	sw	a2,56(s0)
     9ae:	00000013          	nop
     9b2:	5425                	li	s0,-23
     9b4:	bf00                	fsd	fs0,56(a4)
     9b6:	2e000013          	li	zero,736
     9ba:	099f 0000 0b5b      	0xb5b0000099f
     9c0:	0000                	unimp
     9c2:	0001                	nop
     9c4:	0005bb2f          	amoadd.d	s6,zero,(a1)
     9c8:	3000                	fld	fs0,32(s0)
     9ca:	038c                	addi	a1,sp,448
     9cc:	0000                	unimp
     9ce:	0310                	addi	a2,sp,384
     9d0:	083c                	addi	a5,sp,24
     9d2:	2402                	fld	fs0,0(sp)
     9d4:	0016                	c.slli	zero,0x5
     9d6:	0300                	addi	s0,sp,384
     9d8:	183d                	addi	a6,a6,-17
     9da:	13ca                	slli	t2,t2,0x32
     9dc:	0000                	unimp
     9de:	0620                	addi	s0,sp,776
     9e0:	0002                	c.slli64	zero
     9e2:	0300                	addi	s0,sp,384
     9e4:	0d3e                	slli	s10,s10,0xf
     9e6:	09a4                	addi	s1,sp,216
     9e8:	0000                	unimp
     9ea:	2000                	fld	fs0,0(s0)
     9ec:	064a                	slli	a2,a2,0x12
     9ee:	0000                	unimp
     9f0:	a40d3f03          	ld	t5,-1472(s10)
     9f4:	0009                	c.nop	2
     9f6:	0800                	addi	s0,sp,16
     9f8:	00178427          	0x178427
     9fc:	0300                	addi	s0,sp,384
     9fe:	0a40                	addi	s0,sp,276
     a00:	0059                	c.nop	22
     a02:	0000                	unimp
     a04:	09de                	slli	s3,s3,0x17
     a06:	0000                	unimp
     a08:	09e4                	addi	s1,sp,220
     a0a:	0000                	unimp
     a0c:	ed22                	sd	s0,152(sp)
     a0e:	00000013          	nop
     a12:	7628                	ld	a0,104(a2)
     a14:	0002                	c.slli64	zero
     a16:	0300                	addi	s0,sp,384
     a18:	1641                	addi	a2,a2,-16
     a1a:	00000a7f          	radd16	s4,zero,zero
     a1e:	000009ff          	radd16	s3,zero,zero
     a22:	a410                	fsd	fa2,8(s0)
     a24:	0009                	c.nop	2
     a26:	1000                	addi	s0,sp,32
     a28:	09a4                	addi	s1,sp,216
     a2a:	0000                	unimp
     a2c:	2800                	fld	fs0,16(s0)
     a2e:	09da                	slli	s3,s3,0x16
     a30:	0000                	unimp
     a32:	e5164503          	lbu	a0,-431(a2)
     a36:	0006                	c.slli	zero,0x1
     a38:	1a00                	addi	s0,sp,304
     a3a:	000a                	c.slli	zero,0x2
     a3c:	1000                	addi	s0,sp,32
     a3e:	09a4                	addi	s1,sp,216
     a40:	0000                	unimp
     a42:	a410                	fsd	fa2,8(s0)
     a44:	0009                	c.nop	2
     a46:	0000                	unimp
     a48:	0005b127          	fsd	ft0,2(a1)
     a4c:	0300                	addi	s0,sp,384
     a4e:	0f49                	addi	t5,t5,18
     a50:	040d                	addi	s0,s0,3
     a52:	0000                	unimp
     a54:	0a2e                	slli	s4,s4,0xb
     a56:	0000                	unimp
     a58:	0a39                	addi	s4,s4,14
     a5a:	0000                	unimp
     a5c:	ed22                	sd	s0,152(sp)
     a5e:	10000013          	li	zero,256
     a62:	09a4                	addi	s1,sp,216
     a64:	0000                	unimp
     a66:	2700                	fld	fs0,8(a4)
     a68:	05b1                	addi	a1,a1,12
     a6a:	0000                	unimp
     a6c:	d00f4f03          	lbu	t5,-768(t5)
     a70:	0014                	0x14
     a72:	4d00                	lw	s0,24(a0)
     a74:	000a                	c.slli	zero,0x2
     a76:	5800                	lw	s0,48(s0)
     a78:	000a                	c.slli	zero,0x2
     a7a:	2200                	fld	fs0,0(a2)
     a7c:	13ed                	addi	t2,t2,-5
     a7e:	0000                	unimp
     a80:	d610                	sw	a2,40(a2)
     a82:	00000013          	nop
     a86:	00030927          	0x30927
     a8a:	0300                	addi	s0,sp,384
     a8c:	055e0f53          	0x55e0f53
     a90:	0000                	unimp
     a92:	0a6c                	addi	a1,sp,284
     a94:	0000                	unimp
     a96:	00000a77          	0xa77
     a9a:	ed22                	sd	s0,152(sp)
     a9c:	10000013          	li	zero,256
     aa0:	09a4                	addi	s1,sp,216
     aa2:	0000                	unimp
     aa4:	2700                	fld	fs0,8(a4)
     aa6:	0309                	addi	t1,t1,2
     aa8:	0000                	unimp
     aaa:	1e0f5903          	lhu	s2,480(t5)
     aae:	0009                	c.nop	2
     ab0:	8b00                	0x8b00
     ab2:	000a                	c.slli	zero,0x2
     ab4:	9600                	0x9600
     ab6:	000a                	c.slli	zero,0x2
     ab8:	2200                	fld	fs0,0(a2)
     aba:	13ed                	addi	t2,t2,-5
     abc:	0000                	unimp
     abe:	d610                	sw	a2,40(a2)
     ac0:	00000013          	nop
     ac4:	5e21                	li	t3,-24
     ac6:	0001                	nop
     ac8:	0300                	addi	s0,sp,384
     aca:	0c5d                	addi	s8,s8,23
     acc:	0bd1                	addi	s7,s7,20
     ace:	0000                	unimp
     ad0:	000013bf 00000aae 	0xaae000013bf
     ad8:	0ab4                	addi	a3,sp,344
     ada:	0000                	unimp
     adc:	ed22                	sd	s0,152(sp)
     ade:	00000013          	nop
     ae2:	0531                	addi	a0,a0,12
     ae4:	0001                	nop
     ae6:	2100                	fld	fs0,0(a0)
     ae8:	1468                	addi	a0,sp,556
     aea:	0000                	unimp
     aec:	640c9003          	lh	zero,1600(s9)
     af0:	000c                	0xc
     af2:	b400                	fsd	fs0,40(s0)
     af4:	000a                	c.slli	zero,0x2
     af6:	d100                	sw	s0,32(a0)
     af8:	000a                	c.slli	zero,0x2
     afa:	d700                	sw	s0,40(a4)
     afc:	000a                	c.slli	zero,0x2
     afe:	2200                	fld	fs0,0(a2)
     b00:	13ed                	addi	t2,t2,-5
     b02:	0000                	unimp
     b04:	2400                	fld	fs0,8(s0)
     b06:	6e65                	lui	t3,0x19
     b08:	0064                	addi	s1,sp,12
     b0a:	de0c9303          	lh	t1,-544(s9)
     b0e:	b4000003          	lb	zero,-1216(zero) # fffffffffffffb40 <_ZL7out_buf+0xffffffff7fffb918>
     b12:	000a                	c.slli	zero,0x2
     b14:	ef00                	sd	s0,24(a4)
     b16:	000a                	c.slli	zero,0x2
     b18:	f500                	sd	s0,40(a0)
     b1a:	000a                	c.slli	zero,0x2
     b1c:	2200                	fld	fs0,0(a2)
     b1e:	13ed                	addi	t2,t2,-5
     b20:	0000                	unimp
     b22:	2100                	fld	fs0,0(a0)
     b24:	11b9                	addi	gp,gp,-18
     b26:	0000                	unimp
     b28:	b20f9603          	lh	a2,-1248(t6)
     b2c:	000d                	c.nop	3
     b2e:	5b00                	lw	s0,48(a4)
     b30:	0d00000b          	0xd00000b
     b34:	1300000b          	0x1300000b
     b38:	2200000b          	0x2200000b
     b3c:	13ed                	addi	t2,t2,-5
     b3e:	0000                	unimp
     b40:	2700                	fld	fs0,8(a4)
     b42:	1010                	addi	a2,sp,32
     b44:	0000                	unimp
     b46:	950f9903          	lh	s2,-1712(t6)
     b4a:	000c                	0xc
     b4c:	2700                	fld	fs0,8(a4)
     b4e:	3200000b          	0x3200000b
     b52:	2200000b          	0x2200000b
     b56:	13ed                	addi	t2,t2,-5
     b58:	0000                	unimp
     b5a:	dc10                	sw	a2,56(s0)
     b5c:	00000013          	nop
     b60:	5425                	li	s0,-23
     b62:	bf00                	fsd	fs0,56(a4)
     b64:	26000013          	li	zero,608
     b68:	099f 0000 0b5b      	0xb5b0000099f
     b6e:	0000                	unimp
     b70:	0000                	unimp
     b72:	3200                	fld	fs0,32(a2)
     b74:	05b1                	addi	a1,a1,12
     b76:	0000                	unimp
     b78:	0b55                	addi	s6,s6,21
     b7a:	0000                	unimp
     b7c:	00004833          	xor	a6,zero,zero
     b80:	7f00                	ld	s0,56(a4)
     b82:	1d00                	addi	s0,sp,688
     b84:	db08                	sw	a0,48(a4)
     b86:	0005                	c.nop	1
     b88:	0500                	addi	s0,sp,640
     b8a:	0201                	addi	tp,tp,0
     b8c:	111a                	slli	sp,sp,0x26
     b8e:	0000                	unimp
     b90:	6234                	ld	a3,64(a2)
     b92:	6675                	lui	a2,0x1d
     b94:	0300                	addi	s0,sp,384
     b96:	05db1ca3          	sh	t4,89(s6)
     b9a:	0000                	unimp
     b9c:	0309                	addi	t1,t1,2
     b9e:	4010                	lw	a2,0(s0)
     ba0:	8000                	0x8000
     ba2:	0000                	unimp
     ba4:	0000                	unimp
     ba6:	4935                	li	s2,13
     ba8:	0301004f          	fnmadd.d	ft0,ft2,fa6,ft0,rne
     bac:	07a5                	addi	a5,a5,9
     bae:	0bc4                	addi	s1,sp,468
     bb0:	0000                	unimp
     bb2:	5936                	lw	s2,108(sp)
     bb4:	0300000b          	0x300000b
     bb8:	13d116a7          	0x13d116a7
     bbc:	0000                	unimp
     bbe:	9b01                	andi	a4,a4,-32
     bc0:	1000000b          	0x1000000b
     bc4:	000005ab          	0x5ab
     bc8:	3600                	fld	fs0,40(a2)
     bca:	115f 0000 aa03      	0xaa030000115f
     bd0:	c616                	sw	t0,12(sp)
     bd2:	0011                	c.nop	4
     bd4:	0100                	addi	s0,sp,128
     bd6:	0bb2                	slli	s7,s7,0xc
     bd8:	0000                	unimp
     bda:	ab10                	fsd	fa2,16(a4)
     bdc:	0005                	c.nop	1
     bde:	0000                	unimp
     be0:	0001de37          	lui	t3,0x1d
     be4:	0300                	addi	s0,sp,384
     be6:	037e16b3          	mulh	a3,t3,s7
     bea:	0000                	unimp
     bec:	05b1                	addi	a1,a1,12
     bee:	0000                	unimp
     bf0:	0001                	nop
     bf2:	7609                	lui	a2,0xfffe2
     bf4:	006d                	c.nop	27
     bf6:	0708                	addi	a0,sp,896
     bf8:	000f9f0b          	0xf9f0b
     bfc:	3800                	fld	fs0,48(s0)
     bfe:	0b45                	addi	s6,s6,17
     c00:	0000                	unimp
     c02:	0808                	addi	a0,sp,16
     c04:	0e140b17          	auipc	s6,0xe140
     c08:	0000                	unimp
     c0a:	441f 0001 0800      	0x8000001441f
     c10:	1808                	addi	a0,sp,48
     c12:	9a10                	0x9a10
     c14:	000c                	0xc
     c16:	3900                	fld	fs0,48(a0)
     c18:	0076                	c.slli	zero,0x1d
     c1a:	1a08                	addi	a0,sp,304
     c1c:	6e0d                	lui	t3,0x3
     c1e:	0000                	unimp
     c20:	0400                	addi	s0,sp,512
     c22:	1f01                	addi	t5,t5,-32
     c24:	3900                	fld	fs0,48(a0)
     c26:	0072                	c.slli	zero,0x1c
     c28:	1b08                	addi	a0,sp,432
     c2a:	6e0d                	lui	t3,0x3
     c2c:	0000                	unimp
     c2e:	0400                	addi	s0,sp,512
     c30:	1e01                	addi	t3,t3,-32
     c32:	3900                	fld	fs0,48(a0)
     c34:	1c080077          	0x1c080077
     c38:	6e0d                	lui	t3,0x3
     c3a:	0000                	unimp
     c3c:	0400                	addi	s0,sp,512
     c3e:	1d01                	addi	s10,s10,-32
     c40:	3900                	fld	fs0,48(a0)
     c42:	0078                	addi	a4,sp,12
     c44:	1d08                	addi	a0,sp,688
     c46:	6e0d                	lui	t3,0x3
     c48:	0000                	unimp
     c4a:	0400                	addi	s0,sp,512
     c4c:	1c01                	addi	s8,s8,-32
     c4e:	3900                	fld	fs0,48(a0)
     c50:	0075                	c.nop	29
     c52:	1e08                	addi	a0,sp,816
     c54:	6e0d                	lui	t3,0x3
     c56:	0000                	unimp
     c58:	0400                	addi	s0,sp,512
     c5a:	1b01                	addi	s6,s6,-32
     c5c:	3900                	fld	fs0,48(a0)
     c5e:	1f080067          	jr	496(a6)
     c62:	6e0d                	lui	t3,0x3
     c64:	0000                	unimp
     c66:	0400                	addi	s0,sp,512
     c68:	1a01                	addi	s4,s4,-32
     c6a:	3900                	fld	fs0,48(a0)
     c6c:	0061                	c.nop	24
     c6e:	2008                	fld	fa0,0(s0)
     c70:	6e0d                	lui	t3,0x3
     c72:	0000                	unimp
     c74:	0400                	addi	s0,sp,512
     c76:	1901                	addi	s2,s2,-32
     c78:	3900                	fld	fs0,48(a0)
     c7a:	0064                	addi	s1,sp,12
     c7c:	2108                	fld	fa0,0(a0)
     c7e:	6e0d                	lui	t3,0x3
     c80:	0000                	unimp
     c82:	0400                	addi	s0,sp,512
     c84:	1801                	addi	a6,a6,-32
     c86:	1500                	addi	s0,sp,672
     c88:	000005a7          	0x5a7
     c8c:	2208                	fld	fa0,0(a2)
     c8e:	3714                	fld	fa3,40(a4)
     c90:	0000                	unimp
     c92:	0800                	addi	s0,sp,16
     c94:	3602                	fld	fa2,32(sp)
     c96:	1500                	addi	s0,sp,672
     c98:	0000135b          	0x135b
     c9c:	2308                	fld	fa0,0(a4)
     c9e:	3714                	fld	fa3,40(a4)
     ca0:	0000                	unimp
     ca2:	0800                	addi	s0,sp,16
     ca4:	2d09                	addiw	s10,s10,2
     ca6:	1500                	addi	s0,sp,672
     ca8:	1360                	addi	s0,sp,428
     caa:	0000                	unimp
     cac:	2308                	fld	fa0,0(a4)
     cae:	0000371b          	0x371b
     cb2:	0800                	addi	s0,sp,16
     cb4:	2409                	addiw	s0,s0,2
     cb6:	1500                	addi	s0,sp,672
     cb8:	1365                	addi	t1,t1,-7
     cba:	0000                	unimp
     cbc:	2308                	fld	fa0,0(a4)
     cbe:	3722                	fld	fa4,40(sp)
     cc0:	0000                	unimp
     cc2:	0800                	addi	s0,sp,16
     cc4:	0a1a                	slli	s4,s4,0x6
     cc6:	0000                	unimp
     cc8:	5214                	lw	a3,32(a2)
     cca:	7761                	lui	a4,0xffff8
     ccc:	0800                	addi	s0,sp,16
     cce:	2508                	fld	fa0,8(a0)
     cd0:	d810                	sw	a2,48(s0)
     cd2:	000c                	0xc
     cd4:	1500                	addi	s0,sp,672
     cd6:	0808                	addi	a0,sp,16
     cd8:	0000                	unimp
     cda:	2608                	fld	fa0,8(a2)
     cdc:	3714                	fld	fa3,40(a4)
     cde:	0000                	unimp
     ce0:	0800                	addi	s0,sp,16
     ce2:	3808                	fld	fa0,48(s0)
     ce4:	1500                	addi	s0,sp,672
     ce6:	000005a7          	0x5a7
     cea:	2708                	fld	fa0,8(a4)
     cec:	3714                	fld	fa3,40(a4)
     cee:	0000                	unimp
     cf0:	0800                	addi	s0,sp,16
     cf2:	3602                	fld	fa2,32(sp)
     cf4:	3900                	fld	fs0,48(a0)
     cf6:	7070                	ld	a2,224(s0)
     cf8:	006e                	c.slli	zero,0x1b
     cfa:	2808                	fld	fa0,16(s0)
     cfc:	3714                	fld	fa3,40(a4)
     cfe:	0000                	unimp
     d00:	0800                	addi	s0,sp,16
     d02:	0a2c                	addi	a1,sp,280
     d04:	0000                	unimp
     d06:	cd0d                	beqz	a0,d40 <STACK_SIZE+0x940>
     d08:	0009                	c.nop	2
     d0a:	0700                	addi	s0,sp,896
     d0c:	4f04                	lw	s1,24(a4)
     d0e:	0000                	unimp
     d10:	0800                	addi	s0,sp,16
     d12:	0e2a                	slli	t3,t3,0xa
     d14:	00000d1b          	sext.w	s10,zero
     d18:	0010160b          	0x10160b
     d1c:	0000                	unimp
     d1e:	000efd0b          	0xefd0b
     d22:	0100                	addi	s0,sp,128
     d24:	0005590b          	0x5590b
     d28:	0200                	addi	s0,sp,256
     d2a:	00126a0b          	0x126a0b
     d2e:	0300                	addi	s0,sp,384
     d30:	0004540b          	0x4540b
     d34:	0400                	addi	s0,sp,512
     d36:	0002820b          	0x2820b
     d3a:	0500                	addi	s0,sp,640
     d3c:	000fa30b          	0xfa30b
     d40:	0600                	addi	s0,sp,768
     d42:	0008cd0b          	0x8cd0b
     d46:	0700                	addi	s0,sp,896
     d48:	3a00                	fld	fs0,48(a2)
     d4a:	09a8                	addi	a0,sp,216
     d4c:	0000                	unimp
     d4e:	2408                	fld	fa0,8(s0)
     d50:	dc0a                	sw	sp,56(sp)
     d52:	3b00000b          	0x3b00000b
     d56:	6172                	ld	sp,280(sp)
     d58:	29080077          	0x29080077
     d5c:	9a0a                	add	s4,s4,sp
     d5e:	000c                	0xc
     d60:	2100                	fld	fs0,0(a0)
     d62:	00000997          	auipc	s3,0x0
     d66:	3108                	fld	fa0,32(a0)
     d68:	0d15                	addi	s10,s10,5
     d6a:	0008                	0x8
     d6c:	5b00                	lw	s0,48(a4)
     d6e:	4b00000b          	0x4b00000b
     d72:	000d                	c.nop	3
     d74:	5100                	lw	s0,32(a0)
     d76:	000d                	c.nop	3
     d78:	2200                	fld	fs0,0(a2)
     d7a:	0f9f 0000 2700      	0x270000000f9f
     d80:	144c                	addi	a1,sp,548
     d82:	0000                	unimp
     d84:	3208                	fld	fa0,32(a2)
     d86:	7315                	lui	t1,0xfffe5
     d88:	0010                	0x10
     d8a:	6500                	ld	s0,8(a0)
     d8c:	000d                	c.nop	3
     d8e:	6b00                	ld	s0,16(a4)
     d90:	000d                	c.nop	3
     d92:	2200                	fld	fs0,0(a2)
     d94:	0f9f 0000 2700      	0x270000000f9f
     d9a:	000004cf          	fnmadd.s	fs1,ft0,ft0,ft0,rne
     d9e:	3308                	fld	fa0,32(a4)
     da0:	1615                	addi	a2,a2,-27
     da2:	0014                	0x14
     da4:	7f00                	ld	s0,56(a4)
     da6:	000d                	c.nop	3
     da8:	8500                	0x8500
     daa:	000d                	c.nop	3
     dac:	2200                	fld	fs0,0(a2)
     dae:	0f9f 0000 2100      	0x210000000f9f
     db4:	0768                	addi	a0,sp,908
     db6:	0000                	unimp
     db8:	3408                	fld	fa0,40(s0)
     dba:	1415                	addi	s0,s0,-27
     dbc:	0005                	c.nop	1
     dbe:	5b00                	lw	s0,48(a4)
     dc0:	9d00000b          	0x9d00000b
     dc4:	000d                	c.nop	3
     dc6:	a300                	fsd	fs0,0(a4)
     dc8:	000d                	c.nop	3
     dca:	2200                	fld	fs0,0(a2)
     dcc:	0f9f 0000 2100      	0x210000000f9f
     dd2:	0808                	addi	a0,sp,16
     dd4:	0000                	unimp
     dd6:	3508                	fld	fa0,40(a0)
     dd8:	00105517          	auipc	a0,0x105
     ddc:	1400                	addi	s0,sp,544
     dde:	000e                	c.slli	zero,0x3
     de0:	bb00                	fsd	fs0,48(a4)
     de2:	000d                	c.nop	3
     de4:	c100                	sw	s0,0(a0)
     de6:	000d                	c.nop	3
     de8:	2200                	fld	fs0,0(a2)
     dea:	0f9f 0000 2400      	0x240000000f9f
     df0:	7070                	ld	a2,224(s0)
     df2:	006e                	c.slli	zero,0x1b
     df4:	3608                	fld	fa0,40(a2)
     df6:	00016817          	auipc	a6,0x16
     dfa:	3700                	fld	fs0,40(a4)
     dfc:	0000                	unimp
     dfe:	d900                	sw	s0,48(a0)
     e00:	000d                	c.nop	3
     e02:	df00                	sw	s0,56(a4)
     e04:	000d                	c.nop	3
     e06:	2200                	fld	fs0,0(a2)
     e08:	0f9f 0000 2100      	0x210000000f9f
     e0e:	05d8                	addi	a4,sp,708
     e10:	0000                	unimp
     e12:	3708                	fld	fa0,40(a4)
     e14:	2e18                	fld	fa4,24(a2)
     e16:	000e                	c.slli	zero,0x3
     e18:	2000                	fld	fs0,0(s0)
     e1a:	000e                	c.slli	zero,0x3
     e1c:	f700                	sd	s0,40(a4)
     e1e:	000d                	c.nop	3
     e20:	fd00                	sd	s0,56(a0)
     e22:	000d                	c.nop	3
     e24:	2200                	fld	fs0,0(a2)
     e26:	0f9f 0000 3c00      	0x3c0000000f9f
     e2c:	1010                	addi	a2,sp,32
     e2e:	0000                	unimp
     e30:	3808                	fld	fa0,48(s0)
     e32:	6415                	lui	s0,0x5
     e34:	0009                	c.nop	2
     e36:	0d00                	addi	s0,sp,656
     e38:	000e                	c.slli	zero,0x3
     e3a:	2200                	fld	fs0,0(a2)
     e3c:	0f9f 0000 0000      	0xf9f
     e42:	5b02                	lw	s6,32(sp)
     e44:	000a                	c.slli	zero,0x2
     e46:	0800                	addi	s0,sp,16
     e48:	150d                	addi	a0,a0,-29
     e4a:	0056                	c.slli	zero,0x15
     e4c:	0000                	unimp
     e4e:	0402                	c.slli64	s0
     e50:	000e                	c.slli	zero,0x3
     e52:	0800                	addi	s0,sp,16
     e54:	0f9f1d0b          	0xf9f1d0b
     e58:	0000                	unimp
     e5a:	8b3d                	andi	a4,a4,15
     e5c:	0000                	unimp
     e5e:	0800                	addi	s0,sp,16
     e60:	163d                	addi	a2,a2,-17
     e62:	00000043          	fmadd.s	ft0,ft0,ft0,ft0,rne
     e66:	1000                	addi	s0,sp,32
     e68:	3b3d                	addiw	s6,s6,-17
     e6a:	0015                	c.nop	5
     e6c:	0800                	addi	s0,sp,16
     e6e:	093e                	slli	s2,s2,0xf
     e70:	00000043          	fmadd.s	ft0,ft0,ft0,ft0,rne
     e74:	0200                	addi	s0,sp,256
     e76:	603d                	c.lui	zero,0xf
     e78:	08000007          	0x8000007
     e7c:	0043163f 01ff0000 	0x1ff00000043163f
     e84:	2629                	addiw	a2,a2,10
     e86:	000d                	c.nop	3
     e88:	0800                	addi	s0,sp,16
     e8a:	4a08                	lw	a0,16(a2)
     e8c:	000f920b          	0xf920b
     e90:	2000                	fld	fs0,0(s0)
     e92:	0f9e                	slli	t6,t6,0x7
     e94:	0000                	unimp
     e96:	4c08                	lw	a0,24(s0)
     e98:	2011                	0x2011
     e9a:	000e                	c.slli	zero,0x3
     e9c:	0000                	unimp
     e9e:	bd21                	j	cb6 <STACK_SIZE+0x8b6>
     ea0:	0004                	0x4
     ea2:	0800                	addi	s0,sp,16
     ea4:	114d                	addi	sp,sp,-13
     ea6:	065d                	addi	a2,a2,23
     ea8:	0000                	unimp
     eaa:	0e20                	addi	s0,sp,792
     eac:	0000                	unimp
     eae:	0e88                	addi	a0,sp,848
     eb0:	0000                	unimp
     eb2:	0e8e                	slli	t4,t4,0x3
     eb4:	0000                	unimp
     eb6:	b422                	fsd	fs0,40(sp)
     eb8:	0000000f          	fence	unknown,unknown
     ebc:	000d262b          	0xd262b
     ec0:	0800                	addi	s0,sp,16
     ec2:	0c16104f          	0xc16104f
     ec6:	0000                	unimp
     ec8:	a301                	j	13c8 <STACK_SIZE+0xfc8>
     eca:	000e                	c.slli	zero,0x3
     ecc:	ae00                	fsd	fs0,24(a2)
     ece:	000e                	c.slli	zero,0x3
     ed0:	2200                	fld	fs0,0(a2)
     ed2:	0fb4                	addi	a3,sp,984
     ed4:	0000                	unimp
     ed6:	2010                	fld	fa2,0(s0)
     ed8:	000e                	c.slli	zero,0x3
     eda:	0000                	unimp
     edc:	362c                	fld	fa1,104(a2)
     ede:	08000013          	li	zero,128
     ee2:	1652                	slli	a2,a2,0x34
     ee4:	00000e57          	0xe57
     ee8:	0029                	c.nop	10
     eea:	0000                	unimp
     eec:	c701                	beqz	a4,ef4 <STACK_SIZE+0xaf4>
     eee:	000e                	c.slli	zero,0x3
     ef0:	cd00                	sw	s0,24(a0)
     ef2:	000e                	c.slli	zero,0x3
     ef4:	2200                	fld	fs0,0(a2)
     ef6:	0fb4                	addi	a3,sp,984
     ef8:	0000                	unimp
     efa:	2b00                	fld	fs0,16(a4)
     efc:	166a                	slli	a2,a2,0x3a
     efe:	0000                	unimp
     f00:	5308                	lw	a0,32(a4)
     f02:	4e0e                	lw	t3,192(sp)
     f04:	0015                	c.nop	5
     f06:	0100                	addi	s0,sp,128
     f08:	0ee2                	slli	t4,t4,0x18
     f0a:	0000                	unimp
     f0c:	0f06                	slli	t5,t5,0x1
     f0e:	0000                	unimp
     f10:	b422                	fsd	fs0,40(sp)
     f12:	1000000f          	0x1000000f
     f16:	0e20                	addi	s0,sp,792
     f18:	0000                	unimp
     f1a:	9210                	0x9210
     f1c:	1000000f          	0x1000000f
     f20:	0f92                	slli	t6,t6,0x4
     f22:	0000                	unimp
     f24:	3710                	fld	fa2,40(a4)
     f26:	0000                	unimp
     f28:	1000                	addi	s0,sp,32
     f2a:	0e14                	addi	a3,sp,784
     f2c:	0000                	unimp
     f2e:	6e10                	ld	a2,24(a2)
     f30:	0000                	unimp
     f32:	0000                	unimp
     f34:	00166a2b          	0x166a2b
     f38:	0800                	addi	s0,sp,16
     f3a:	1554                	addi	a3,sp,676
     f3c:	06c0                	addi	s0,sp,836
     f3e:	0000                	unimp
     f40:	1b01                	addi	s6,s6,-32
     f42:	3500000f          	0x3500000f
     f46:	2200000f          	0x2200000f
     f4a:	0fb4                	addi	a3,sp,984
     f4c:	0000                	unimp
     f4e:	9210                	0x9210
     f50:	1000000f          	0x1000000f
     f54:	0f92                	slli	t6,t6,0x4
     f56:	0000                	unimp
     f58:	3710                	fld	fa2,40(a4)
     f5a:	0000                	unimp
     f5c:	1000                	addi	s0,sp,32
     f5e:	0e14                	addi	a3,sp,784
     f60:	0000                	unimp
     f62:	2b00                	fld	fs0,16(a4)
     f64:	1010                	addi	a2,sp,32
     f66:	0000                	unimp
     f68:	5708                	lw	a0,40(a4)
     f6a:	bc0e                	fsd	ft3,56(sp)
     f6c:	0016                	c.slli	zero,0x5
     f6e:	0100                	addi	s0,sp,128
     f70:	0f4a                	slli	t5,t5,0x12
     f72:	0000                	unimp
     f74:	0f5f 0000 b422      	0xb42200000f5f
     f7a:	1000000f          	0x1000000f
     f7e:	0e20                	addi	s0,sp,792
     f80:	0000                	unimp
     f82:	3710                	fld	fa2,40(a4)
     f84:	0000                	unimp
     f86:	1000                	addi	s0,sp,32
     f88:	00000037          	lui	zero,0x0
     f8c:	2b00                	fld	fs0,16(a4)
     f8e:	1010                	addi	a2,sp,32
     f90:	0000                	unimp
     f92:	5808                	lw	a0,48(s0)
     f94:	b715                	j	eb8 <STACK_SIZE+0xab8>
     f96:	0014                	0x14
     f98:	0100                	addi	s0,sp,128
     f9a:	0f74                	addi	a3,sp,924
     f9c:	0000                	unimp
     f9e:	0f7a                	slli	t5,t5,0x1e
     fa0:	0000                	unimp
     fa2:	b422                	fsd	fs0,40(sp)
     fa4:	0000000f          	fence	unknown,unknown
     fa8:	333e                	fld	ft6,488(sp)
     faa:	08000007          	0x8000007
     fae:	175c                	addi	a5,sp,932
     fb0:	000012fb          	0x12fb
     fb4:	00000037          	lui	zero,0x0
     fb8:	1001                	c.nop	-32
     fba:	0fba                	slli	t6,t6,0xe
     fbc:	0000                	unimp
     fbe:	0000                	unimp
     fc0:	0302                	c.slli64	t1
     fc2:	0016                	c.slli	zero,0x5
     fc4:	0800                	addi	s0,sp,16
     fc6:	140c                	addi	a1,sp,544
     fc8:	00000037          	lui	zero,0x0
     fcc:	1d00                	addi	s0,sp,688
     fce:	cf08                	sw	a0,24(a4)
     fd0:	1b00000b          	0x1b00000b
     fd4:	0e2c                	addi	a1,sp,792
     fd6:	0000                	unimp
     fd8:	000e3a1b          	0xe3a1b
     fdc:	1b00                	addi	s0,sp,432
     fde:	0e48                	addi	a0,sp,788
     fe0:	0000                	unimp
     fe2:	081d                	addi	a6,a6,7
     fe4:	0e56                	slli	t3,t3,0x15
     fe6:	0000                	unimp
     fe8:	0e56083f 6b0c0000 	0x6b0c00000e56083f
     ff0:	0008                	0x8
     ff2:	0900                	addi	s0,sp,144
     ff4:	0b08                	addi	a0,sp,400
     ff6:	1270                	addi	a2,sp,300
     ff8:	0000                	unimp
     ffa:	0940                	addi	s0,sp,148
     ffc:	0f0a                	slli	t5,t5,0x2
     ffe:	0f92                	slli	t6,t6,0x4
    1000:	0000                	unimp
    1002:	5029                	c.li	zero,-22
    1004:	0006                	c.slli	zero,0x1
    1006:	2800                	fld	fs0,16(s0)
    1008:	0c09                	addi	s8,s8,2
    100a:	0011610b          	0x11610b
    100e:	2b00                	fld	fs0,16(a4)
    1010:	0650                	addi	a2,sp,772
    1012:	0000                	unimp
    1014:	0e09                	addi	t3,t3,2
    1016:	f209                	bnez	a2,f18 <STACK_SIZE+0xb18>
    1018:	0002                	c.slli64	zero
    101a:	0100                	addi	s0,sp,128
    101c:	0ff6                	slli	t6,t6,0x1d
    101e:	0000                	unimp
    1020:	1006                	c.slli	zero,0x21
    1022:	0000                	unimp
    1024:	7022                	0x7022
    1026:	0012                	c.slli	zero,0x4
    1028:	1000                	addi	s0,sp,32
    102a:	00000037          	lui	zero,0x0
    102e:	3710                	fld	fa2,40(a4)
    1030:	0000                	unimp
    1032:	0000                	unimp
    1034:	00064f2b          	0x64f2b
    1038:	0900                	addi	s0,sp,144
    103a:	0214090f          	0x214090f
    103e:	0000                	unimp
    1040:	1b01                	addi	s6,s6,-32
    1042:	0010                	0x10
    1044:	2600                	fld	fs0,8(a2)
    1046:	0010                	0x10
    1048:	2200                	fld	fs0,0(a2)
    104a:	1270                	addi	a2,sp,300
    104c:	0000                	unimp
    104e:	6e22                	ld	t3,8(sp)
    1050:	0000                	unimp
    1052:	0000                	unimp
    1054:	6b2c                	ld	a1,80(a4)
    1056:	0008                	0x8
    1058:	0900                	addi	s0,sp,144
    105a:	1010                	addi	a2,sp,32
    105c:	000002b3          	add	t0,zero,zero
    1060:	00000037          	lui	zero,0x0
    1064:	3f01                	addiw	t5,t5,-32
    1066:	0010                	0x10
    1068:	4a00                	lw	s0,16(a2)
    106a:	0010                	0x10
    106c:	2200                	fld	fs0,0(a2)
    106e:	1270                	addi	a2,sp,300
    1070:	0000                	unimp
    1072:	8610                	0x8610
    1074:	0000                	unimp
    1076:	0000                	unimp
    1078:	2d2c                	fld	fa1,88(a0)
    107a:	0011                	c.nop	4
    107c:	0900                	addi	s0,sp,144
    107e:	1011                	c.nop	-28
    1080:	15e9                	addi	a1,a1,-6
    1082:	0000                	unimp
    1084:	00000037          	lui	zero,0x0
    1088:	6301                	0x6301
    108a:	0010                	0x10
    108c:	7300                	ld	s0,32(a4)
    108e:	0010                	0x10
    1090:	2200                	fld	fs0,0(a2)
    1092:	1270                	addi	a2,sp,300
    1094:	0000                	unimp
    1096:	3710                	fld	fa2,40(a4)
    1098:	0000                	unimp
    109a:	1000                	addi	s0,sp,32
    109c:	006e                	c.slli	zero,0x1b
    109e:	0000                	unimp
    10a0:	2b00                	fld	fs0,16(a4)
    10a2:	1010                	addi	a2,sp,32
    10a4:	0000                	unimp
    10a6:	1209                	addi	tp,tp,-30
    10a8:	c415                	beqz	s0,10d4 <STACK_SIZE+0xcd4>
    10aa:	01000003          	lb	zero,16(zero) # 10 <STACK_SIZE-0x3f0>
    10ae:	1088                	addi	a0,sp,96
    10b0:	0000                	unimp
    10b2:	108e                	slli	ra,ra,0x23
    10b4:	0000                	unimp
    10b6:	7022                	0x7022
    10b8:	0012                	c.slli	zero,0x4
    10ba:	0000                	unimp
    10bc:	ac21                	j	12d4 <STACK_SIZE+0xed4>
    10be:	0005                	c.nop	1
    10c0:	0900                	addi	s0,sp,144
    10c2:	2118                	fld	fa4,0(a0)
    10c4:	109a                	slli	ra,ra,0x26
    10c6:	0000                	unimp
    10c8:	00000037          	lui	zero,0x0
    10cc:	10a6                	slli	ra,ra,0x29
    10ce:	0000                	unimp
    10d0:	10b1                	addi	ra,ra,-20
    10d2:	0000                	unimp
    10d4:	7022                	0x7022
    10d6:	0012                	c.slli	zero,0x4
    10d8:	1000                	addi	s0,sp,32
    10da:	00000037          	lui	zero,0x0
    10de:	2100                	fld	fs0,0(a0)
    10e0:	0e52                	slli	t3,t3,0x14
    10e2:	0000                	unimp
    10e4:	1909                	addi	s2,s2,-30
    10e6:	0b21                	addi	s6,s6,8
    10e8:	0016                	c.slli	zero,0x5
    10ea:	3700                	fld	fs0,40(a4)
    10ec:	0000                	unimp
    10ee:	c900                	sw	s0,16(a0)
    10f0:	0010                	0x10
    10f2:	d400                	sw	s0,40(s0)
    10f4:	0010                	0x10
    10f6:	2200                	fld	fs0,0(a2)
    10f8:	1270                	addi	a2,sp,300
    10fa:	0000                	unimp
    10fc:	3710                	fld	fa2,40(a4)
    10fe:	0000                	unimp
    1100:	0000                	unimp
    1102:	0f21                	addi	t5,t5,8
    1104:	0011                	c.nop	4
    1106:	0900                	addi	s0,sp,144
    1108:	211a                	fld	ft2,384(sp)
    110a:	00000d8f          	0xd8f
    110e:	00000037          	lui	zero,0x0
    1112:	10ec                	addi	a1,sp,108
    1114:	0000                	unimp
    1116:	000010f7          	0x10f7
    111a:	7022                	0x7022
    111c:	0012                	c.slli	zero,0x4
    111e:	1000                	addi	s0,sp,32
    1120:	00000037          	lui	zero,0x0
    1124:	2100                	fld	fs0,0(a0)
    1126:	07a1                	addi	a5,a5,8
    1128:	0000                	unimp
    112a:	1d09                	addi	s10,s10,-30
    112c:	00121217          	auipc	tp,0x121
    1130:	3700                	fld	fs0,40(a4)
    1132:	0000                	unimp
    1134:	0f00                	addi	s0,sp,912
    1136:	0011                	c.nop	4
    1138:	1f00                	addi	s0,sp,944
    113a:	0011                	c.nop	4
    113c:	2200                	fld	fs0,0(a2)
    113e:	1270                	addi	a2,sp,300
    1140:	0000                	unimp
    1142:	3710                	fld	fa2,40(a4)
    1144:	0000                	unimp
    1146:	1000                	addi	s0,sp,32
    1148:	006e                	c.slli	zero,0x1b
    114a:	0000                	unimp
    114c:	2000                	fld	fs0,0(s0)
    114e:	1148                	addi	a0,sp,164
    1150:	0000                	unimp
    1152:	2909                	addiw	s2,s2,2
    1154:	9211                	srli	a2,a2,0x24
    1156:	0000000f          	fence	unknown,unknown
    115a:	652a                	ld	a0,136(sp)
    115c:	646e                	ld	s0,216(sp)
    115e:	0900                	addi	s0,sp,144
    1160:	112a                	slli	sp,sp,0x2a
    1162:	0f92                	slli	t6,t6,0x4
    1164:	0000                	unimp
    1166:	2008                	fld	fa0,0(s0)
    1168:	1230                	addi	a2,sp,296
    116a:	0000                	unimp
    116c:	2b09                	addiw	s6,s6,2
    116e:	3710                	fld	fa2,40(a4)
    1170:	0000                	unimp
    1172:	1000                	addi	s0,sp,32
    1174:	1c20                	addi	s0,sp,568
    1176:	0900000f          	fence	iw,unknown
    117a:	102c                	addi	a1,sp,40
    117c:	00000037          	lui	zero,0x0
    1180:	2018                	fld	fa4,0(s0)
    1182:	0f02                	c.slli64	t5
    1184:	0000                	unimp
    1186:	2d09                	addiw	s10,s10,2
    1188:	7612                	ld	a2,288(sp)
    118a:	0012                	c.slli	zero,0x4
    118c:	2000                	fld	fs0,0(s0)
    118e:	4100                	lw	s0,0(a0)
    1190:	00001353          	fadd.s	ft6,ft0,ft0,rtz
    1194:	0908                	addi	a0,sp,144
    1196:	65420b33          	0x65420b33
    119a:	0016                	c.slli	zero,0x5
    119c:	0900                	addi	s0,sp,144
    119e:	0f35                	addi	t5,t5,13
    11a0:	0029                	c.nop	10
    11a2:	0000                	unimp
    11a4:	0200                	addi	s0,sp,256
    11a6:	0010b343          	fmadd.s	ft6,ft1,ft1,ft0,rup
    11aa:	0900                	addi	s0,sp,144
    11ac:	1e36                	slli	t3,t3,0x2d
    11ae:	0075                	c.nop	29
    11b0:	0000                	unimp
    11b2:	0202                	c.slli64	tp
    11b4:	0008d22b          	0x8d22b
    11b8:	0900                	addi	s0,sp,144
    11ba:	02591537          	lui	a0,0x2591
    11be:	0000                	unimp
    11c0:	9b02                	jalr	s6
    11c2:	0011                	c.nop	4
    11c4:	a100                	fsd	fs0,0(a0)
    11c6:	0011                	c.nop	4
    11c8:	2200                	fld	fs0,0(a2)
    11ca:	127c                	addi	a5,sp,300
    11cc:	0000                	unimp
    11ce:	2b00                	fld	fs0,16(a4)
    11d0:	00001353          	fadd.s	ft6,ft0,ft0,rtz
    11d4:	3909                	addiw	s2,s2,-30
    11d6:	3409                	addiw	s0,s0,-30
    11d8:	0005                	c.nop	1
    11da:	0100                	addi	s0,sp,128
    11dc:	11b6                	slli	gp,gp,0x2d
    11de:	0000                	unimp
    11e0:	11c6                	slli	gp,gp,0x31
    11e2:	0000                	unimp
    11e4:	7c22                	ld	s8,40(sp)
    11e6:	0012                	c.slli	zero,0x4
    11e8:	1000                	addi	s0,sp,32
    11ea:	0029                	c.nop	10
    11ec:	0000                	unimp
    11ee:	3710                	fld	fa2,40(a4)
    11f0:	0000                	unimp
    11f2:	0000                	unimp
    11f4:	00104c2b          	0x104c2b
    11f8:	0900                	addi	s0,sp,144
    11fa:	093a                	slli	s2,s2,0xe
    11fc:	1132                	slli	sp,sp,0x2c
    11fe:	0000                	unimp
    1200:	db01                	beqz	a4,1110 <STACK_SIZE+0xd10>
    1202:	0011                	c.nop	4
    1204:	e600                	sd	s0,8(a2)
    1206:	0011                	c.nop	4
    1208:	2200                	fld	fs0,0(a2)
    120a:	127c                	addi	a5,sp,300
    120c:	0000                	unimp
    120e:	6e22                	ld	t3,8(sp)
    1210:	0000                	unimp
    1212:	0000                	unimp
    1214:	6b2c                	ld	a1,80(a4)
    1216:	0008                	0x8
    1218:	0900                	addi	s0,sp,144
    121a:	04fa0f3b          	0x4fa0f3b
    121e:	0000                	unimp
    1220:	0029                	c.nop	10
    1222:	0000                	unimp
    1224:	ff01                	bnez	a4,113c <STACK_SIZE+0xd3c>
    1226:	0011                	c.nop	4
    1228:	0a00                	addi	s0,sp,272
    122a:	0012                	c.slli	zero,0x4
    122c:	2200                	fld	fs0,0(a2)
    122e:	127c                	addi	a5,sp,300
    1230:	0000                	unimp
    1232:	3710                	fld	fa2,40(a4)
    1234:	0000                	unimp
    1236:	0000                	unimp
    1238:	622c                	ld	a1,64(a2)
    123a:	0008                	0x8
    123c:	0900                	addi	s0,sp,144
    123e:	0f3c                	addi	a5,sp,920
    1240:	1240                	addi	s0,sp,292
    1242:	0000                	unimp
    1244:	0029                	c.nop	10
    1246:	0000                	unimp
    1248:	2301                	sext.w	t1,t1
    124a:	0012                	c.slli	zero,0x4
    124c:	3300                	fld	fs0,32(a4)
    124e:	0012                	c.slli	zero,0x4
    1250:	2200                	fld	fs0,0(a2)
    1252:	127c                	addi	a5,sp,300
    1254:	0000                	unimp
    1256:	3710                	fld	fa2,40(a4)
    1258:	0000                	unimp
    125a:	1000                	addi	s0,sp,32
    125c:	00000037          	lui	zero,0x0
    1260:	2b00                	fld	fs0,16(a4)
    1262:	112d                	addi	sp,sp,-21
    1264:	0000                	unimp
    1266:	3d09                	addiw	s10,s10,-30
    1268:	2b0e                	fld	fs6,192(sp)
    126a:	0100000b          	0x100000b
    126e:	1248                	addi	a0,sp,292
    1270:	0000                	unimp
    1272:	00001253          	fadd.s	ft4,ft0,ft0,rtz
    1276:	7c22                	ld	s8,40(sp)
    1278:	0012                	c.slli	zero,0x4
    127a:	1000                	addi	s0,sp,32
    127c:	0029                	c.nop	10
    127e:	0000                	unimp
    1280:	2d00                	fld	fs0,24(a0)
    1282:	1658                	addi	a4,sp,804
    1284:	0000                	unimp
    1286:	3e09                	addiw	t3,t3,-30
    1288:	0007440f          	0x7440f
    128c:	2900                	fld	fs0,16(a0)
    128e:	0000                	unimp
    1290:	0100                	addi	s0,sp,128
    1292:	1268                	addi	a0,sp,300
    1294:	0000                	unimp
    1296:	7c22                	ld	s8,40(sp)
    1298:	0012                	c.slli	zero,0x4
    129a:	0000                	unimp
    129c:	0000                	unimp
    129e:	081d                	addi	a6,a6,7
    12a0:	0fd4                	addi	a3,sp,980
    12a2:	0000                	unimp
    12a4:	081d                	addi	a6,a6,7
    12a6:	0056                	c.slli	zero,0x15
    12a8:	0000                	unimp
    12aa:	081d                	addi	a6,a6,7
    12ac:	1161                	addi	sp,sp,-8
    12ae:	0000                	unimp
    12b0:	521e                	lw	tp,228(sp)
    12b2:	09000013          	li	zero,144
    12b6:	184c                	addi	a1,sp,52
    12b8:	127c                	addi	a5,sp,300
    12ba:	0000                	unimp
    12bc:	780c                	ld	a1,48(s0)
    12be:	0b000003          	lb	zero,176(zero) # b0 <STACK_SIZE-0x350>
    12c2:	0b05                	addi	s6,s6,1
    12c4:	000013bf 0002cd0d 	0x2cd0d000013bf
    12cc:	0500                	addi	s0,sp,640
    12ce:	ac02                	fsd	ft0,24(sp)
    12d0:	0000                	unimp
    12d2:	0b00                	addi	s0,sp,400
    12d4:	12cb0a07          	0x12cb0a07
    12d8:	0000                	unimp
    12da:	0004b80b          	0x4b80b
    12de:	0000                	unimp
    12e0:	0011e30b          	0x11e30b
    12e4:	0100                	addi	s0,sp,128
    12e6:	0003ac0b          	0x3ac0b
    12ea:	0200                	addi	s0,sp,256
    12ec:	000b670b          	0xb670b
    12f0:	0300                	addi	s0,sp,384
    12f2:	0016530b          	0x16530b
    12f6:	0400                	addi	s0,sp,512
    12f8:	1f00                	addi	s0,sp,944
    12fa:	04de                	slli	s1,s1,0x17
    12fc:	0000                	unimp
    12fe:	0b08                	addi	a0,sp,400
    1300:	0c0c                	addi	a1,sp,528
    1302:	131f 0000 692a      	0x692a0000131f
    1308:	0064                	addi	s1,sp,12
    130a:	1f0f0d0b          	0x1f0f0d0b
    130e:	00000013          	nop
    1312:	0220                	addi	s0,sp,264
    1314:	0011                	c.nop	4
    1316:	0b00                	addi	s0,sp,400
    1318:	110e                	slli	sp,sp,0x23
    131a:	0000132b          	0x132b
    131e:	2004                	fld	fs1,0(s0)
    1320:	123a                	slli	tp,tp,0x2e
    1322:	0000                	unimp
    1324:	9a0f0f0b          	0x9a0f0f0b
    1328:	0012                	c.slli	zero,0x4
    132a:	0600                	addi	s0,sp,768
    132c:	de3c                	sw	a5,120(a2)
    132e:	0004                	0x4
    1330:	0b00                	addi	s0,sp,400
    1332:	0910                	addi	a2,sp,144
    1334:	0000048f          	0x48f
    1338:	130e                	slli	t1,t1,0x23
    133a:	0000                	unimp
    133c:	bf22                	fsd	fs0,440(sp)
    133e:	10000013          	li	zero,256
    1342:	131f 0000 2b10      	0x2b100000131f
    1348:	00000013          	nop
    134c:	0200                	addi	s0,sp,256
    134e:	00000afb          	0xafb
    1352:	6e110a0b          	0x6e110a0b
    1356:	0000                	unimp
    1358:	0200                	addi	s0,sp,256
    135a:	00001533          	sll	a0,zero,zero
    135e:	ac130b0b          	0xac130b0b
    1362:	0000                	unimp
    1364:	4100                	lw	s0,0(a0)
    1366:	04aa                	slli	s1,s1,0xa
    1368:	0000                	unimp
    136a:	0b30                	addi	a2,sp,408
    136c:	06200b13          	li	s6,98
    1370:	000c                	0xc
    1372:	0b00                	addi	s0,sp,400
    1374:	2014                	fld	fa3,0(s0)
    1376:	000006d7          	0x6d7
    137a:	2000                	fld	fs0,0(s0)
    137c:	07f9                	addi	a5,a5,30
    137e:	0000                	unimp
    1380:	9b1b150b          	0x9b1b150b
    1384:	0009                	c.nop	2
    1386:	1000                	addi	s0,sp,32
    1388:	632a                	ld	t1,136(sp)
    138a:	7275                	lui	tp,0xffffd
    138c:	0b00                	addi	s0,sp,400
    138e:	3016                	fld	ft0,352(sp)
    1390:	07f4                	addi	a3,sp,972
    1392:	0000                	unimp
    1394:	2c20                	fld	fs0,88(s0)
    1396:	01de                	slli	gp,gp,0x17
    1398:	0000                	unimp
    139a:	e715180b          	0xe715180b
    139e:	0009                	c.nop	2
    13a0:	bf00                	fsd	fs0,56(a4)
    13a2:	01000013          	li	zero,16
    13a6:	1380                	addi	s0,sp,480
    13a8:	0000                	unimp
    13aa:	1386                	slli	t2,t2,0x21
    13ac:	0000                	unimp
    13ae:	1722                	slli	a4,a4,0x28
    13b0:	0014                	0x14
    13b2:	0000                	unimp
    13b4:	0004aa2b          	0x4aa2b
    13b8:	0b00                	addi	s0,sp,400
    13ba:	0919                	addi	s2,s2,6
    13bc:	0d05                	addi	s10,s10,1
    13be:	0000                	unimp
    13c0:	9b01                	andi	a4,a4,-32
    13c2:	a1000013          	li	zero,-1520
    13c6:	22000013          	li	zero,544
    13ca:	00001417          	auipc	s0,0x1
    13ce:	4400                	lw	s0,8(s0)
    13d0:	6461                	lui	s0,0x18
    13d2:	0064                	addi	s1,sp,12
    13d4:	960e1a0b          	0x960e1a0b
    13d8:	0006                	c.slli	zero,0x1
    13da:	0100                	addi	s0,sp,128
    13dc:	13b2                	slli	t2,t2,0x2c
    13de:	0000                	unimp
    13e0:	1722                	slli	a4,a4,0x28
    13e2:	0014                	0x14
    13e4:	1000                	addi	s0,sp,32
    13e6:	000013bf 1d000000 	0x1d000000000013bf
    13ee:	cb08                	sw	a0,16(a4)
    13f0:	0012                	c.slli	zero,0x4
    13f2:	0400                	addi	s0,sp,512
    13f4:	000013bf 0996081d 	0x996081d000013bf
    13fc:	0000                	unimp
    13fe:	081d                	addi	a6,a6,7
    1400:	000006d7          	0x6d7
    1404:	13c5083f 081d0000 	0x81d000013c5083f
    140c:	13e2                	slli	t2,t2,0x38
    140e:	0000                	unimp
    1410:	ed1c                	sd	a5,24(a0)
    1412:	10000013          	li	zero,256
    1416:	13d6                	slli	t2,t2,0x35
    1418:	0000                	unimp
    141a:	1d00                	addi	s0,sp,688
    141c:	9b08                	0x9b08
    141e:	0009                	c.nop	2
    1420:	1d00                	addi	s0,sp,688
    1422:	f408                	sd	a0,40(s0)
    1424:	3f000007          	0x3f000007
    1428:	bf08                	fsd	fa0,56(a4)
    142a:	1d000013          	li	zero,464
    142e:	0608                	addi	a0,sp,768
    1430:	0009                	c.nop	2
    1432:	1d00                	addi	s0,sp,688
    1434:	bf08                	fsd	fa0,56(a4)
    1436:	3f000013          	li	zero,1008
    143a:	f408                	sd	a0,40(s0)
    143c:	3f000007          	0x3f000007
    1440:	0608                	addi	a0,sp,768
    1442:	0009                	c.nop	2
    1444:	1d00                	addi	s0,sp,688
    1446:	3708                	fld	fa0,40(a4)
    1448:	0c000013          	li	zero,192
    144c:	0000117b          	0x117b
    1450:	070c                	addi	a1,sp,896
    1452:	0014c60b          	0x14c60b
    1456:	4000                	lw	s0,0(s0)
    1458:	090c                	addi	a1,sp,144
    145a:	000e560f          	0xe560f
    145e:	4000                	lw	s0,0(s0)
    1460:	0a0c                	addi	a1,sp,272
    1462:	1f12                	slli	t5,t5,0x24
    1464:	40000013          	li	zero,1024
    1468:	0b0c                	addi	a1,sp,400
    146a:	cb12                	sw	tp,148(sp)
    146c:	0012                	c.slli	zero,0x4
    146e:	4000                	lw	s0,0(s0)
    1470:	0c0c                	addi	a1,sp,528
    1472:	2b12                	fld	fs6,256(sp)
    1474:	40000013          	li	zero,1024
    1478:	0d0c                	addi	a1,sp,656
    147a:	000e560f          	0xe560f
    147e:	4500                	lw	s0,8(a0)
    1480:	1044                	addi	s1,sp,36
    1482:	0000                	unimp
    1484:	0108                	addi	a0,sp,128
    1486:	0f0c                	addi	a1,sp,912
    1488:	b50c                	fsd	fa1,40(a0)
    148a:	0014                	0x14
    148c:	2a00                	fld	fs0,16(a2)
    148e:	00727067          	0x727067
    1492:	110c                	addi	a1,sp,160
    1494:	c610                	sw	a2,8(a2)
    1496:	0014                	0x14
    1498:	0000                	unimp
    149a:	7824                	ld	s1,112(s0)
    149c:	0c00                	addi	s0,sp,528
    149e:	1b12                	slli	s6,s6,0x24
    14a0:	13f5                	addi	t2,t2,-3
    14a2:	0000                	unimp
    14a4:	14d6                	slli	s1,s1,0x35
    14a6:	0000                	unimp
    14a8:	1482                	slli	s1,s1,0x20
    14aa:	0000                	unimp
    14ac:	148d                	addi	s1,s1,-29
    14ae:	0000                	unimp
    14b0:	dc22                	sw	s0,56(sp)
    14b2:	0014                	0x14
    14b4:	1000                	addi	s0,sp,32
    14b6:	006e                	c.slli	zero,0x1b
    14b8:	0000                	unimp
    14ba:	2000                	fld	fs0,0(s0)
    14bc:	0984                	addi	s1,sp,208
    14be:	0000                	unimp
    14c0:	130c                	addi	a1,sp,416
    14c2:	0000290f          	0x290f
    14c6:	f000                	sd	s0,32(s0)
    14c8:	7d20                	ld	s0,120(a0)
    14ca:	0008                	0x8
    14cc:	0c00                	addi	s0,sp,528
    14ce:	1014                	addi	a3,sp,32
    14d0:	00000037          	lui	zero,0x0
    14d4:	46f8                	lw	a4,76(a3)
    14d6:	6370                	ld	a2,192(a4)
    14d8:	0c00                	addi	s0,sp,528
    14da:	1015                	c.nop	-27
    14dc:	00000037          	lui	zero,0x0
    14e0:	0100                	addi	s0,sp,128
    14e2:	1300                	addi	s0,sp,416
    14e4:	0de9                	addi	s11,s11,26
    14e6:	0000                	unimp
    14e8:	190c                	addi	a1,sp,176
    14ea:	4316                	lw	t1,68(sp)
    14ec:	0000                	unimp
    14ee:	ff00                	sd	s0,56(a4)
    14f0:	00ffffff          	0xffffff
    14f4:	3732                	fld	fa4,296(sp)
    14f6:	0000                	unimp
    14f8:	d600                	sw	s0,40(a2)
    14fa:	0014                	0x14
    14fc:	3300                	fld	fs0,32(a4)
    14fe:	0048                	addi	a0,sp,4
    1500:	0000                	unimp
    1502:	001d                	c.nop	7
    1504:	0037083f 081d0000 	0x81d00000037083f
    150c:	1451                	addi	s0,s0,-12
    150e:	0000                	unimp
    1510:	0014b51b          	0x14b51b
    1514:	4700                	lw	s0,8(a4)
    1516:	00737973          	csrrci	s2,0x7,6
    151a:	0c0d                	addi	s8,s8,3
    151c:	02870c0b          	0x2870c0b
    1520:	0000                	unimp
    1522:	2d0d                	addiw	s10,s10,3
    1524:	00155b0b          	0x155b0b
    1528:	1300                	addi	s0,sp,416
    152a:	0481                	addi	s1,s1,0
    152c:	0000                	unimp
    152e:	2e0d                	addiw	t3,t3,3
    1530:	00007513          	andi	a0,zero,0
    1534:	4000                	lw	s0,0(s0)
    1536:	1f004c4b          	fnmsub.q	fs8,ft0,fa6,ft3,rmm
    153a:	05f4                	addi	a3,sp,716
    153c:	0000                	unimp
    153e:	0d30                	addi	a2,sp,664
    1540:	15260c43          	0x15260c43
    1544:	0000                	unimp
    1546:	db20                	sw	s0,112(a4)
    1548:	0008                	0x8
    154a:	0d00                	addi	s0,sp,656
    154c:	1a44                	addi	s1,sp,308
    154e:	00001337          	lui	t1,0x1
    1552:	0000                	unimp
    1554:	de48                	sw	a0,60(a2)
    1556:	0005                	c.nop	1
    1558:	1000                	addi	s0,sp,32
    155a:	0d01                	addi	s10,s10,0
    155c:	0c46                	slli	s8,s8,0x11
    155e:	632a                	ld	t1,136(sp)
    1560:	7874                	ld	a3,240(s0)
    1562:	0d00                	addi	s0,sp,656
    1564:	14511747          	0x14511747
    1568:	0000                	unimp
    156a:	4900                	lw	s0,16(a0)
    156c:	1108                	addi	a0,sp,160
    156e:	0000                	unimp
    1570:	480d                	li	a6,3
    1572:	1f16                	slli	t5,t5,0x25
    1574:	08000013          	li	zero,128
    1578:	4901                	li	s2,0
    157a:	000002d3          	fadd.s	ft5,ft0,ft0,rne
    157e:	480d                	li	a6,3
    1580:	1f1d                	addi	t5,t5,-25
    1582:	0c000013          	li	zero,192
    1586:	0001                	nop
    1588:	1b00                	addi	s0,sp,432
    158a:	000014fb          	0x14fb
    158e:	2a1e                	fld	fs4,448(sp)
    1590:	0002                	c.slli64	zero
    1592:	0d00                	addi	s0,sp,656
    1594:	12701853          	fmul.d	fa6,ft0,ft7,rtz
    1598:	0000                	unimp
    159a:	7c1e                	ld	s8,480(sp)
    159c:	0008                	0x8
    159e:	0d00                	addi	s0,sp,656
    15a0:	0f54                	addi	a3,sp,916
    15a2:	00000037          	lui	zero,0x0
    15a6:	e31e                	sd	t2,384(sp)
    15a8:	000d                	c.nop	3
    15aa:	0d00                	addi	s0,sp,656
    15ac:	1554                	addi	a3,sp,676
    15ae:	00000037          	lui	zero,0x0
    15b2:	e61e                	sd	t2,264(sp)
    15b4:	0012                	c.slli	zero,0x4
    15b6:	0d00                	addi	s0,sp,656
    15b8:	2155                	addiw	sp,sp,21
    15ba:	0000150b          	0x150b
    15be:	b31e                	fsd	ft7,416(sp)
    15c0:	0016                	c.slli	zero,0x5
    15c2:	0d00                	addi	s0,sp,656
    15c4:	1f56                	slli	t5,t5,0x35
    15c6:	1526                	slli	a0,a0,0x29
    15c8:	0000                	unimp
    15ca:	6734                	ld	a3,72(a4)
    15cc:	7270                	ld	a2,224(a2)
    15ce:	0400                	addi	s0,sp,512
    15d0:	0f0a                	slli	t5,t5,0x2
    15d2:	14c6                	slli	s1,s1,0x31
    15d4:	0000                	unimp
    15d6:	0309                	addi	t1,t1,2
    15d8:	40a0                	lw	s0,64(s1)
    15da:	8000                	0x8000
    15dc:	0000                	unimp
    15de:	0000                	unimp
    15e0:	834a                	mv	t1,s2
    15e2:	0009                	c.nop	2
    15e4:	0400                	addi	s0,sp,512
    15e6:	0866                	slli	a6,a6,0x19
    15e8:	00000037          	lui	zero,0x0
    15ec:	0309                	addi	t1,t1,2
    15ee:	4000                	lw	s0,0(s0)
    15f0:	8000                	0x8000
    15f2:	0000                	unimp
    15f4:	0000                	unimp
    15f6:	000f2a4b          	fnmsub.s	fs4,ft10,ft0,ft0,rdn
    15fa:	0200                	addi	s0,sp,256
    15fc:	1110                	addi	a2,sp,160
    15fe:	0a16                	slli	s4,s4,0x5
    1600:	0000                	unimp
    1602:	15f1                	addi	a1,a1,-4
    1604:	0000                	unimp
    1606:	f101                	bnez	a0,1506 <STACK_SIZE+0x1106>
    1608:	0015                	c.nop	5
    160a:	2500                	fld	fs0,8(a0)
    160c:	0054                	addi	a3,sp,4
    160e:	0048                	addi	a0,sp,4
    1610:	0000                	unimp
    1612:	484c                	lw	a1,20(s0)
    1614:	02000013          	li	zero,32
    1618:	1d10                	addi	a2,sp,688
    161a:	00000037          	lui	zero,0x0
    161e:	3f00                	fld	fs0,56(a4)
    1620:	4808                	lw	a0,16(s0)
    1622:	0000                	unimp
    1624:	4b00                	lw	s0,16(a4)
    1626:	0e7e                	slli	t3,t3,0x1f
    1628:	0000                	unimp
    162a:	1002                	c.slli	zero,0x20
    162c:	0d11                	addi	s10,s10,4
    162e:	2000000f          	0x2000000f
    1632:	0016                	c.slli	zero,0x5
    1634:	0100                	addi	s0,sp,128
    1636:	1620                	addi	s0,sp,808
    1638:	0000                	unimp
    163a:	5425                	li	s0,-23
    163c:	4f00                	lw	s0,24(a4)
    163e:	0000                	unimp
    1640:	4c00                	lw	s0,24(s0)
    1642:	1348                	addi	a0,sp,420
    1644:	0000                	unimp
    1646:	1002                	c.slli	zero,0x20
    1648:	371d                	addiw	a4,a4,-25
    164a:	0000                	unimp
    164c:	0000                	unimp
    164e:	004f083f a84b0000 	0xa84b0000004f083f
    1656:	000d                	c.nop	3
    1658:	0200                	addi	s0,sp,256
    165a:	1110                	addi	a2,sp,160
    165c:	0000076f          	jal	a4,165c <STACK_SIZE+0x125c>
    1660:	0000164f          	fnmadd.s	fa2,ft0,ft0,ft0,rtz
    1664:	4f01                	li	t5,0
    1666:	0016                	c.slli	zero,0x5
    1668:	2500                	fld	fs0,8(a0)
    166a:	0054                	addi	a3,sp,4
    166c:	006e                	c.slli	zero,0x1b
    166e:	0000                	unimp
    1670:	484c                	lw	a1,20(s0)
    1672:	02000013          	li	zero,32
    1676:	1d10                	addi	a2,sp,688
    1678:	00000037          	lui	zero,0x0
    167c:	3f00                	fld	fs0,56(a4)
    167e:	6e08                	ld	a0,24(a2)
    1680:	0000                	unimp
    1682:	4b00                	lw	s0,16(a4)
    1684:	0a62                	slli	s4,s4,0x18
    1686:	0000                	unimp
    1688:	1002                	c.slli	zero,0x20
    168a:	4311                	li	t1,4
    168c:	7e000003          	lb	zero,2016(zero) # 7e0 <STACK_SIZE+0x3e0>
    1690:	0016                	c.slli	zero,0x5
    1692:	0100                	addi	s0,sp,128
    1694:	167e                	slli	a2,a2,0x3f
    1696:	0000                	unimp
    1698:	5425                	li	s0,-23
    169a:	6900                	ld	s0,16(a0)
    169c:	0000                	unimp
    169e:	4c00                	lw	s0,24(s0)
    16a0:	1348                	addi	a0,sp,420
    16a2:	0000                	unimp
    16a4:	1002                	c.slli	zero,0x20
    16a6:	371d                	addiw	a4,a4,-25
    16a8:	0000                	unimp
    16aa:	0000                	unimp
    16ac:	0069083f 1a4b0000 	0x1a4b00000069083f
    16b4:	02000003          	lb	zero,32(zero) # 20 <STACK_SIZE-0x3e0>
    16b8:	1110                	addi	a2,sp,160
    16ba:	11e9                	addi	gp,gp,-6
    16bc:	0000                	unimp
    16be:	16ad                	addi	a3,a3,-21
    16c0:	0000                	unimp
    16c2:	ad01                	j	1cd2 <STACK_SIZE+0x18d2>
    16c4:	0016                	c.slli	zero,0x5
    16c6:	2500                	fld	fs0,8(a0)
    16c8:	0054                	addi	a3,sp,4
    16ca:	03b8                	addi	a4,sp,456
    16cc:	0000                	unimp
    16ce:	484c                	lw	a1,20(s0)
    16d0:	02000013          	li	zero,32
    16d4:	1d10                	addi	a2,sp,688
    16d6:	00000037          	lui	zero,0x0
    16da:	3f00                	fld	fs0,56(a4)
    16dc:	b808                	fsd	fa0,48(s0)
    16de:	4b000003          	lb	zero,1200(zero) # 4b0 <STACK_SIZE+0xb0>
    16e2:	000004ef          	jal	s1,16e2 <STACK_SIZE+0x12e2>
    16e6:	1002                	c.slli	zero,0x20
    16e8:	0911                	addi	s2,s2,4
    16ea:	0015                	c.nop	5
    16ec:	dc00                	sw	s0,56(s0)
    16ee:	0016                	c.slli	zero,0x5
    16f0:	0100                	addi	s0,sp,128
    16f2:	16dc                	addi	a5,sp,868
    16f4:	0000                	unimp
    16f6:	5425                	li	s0,-23
    16f8:	b100                	fsd	fs0,32(a0)
    16fa:	0005                	c.nop	1
    16fc:	4c00                	lw	s0,24(s0)
    16fe:	1348                	addi	a0,sp,420
    1700:	0000                	unimp
    1702:	1002                	c.slli	zero,0x20
    1704:	371d                	addiw	a4,a4,-25
    1706:	0000                	unimp
    1708:	0000                	unimp
    170a:	05b1083f 184b0000 	0x184b000005b1083f
    1712:	0015                	c.nop	5
    1714:	0200                	addi	s0,sp,256
    1716:	1110                	addi	a2,sp,160
    1718:	000001e3          	beqz	zero,1f1a <STACK_SIZE+0x1b1a>
    171c:	0000170b          	0x170b
    1720:	0b01                	addi	s6,s6,0
    1722:	25000017          	auipc	zero,0x25000
    1726:	0054                	addi	a3,sp,4
    1728:	036a                	slli	t1,t1,0x1a
    172a:	0000                	unimp
    172c:	484c                	lw	a1,20(s0)
    172e:	02000013          	li	zero,32
    1732:	1d10                	addi	a2,sp,688
    1734:	00000037          	lui	zero,0x0
    1738:	3f00                	fld	fs0,56(a4)
    173a:	6a08                	ld	a0,16(a2)
    173c:	4d000003          	lb	zero,1232(zero) # 4d0 <STACK_SIZE+0xd0>
    1740:	0d1d                	addi	s10,s10,7
    1742:	0000                	unimp
    1744:	9804                	0x9804
    1746:	d811                	beqz	s0,165a <STACK_SIZE+0x125a>
    1748:	00800007          	0x800007
    174c:	0000                	unimp
    174e:	c800                	sw	s0,16(s0)
    1750:	0000                	unimp
    1752:	0000                	unimp
    1754:	0000                	unimp
    1756:	0100                	addi	s0,sp,128
    1758:	3d9c                	fld	fa5,56(a1)
    175a:	34000017          	auipc	zero,0x34000
    175e:	04007073          	csrci	uscratch,0
    1762:	159e                	slli	a1,a1,0x27
    1764:	00000037          	lui	zero,0x0
    1768:	5201                	li	tp,-32
    176a:	4e00                	lw	s0,24(a2)
    176c:	02da                	slli	t0,t0,0x16
    176e:	0000                	unimp
    1770:	9204                	0x9204
    1772:	8e06                	mv	t3,ra
    1774:	6c00000f          	0x6c00000f
    1778:	00800007          	0x800007
    177c:	0000                	unimp
    177e:	6c00                	ld	s0,24(s0)
    1780:	0000                	unimp
    1782:	0000                	unimp
    1784:	0000                	unimp
    1786:	0100                	addi	s0,sp,128
    1788:	7f9c                	ld	a5,56(a5)
    178a:	4f000017          	auipc	zero,0x4f000
    178e:	07a0                	addi	s0,sp,968
    1790:	8000                	0x8000
    1792:	0000                	unimp
    1794:	0000                	unimp
    1796:	0024                	addi	s1,sp,8
    1798:	0000                	unimp
    179a:	0000                	unimp
    179c:	0000                	unimp
    179e:	6b34                	ld	a3,80(a4)
    17a0:	0400                	addi	s0,sp,512
    17a2:	0d95                	addi	s11,s11,5
    17a4:	006e                	c.slli	zero,0x1b
    17a6:	0000                	unimp
    17a8:	9102                	jalr	sp
    17aa:	006c                	addi	a1,sp,12
    17ac:	4e00                	lw	s0,24(a2)
    17ae:	073a                	slli	a4,a4,0xe
    17b0:	0000                	unimp
    17b2:	8d04                	0x8d04
    17b4:	3f06                	fld	ft10,96(sp)
    17b6:	0000                	unimp
    17b8:	1000                	addi	s0,sp,32
    17ba:	00800007          	0x800007
    17be:	0000                	unimp
    17c0:	5c00                	lw	s0,56(s0)
    17c2:	0000                	unimp
    17c4:	0000                	unimp
    17c6:	0000                	unimp
    17c8:	0100                	addi	s0,sp,128
    17ca:	d29c                	sw	a5,32(a3)
    17cc:	50000017          	auipc	zero,0x50000
    17d0:	0ed6                	slli	t4,t4,0x15
    17d2:	0000                	unimp
    17d4:	8e04                	0x8e04
    17d6:	6e09                	lui	t3,0x2
    17d8:	0000                	unimp
    17da:	0200                	addi	s0,sp,256
    17dc:	6c91                	lui	s9,0x4
    17de:	c851                	beqz	s0,1872 <STACK_SIZE+0x1472>
    17e0:	0015                	c.nop	5
    17e2:	4000                	lw	s0,0(s0)
    17e4:	00800007          	0x800007
    17e8:	0000                	unimp
    17ea:	0400                	addi	s0,sp,512
    17ec:	0000                	unimp
    17ee:	0000                	unimp
    17f0:	0000                	unimp
    17f2:	0400                	addi	s0,sp,512
    17f4:	e452338f          	0xe452338f
    17f8:	0015                	c.nop	5
    17fa:	0200                	addi	s0,sp,256
    17fc:	6091                	lui	ra,0x4
    17fe:	0000                	unimp
    1800:	b44e                	fsd	fs3,40(sp)
    1802:	0004                	0x4
    1804:	0400                	addi	s0,sp,512
    1806:	0ba40683          	lb	a3,186(s0) # 180ba <STACK_SIZE+0x17cba>
    180a:	0000                	unimp
    180c:	0680                	addi	s0,sp,832
    180e:	8000                	0x8000
    1810:	0000                	unimp
    1812:	0000                	unimp
    1814:	0090                	addi	a2,sp,64
    1816:	0000                	unimp
    1818:	0000                	unimp
    181a:	0000                	unimp
    181c:	9c01                	subw	s0,s0,s0
    181e:	1886                	slli	a7,a7,0x21
    1820:	0000                	unimp
    1822:	018c0453          	fadd.s	fs0,fs8,fs8,rne
    1826:	0416                	slli	s0,s0,0x5
    1828:	0000                	unimp
    182a:	d650                	sw	a2,44(a2)
    182c:	000e                	c.slli	zero,0x3
    182e:	0400                	addi	s0,sp,512
    1830:	0986                	slli	s3,s3,0x1
    1832:	006e                	c.slli	zero,0x1b
    1834:	0000                	unimp
    1836:	9102                	jalr	sp
    1838:	506c                	lw	a1,100(s0)
    183a:	1348                	addi	a0,sp,420
    183c:	0000                	unimp
    183e:	8704                	0x8704
    1840:	370c                	fld	fa1,40(a4)
    1842:	0000                	unimp
    1844:	0200                	addi	s0,sp,256
    1846:	6091                	lui	ra,0x4
    1848:	f754                	sd	a3,168(a4)
    184a:	0015                	c.nop	5
    184c:	b000                	fsd	fs0,32(s0)
    184e:	0006                	c.slli	zero,0x1
    1850:	0080                	addi	s0,sp,64
    1852:	0000                	unimp
    1854:	0400                	addi	s0,sp,512
    1856:	0000                	unimp
    1858:	0000                	unimp
    185a:	0000                	unimp
    185c:	0400                	addi	s0,sp,512
    185e:	1688                	addi	a0,sp,864
    1860:	0000183f 00161352 	0x1613520000183f
    1868:	0200                	addi	s0,sp,256
    186a:	4891                	li	a7,4
    186c:	5400                	lw	s0,40(s0)
    186e:	000015f7          	0x15f7
    1872:	06d0                	addi	a2,sp,836
    1874:	8000                	0x8000
    1876:	0000                	unimp
    1878:	0000                	unimp
    187a:	0004                	0x4
    187c:	0000                	unimp
    187e:	0000                	unimp
    1880:	0000                	unimp
    1882:	8904                	0x8904
    1884:	6420                	ld	s0,72(s0)
    1886:	0018                	0x18
    1888:	5200                	lw	s0,32(a2)
    188a:	00001613          	slli	a2,zero,0x0
    188e:	9102                	jalr	sp
    1890:	0050                	addi	a2,sp,4
    1892:	f751                	bnez	a4,181e <STACK_SIZE+0x141e>
    1894:	0015                	c.nop	5
    1896:	f000                	sd	s0,32(s0)
    1898:	0006                	c.slli	zero,0x1
    189a:	0080                	addi	s0,sp,64
    189c:	0000                	unimp
    189e:	0400                	addi	s0,sp,512
    18a0:	0000                	unimp
    18a2:	0000                	unimp
    18a4:	0000                	unimp
    18a6:	0400                	addi	s0,sp,512
    18a8:	238a                	fld	ft7,128(sp)
    18aa:	1352                	slli	t1,t1,0x34
    18ac:	0016                	c.slli	zero,0x5
    18ae:	0200                	addi	s0,sp,256
    18b0:	5891                	li	a7,-28
    18b2:	0000                	unimp
    18b4:	894e                	mv	s2,s3
    18b6:	0008                	0x8
    18b8:	0400                	addi	s0,sp,512
    18ba:	0675                	addi	a2,a2,29
    18bc:	054c                	addi	a1,sp,644
    18be:	0000                	unimp
    18c0:	0588                	addi	a0,sp,704
    18c2:	8000                	0x8000
    18c4:	0000                	unimp
    18c6:	0000                	unimp
    18c8:	00f8                	addi	a4,sp,76
    18ca:	0000                	unimp
    18cc:	0000                	unimp
    18ce:	0000                	unimp
    18d0:	9c01                	subw	s0,s0,s0
    18d2:	1985                	addi	s3,s3,-31
    18d4:	0000                	unimp
    18d6:	01820453          	fadd.s	fs0,ft4,fs8,rne
    18da:	02e6                	slli	t0,t0,0x19
    18dc:	0000                	unimp
    18de:	6934                	ld	a3,80(a0)
    18e0:	7265                	lui	tp,0xffff9
    18e2:	0400                	addi	s0,sp,512
    18e4:	167e0b77          	0x167e0b77
    18e8:	0000                	unimp
    18ea:	9102                	jalr	sp
    18ec:	3468                	fld	fa0,232(s0)
    18ee:	636c                	ld	a1,192(a4)
    18f0:	0072                	c.slli	zero,0x1c
    18f2:	7a04                	ld	s1,48(a2)
    18f4:	00167e0b          	0x167e0b
    18f8:	0200                	addi	s0,sp,256
    18fa:	6091                	lui	ra,0x4
    18fc:	5554                	lw	a3,44(a0)
    18fe:	0016                	c.slli	zero,0x5
    1900:	a800                	fsd	fs0,16(s0)
    1902:	0005                	c.nop	1
    1904:	0080                	addi	s0,sp,64
    1906:	0000                	unimp
    1908:	0400                	addi	s0,sp,512
    190a:	0000                	unimp
    190c:	0000                	unimp
    190e:	0000                	unimp
    1910:	0400                	addi	s0,sp,512
    1912:	18f42e77          	0x18f42e77
    1916:	0000                	unimp
    1918:	7152                	ld	sp,304(sp)
    191a:	0016                	c.slli	zero,0x5
    191c:	0300                	addi	s0,sp,384
    191e:	b891                	j	1172 <STACK_SIZE+0xd72>
    1920:	5554007f          	sll16	zero,s0,s5
    1924:	0016                	c.slli	zero,0x5
    1926:	e000                	sd	s0,0(s0)
    1928:	0005                	c.nop	1
    192a:	0080                	addi	s0,sp,64
    192c:	0000                	unimp
    192e:	0400                	addi	s0,sp,512
    1930:	0000                	unimp
    1932:	0000                	unimp
    1934:	0000                	unimp
    1936:	0400                	addi	s0,sp,512
    1938:	2e7a                	fld	ft8,408(sp)
    193a:	1919                	addi	s2,s2,-26
    193c:	0000                	unimp
    193e:	7152                	ld	sp,304(sp)
    1940:	0016                	c.slli	zero,0x5
    1942:	0200                	addi	s0,sp,256
    1944:	4091                	li	ra,4
    1946:	5400                	lw	s0,40(s0)
    1948:	1655                	addi	a2,a2,-11
    194a:	0000                	unimp
    194c:	0614                	addi	a3,sp,768
    194e:	8000                	0x8000
    1950:	0000                	unimp
    1952:	0000                	unimp
    1954:	0004                	0x4
    1956:	0000                	unimp
    1958:	0000                	unimp
    195a:	0000                	unimp
    195c:	7c04                	ld	s1,56(s0)
    195e:	3e24                	fld	fs1,120(a2)
    1960:	0019                	c.nop	6
    1962:	5200                	lw	s0,32(a2)
    1964:	1671                	addi	a2,a2,-4
    1966:	0000                	unimp
    1968:	9102                	jalr	sp
    196a:	0048                	addi	a0,sp,4
    196c:	5554                	lw	a3,44(a0)
    196e:	0016                	c.slli	zero,0x5
    1970:	3000                	fld	fs0,32(s0)
    1972:	0006                	c.slli	zero,0x1
    1974:	0080                	addi	s0,sp,64
    1976:	0000                	unimp
    1978:	0400                	addi	s0,sp,512
    197a:	0000                	unimp
    197c:	0000                	unimp
    197e:	0000                	unimp
    1980:	0400                	addi	s0,sp,512
    1982:	247d                	addiw	s0,s0,31
    1984:	00001963          	bnez	zero,1996 <STACK_SIZE+0x1596>
    1988:	7152                	ld	sp,304(sp)
    198a:	0016                	c.slli	zero,0x5
    198c:	0200                	addi	s0,sp,256
    198e:	5091                	li	ra,-28
    1990:	5100                	lw	s0,32(a0)
    1992:	1655                	addi	a2,a2,-11
    1994:	0000                	unimp
    1996:	0654                	addi	a3,sp,772
    1998:	8000                	0x8000
    199a:	0000                	unimp
    199c:	0000                	unimp
    199e:	0004                	0x4
    19a0:	0000                	unimp
    19a2:	0000                	unimp
    19a4:	0000                	unimp
    19a6:	7f04                	ld	s1,56(a4)
    19a8:	5224                	lw	s1,96(a2)
    19aa:	1671                	addi	a2,a2,-4
    19ac:	0000                	unimp
    19ae:	9102                	jalr	sp
    19b0:	0058                	addi	a4,sp,4
    19b2:	4e00                	lw	s0,24(a2)
    19b4:	10f6                	slli	ra,ra,0x3d
    19b6:	0000                	unimp
    19b8:	7004                	ld	s1,32(s0)
    19ba:	f306                	sd	ra,416(sp)
    19bc:	000d                	c.nop	3
    19be:	3800                	fld	fs0,48(s0)
    19c0:	0005                	c.nop	1
    19c2:	0080                	addi	s0,sp,64
    19c4:	0000                	unimp
    19c6:	5000                	lw	s0,32(s0)
    19c8:	0000                	unimp
    19ca:	0000                	unimp
    19cc:	0000                	unimp
    19ce:	0100                	addi	s0,sp,128
    19d0:	cf9c                	sw	a5,24(a5)
    19d2:	0019                	c.nop	6
    19d4:	5300                	lw	s0,32(a4)
    19d6:	7404                	ld	s1,40(s0)
    19d8:	bd01                	j	17e8 <STACK_SIZE+0x13e8>
    19da:	4f000003          	lb	zero,1264(zero) # 4f0 <STACK_SIZE+0xf0>
    19de:	0548                	addi	a0,sp,644
    19e0:	8000                	0x8000
    19e2:	0000                	unimp
    19e4:	0000                	unimp
    19e6:	002c                	addi	a1,sp,8
    19e8:	0000                	unimp
    19ea:	0000                	unimp
    19ec:	0000                	unimp
    19ee:	6934                	ld	a3,80(a0)
    19f0:	0400                	addi	s0,sp,512
    19f2:	0d72                	slli	s10,s10,0x1c
    19f4:	006e                	c.slli	zero,0x1b
    19f6:	0000                	unimp
    19f8:	9102                	jalr	sp
    19fa:	006c                	addi	a1,sp,12
    19fc:	4d00                	lw	s0,24(a0)
    19fe:	02e5                	addi	t0,t0,25
    1a00:	0000                	unimp
    1a02:	6704                	ld	s1,8(a4)
    1a04:	2428                	fld	fa0,72(s0)
    1a06:	0004                	0x4
    1a08:	0080                	addi	s0,sp,64
    1a0a:	0000                	unimp
    1a0c:	1400                	addi	s0,sp,544
    1a0e:	0001                	nop
    1a10:	0000                	unimp
    1a12:	0000                	unimp
    1a14:	0100                	addi	s0,sp,128
    1a16:	fb9c                	sd	a5,48(a5)
    1a18:	0019                	c.nop	6
    1a1a:	3400                	fld	fs0,40(s0)
    1a1c:	04007073          	csrci	uscratch,0
    1a20:	156a                	slli	a0,a0,0x3a
    1a22:	00000037          	lui	zero,0x0
    1a26:	5201                	li	tp,-32
    1a28:	4d00                	lw	s0,24(a0)
    1a2a:	0bc4                	addi	s1,sp,468
    1a2c:	0000                	unimp
    1a2e:	3e04                	fld	fs1,56(a2)
    1a30:	3411                	addiw	s0,s0,-28
    1a32:	00800003          	lb	zero,8(zero) # 8 <STACK_SIZE-0x3f8>
    1a36:	0000                	unimp
    1a38:	f000                	sd	s0,32(s0)
    1a3a:	0000                	unimp
    1a3c:	0000                	unimp
    1a3e:	0000                	unimp
    1a40:	0100                	addi	s0,sp,128
    1a42:	7f9c                	ld	a5,56(a5)
    1a44:	001a                	c.slli	zero,0x6
    1a46:	5000                	lw	s0,32(s0)
    1a48:	162e                	slli	a2,a2,0x2b
    1a4a:	0000                	unimp
    1a4c:	3f04                	fld	fs1,56(a4)
    1a4e:	0000290b          	0x290b
    1a52:	0200                	addi	s0,sp,256
    1a54:	6891                	lui	a7,0x4
    1a56:	5250                	lw	a2,36(a2)
    1a58:	0000                	unimp
    1a5a:	0400                	addi	s0,sp,512
    1a5c:	0c40                	addi	s0,sp,532
    1a5e:	00000037          	lui	zero,0x0
    1a62:	9102                	jalr	sp
    1a64:	5060                	lw	s0,100(s0)
    1a66:	0314                	addi	a3,sp,384
    1a68:	0000                	unimp
    1a6a:	4104                	lw	s1,0(a0)
    1a6c:	370c                	fld	fa1,40(a4)
    1a6e:	0000                	unimp
    1a70:	0200                	addi	s0,sp,256
    1a72:	5891                	li	a7,-28
    1a74:	9055                	srli	s0,s0,0x35
    1a76:	00800003          	lb	zero,8(zero) # 8 <STACK_SIZE-0x3f8>
    1a7a:	0000                	unimp
    1a7c:	1800                	addi	s0,sp,48
    1a7e:	0000                	unimp
    1a80:	0000                	unimp
    1a82:	0000                	unimp
    1a84:	6400                	ld	s0,8(s0)
    1a86:	001a                	c.slli	zero,0x6
    1a88:	5300                	lw	s0,32(a4)
    1a8a:	6504                	ld	s1,8(a0)
    1a8c:	8e01                	sub	a2,a2,s0
    1a8e:	0001                	nop
    1a90:	0000                	unimp
    1a92:	0003c44f          	fnmadd.s	fs0,ft7,ft0,ft0,rmm
    1a96:	0080                	addi	s0,sp,64
    1a98:	0000                	unimp
    1a9a:	4800                	lw	s0,16(s0)
    1a9c:	0000                	unimp
    1a9e:	0000                	unimp
    1aa0:	0000                	unimp
    1aa2:	5300                	lw	s0,32(a4)
    1aa4:	6504                	ld	s1,8(a0)
    1aa6:	8e01                	sub	a2,a2,s0
    1aa8:	0001                	nop
    1aaa:	0000                	unimp
    1aac:	5600                	lw	s0,40(a2)
    1aae:	023c                	addi	a5,sp,264
    1ab0:	0000                	unimp
    1ab2:	3104                	fld	fs1,32(a0)
    1ab4:	600d                	c.lui	zero,0x3
    1ab6:	0002                	c.slli64	zero
    1ab8:	0080                	addi	s0,sp,64
    1aba:	0000                	unimp
    1abc:	d400                	sw	s0,40(s0)
    1abe:	0000                	unimp
    1ac0:	0000                	unimp
    1ac2:	0000                	unimp
    1ac4:	0100                	addi	s0,sp,128
    1ac6:	d59c                	sw	a5,40(a1)
    1ac8:	001a                	c.slli	zero,0x6
    1aca:	5000                	lw	s0,32(s0)
    1acc:	0000098f          	0x98f
    1ad0:	3204                	fld	fs1,32(a2)
    1ad2:	6e12                	ld	t3,256(sp)
    1ad4:	0000                	unimp
    1ad6:	0100                	addi	s0,sp,128
    1ad8:	5061                	c.li	zero,-8
    1ada:	067e                	slli	a2,a2,0x1f
    1adc:	0000                	unimp
    1ade:	3304                	fld	fs1,32(a4)
    1ae0:	d60d                	beqz	a2,1a0a <STACK_SIZE+0x160a>
    1ae2:	0014                	0x14
    1ae4:	0200                	addi	s0,sp,256
    1ae6:	6891                	lui	a7,0x4
    1ae8:	0002c84f          	fnmadd.s	fa6,ft5,ft0,ft0,rmm
    1aec:	0080                	addi	s0,sp,64
    1aee:	0000                	unimp
    1af0:	5400                	lw	s0,40(s0)
    1af2:	0000                	unimp
    1af4:	0000                	unimp
    1af6:	0000                	unimp
    1af8:	5300                	lw	s0,32(a4)
    1afa:	3c04                	fld	fs1,56(s0)
    1afc:	a601                	j	1dfc <STACK_SIZE+0x19fc>
    1afe:	0002                	c.slli64	zero
    1b00:	0000                	unimp
    1b02:	5600                	lw	s0,40(a2)
    1b04:	163d                	addi	a2,a2,-17
    1b06:	0000                	unimp
    1b08:	2904                	fld	fs1,16(a0)
    1b0a:	e40d                	bnez	s0,1b34 <STACK_SIZE+0x1734>
    1b0c:	0001                	nop
    1b0e:	0080                	addi	s0,sp,64
    1b10:	0000                	unimp
    1b12:	7c00                	ld	s0,56(s0)
    1b14:	0000                	unimp
    1b16:	0000                	unimp
    1b18:	0000                	unimp
    1b1a:	0100                	addi	s0,sp,128
    1b1c:	289c                	fld	fa5,16(s1)
    1b1e:	5000001b          	addiw	zero,zero,1280
    1b22:	0ed6                	slli	t4,t4,0x15
    1b24:	0000                	unimp
    1b26:	2a04                	fld	fs1,16(a2)
    1b28:	6e09                	lui	t3,0x2
    1b2a:	0000                	unimp
    1b2c:	0200                	addi	s0,sp,256
    1b2e:	6c91                	lui	s9,0x4
    1b30:	6334                	ld	a3,64(a4)
    1b32:	746e                	ld	s0,248(sp)
    1b34:	0400                	addi	s0,sp,512
    1b36:	006e102b          	0x6e102b
    1b3a:	0000                	unimp
    1b3c:	0309                	addi	t1,t1,2
    1b3e:	4194                	lw	a3,0(a1)
    1b40:	8000                	0x8000
    1b42:	0000                	unimp
    1b44:	0000                	unimp
    1b46:	8150                	0x8150
    1b48:	0011                	c.nop	4
    1b4a:	0400                	addi	s0,sp,512
    1b4c:	0c2c                	addi	a1,sp,536
    1b4e:	00000037          	lui	zero,0x0
    1b52:	9102                	jalr	sp
    1b54:	0060                	addi	s0,sp,12
    1b56:	6f4e                	ld	t5,208(sp)
    1b58:	0012                	c.slli	zero,0x4
    1b5a:	0400                	addi	s0,sp,512
    1b5c:	0616                	slli	a2,a2,0x5
    1b5e:	0d71                	addi	s10,s10,28
    1b60:	0000                	unimp
    1b62:	00d4                	addi	a3,sp,68
    1b64:	8000                	0x8000
    1b66:	0000                	unimp
    1b68:	0000                	unimp
    1b6a:	0110                	addi	a2,sp,128
    1b6c:	0000                	unimp
    1b6e:	0000                	unimp
    1b70:	0000                	unimp
    1b72:	9c01                	subw	s0,s0,s0
    1b74:	1bfe                	slli	s7,s7,0x3f
    1b76:	0000                	unimp
    1b78:	6934                	ld	a3,80(a0)
    1b7a:	7172                	ld	sp,312(sp)
    1b7c:	0400                	addi	s0,sp,512
    1b7e:	006e0917          	auipc	s2,0x6e0
    1b82:	0000                	unimp
    1b84:	9102                	jalr	sp
    1b86:	5068                	lw	a0,100(s0)
    1b88:	082e                	slli	a6,a6,0xb
    1b8a:	0000                	unimp
    1b8c:	1904                	addi	s1,sp,176
    1b8e:	6e10                	ld	a2,24(a2)
    1b90:	0000                	unimp
    1b92:	0900                	addi	s0,sp,144
    1b94:	00419003          	lh	zero,4(gp)
    1b98:	0080                	addi	s0,sp,64
    1b9a:	0000                	unimp
    1b9c:	4f00                	lw	s0,24(a4)
    1b9e:	0120                	addi	s0,sp,136
    1ba0:	8000                	0x8000
    1ba2:	0000                	unimp
    1ba4:	0000                	unimp
    1ba6:	0084                	addi	s1,sp,64
    1ba8:	0000                	unimp
    1baa:	0000                	unimp
    1bac:	0000                	unimp
    1bae:	01280453          	fadd.s	fs0,fa6,fs2,rne
    1bb2:	02e6                	slli	t0,t0,0x19
    1bb4:	0000                	unimp
    1bb6:	6334                	ld	a3,64(a4)
    1bb8:	746e                	ld	s0,248(sp)
    1bba:	0400                	addi	s0,sp,512
    1bbc:	0d1d                	addi	s10,s10,7
    1bbe:	006e                	c.slli	zero,0x1b
    1bc0:	0000                	unimp
    1bc2:	9102                	jalr	sp
    1bc4:	556c                	lw	a1,108(a0)
    1bc6:	0148                	addi	a0,sp,132
    1bc8:	8000                	0x8000
    1bca:	0000                	unimp
    1bcc:	0000                	unimp
    1bce:	0028                	addi	a0,sp,8
    1bd0:	0000                	unimp
    1bd2:	0000                	unimp
    1bd4:	0000                	unimp
    1bd6:	00001bdb          	0x1bdb
    1bda:	6334                	ld	a3,64(a4)
    1bdc:	0400                	addi	s0,sp,512
    1bde:	121f 05b1 0000      	0x5b1121f
    1be4:	9102                	jalr	sp
    1be6:	16555167          	0x16555167
    1bea:	0000                	unimp
    1bec:	0158                	addi	a4,sp,132
    1bee:	8000                	0x8000
    1bf0:	0000                	unimp
    1bf2:	0000                	unimp
    1bf4:	0004                	0x4
    1bf6:	0000                	unimp
    1bf8:	0000                	unimp
    1bfa:	0000                	unimp
    1bfc:	1f04                	addi	s1,sp,944
    1bfe:	16715233          	0x16715233
    1c02:	0000                	unimp
    1c04:	9102                	jalr	sp
    1c06:	0050                	addi	a2,sp,4
    1c08:	5100                	lw	s0,32(a0)
    1c0a:	1684                	addi	s1,sp,864
    1c0c:	0000                	unimp
    1c0e:	0134                	addi	a3,sp,136
    1c10:	8000                	0x8000
    1c12:	0000                	unimp
    1c14:	0000                	unimp
    1c16:	0004                	0x4
    1c18:	0000                	unimp
    1c1a:	0000                	unimp
    1c1c:	0000                	unimp
    1c1e:	1e04                	addi	s1,sp,816
    1c20:	522a                	lw	tp,168(sp)
    1c22:	16a0                	addi	s0,sp,872
    1c24:	0000                	unimp
    1c26:	9102                	jalr	sp
    1c28:	0058                	addi	a4,sp,4
    1c2a:	0000                	unimp
    1c2c:	3f4e                	fld	ft10,240(sp)
    1c2e:	0014                	0x14
    1c30:	0400                	addi	s0,sp,512
    1c32:	0611                	addi	a2,a2,4
    1c34:	12a5                	addi	t0,t0,-23
    1c36:	0000                	unimp
    1c38:	007c                	addi	a5,sp,12
    1c3a:	8000                	0x8000
    1c3c:	0000                	unimp
    1c3e:	0000                	unimp
    1c40:	0058                	addi	a4,sp,4
    1c42:	0000                	unimp
    1c44:	0000                	unimp
    1c46:	0000                	unimp
    1c48:	9c01                	subw	s0,s0,s0
    1c4a:	1c60                	addi	s0,sp,572
    1c4c:	0000                	unimp
    1c4e:	71726957          	0x71726957
    1c52:	0400                	addi	s0,sp,512
    1c54:	1711                	addi	a4,a4,-28
    1c56:	006e                	c.slli	zero,0x1b
    1c58:	0000                	unimp
    1c5a:	9102                	jalr	sp
    1c5c:	505c                	lw	a5,36(s0)
    1c5e:	0ed6                	slli	t4,t4,0x15
    1c60:	0000                	unimp
    1c62:	1204                	addi	s1,sp,288
    1c64:	6e09                	lui	t3,0x2
    1c66:	0000                	unimp
    1c68:	0200                	addi	s0,sp,256
    1c6a:	6c91                	lui	s9,0x4
    1c6c:	2651                	addiw	a2,a2,20
    1c6e:	0016                	c.slli	zero,0x5
    1c70:	b400                	fsd	fs0,40(s0)
    1c72:	0000                	unimp
    1c74:	0080                	addi	s0,sp,64
    1c76:	0000                	unimp
    1c78:	0400                	addi	s0,sp,512
    1c7a:	0000                	unimp
    1c7c:	0000                	unimp
    1c7e:	0000                	unimp
    1c80:	0400                	addi	s0,sp,512
    1c82:	42522c13          	slti	s8,tp,1061
    1c86:	0016                	c.slli	zero,0x5
    1c88:	0200                	addi	s0,sp,256
    1c8a:	6091                	lui	ra,0x4
    1c8c:	0000                	unimp
    1c8e:	0a58                	addi	a4,sp,276
    1c90:	0006                	c.slli	zero,0x1
    1c92:	0400                	addi	s0,sp,512
    1c94:	050c                	addi	a1,sp,640
    1c96:	111f 0000 006e      	0x6e0000111f
    1c9c:	0000                	unimp
    1c9e:	0028                	addi	a0,sp,8
    1ca0:	8000                	0x8000
    1ca2:	0000                	unimp
    1ca4:	0000                	unimp
    1ca6:	0054                	addi	a3,sp,4
    1ca8:	0000                	unimp
    1caa:	0000                	unimp
    1cac:	0000                	unimp
    1cae:	9c01                	subw	s0,s0,s0
    1cb0:	1cc6                	slli	s9,s9,0x31
    1cb2:	0000                	unimp
    1cb4:	d650                	sw	a2,44(a2)
    1cb6:	000e                	c.slli	zero,0x3
    1cb8:	0400                	addi	s0,sp,512
    1cba:	090d                	addi	s2,s2,3
    1cbc:	006e                	c.slli	zero,0x1b
    1cbe:	0000                	unimp
    1cc0:	9102                	jalr	sp
    1cc2:	346c                	fld	fa1,232(s0)
    1cc4:	7269                	lui	tp,0xffffa
    1cc6:	0071                	c.nop	28
    1cc8:	0e04                	addi	s1,sp,784
    1cca:	6e09                	lui	t3,0x2
    1ccc:	0000                	unimp
    1cce:	0200                	addi	s0,sp,256
    1cd0:	6891                	lui	a7,0x4
    1cd2:	2651                	addiw	a2,a2,20
    1cd4:	0016                	c.slli	zero,0x5
    1cd6:	5800                	lw	s0,48(s0)
    1cd8:	0000                	unimp
    1cda:	0080                	addi	s0,sp,64
    1cdc:	0000                	unimp
    1cde:	0400                	addi	s0,sp,512
    1ce0:	0000                	unimp
    1ce2:	0000                	unimp
    1ce4:	0000                	unimp
    1ce6:	0400                	addi	s0,sp,512
    1ce8:	340e                	fld	fs0,224(sp)
    1cea:	4252                	lw	tp,20(sp)
    1cec:	0016                	c.slli	zero,0x5
    1cee:	0200                	addi	s0,sp,256
    1cf0:	6091                	lui	ra,0x4
    1cf2:	0000                	unimp
    1cf4:	8459                	srai	s0,s0,0x16
    1cf6:	1c00000b          	0x1c00000b
    1cfa:	0080000b          	0x80000b
    1cfe:	0000                	unimp
    1d00:	5000                	lw	s0,32(s0)
    1d02:	0000                	unimp
    1d04:	0000                	unimp
    1d06:	0000                	unimp
    1d08:	0100                	addi	s0,sp,128
    1d0a:	ef9c                	sd	a5,24(a5)
    1d0c:	001c                	0x1c
    1d0e:	5700                	lw	s0,40(a4)
    1d10:	a7030073          	0xa7030073
    1d14:	ab30                	fsd	fa2,80(a4)
    1d16:	0005                	c.nop	1
    1d18:	0200                	addi	s0,sp,256
    1d1a:	6891                	lui	a7,0x4
    1d1c:	5a00                	lw	s0,48(a2)
    1d1e:	0509                	addi	a0,a0,2
    1d20:	0000                	unimp
    1d22:	0ae0                	addi	s0,sp,348
    1d24:	8000                	0x8000
    1d26:	0000                	unimp
    1d28:	0000                	unimp
    1d2a:	003c                	addi	a5,sp,8
    1d2c:	0000                	unimp
    1d2e:	0000                	unimp
    1d30:	0000                	unimp
    1d32:	9c01                	subw	s0,s0,s0
    1d34:	1d1a                	slli	s10,s10,0x26
    1d36:	0000                	unimp
    1d38:	000ed65b          	0xed65b
    1d3c:	0200                	addi	s0,sp,256
    1d3e:	295a                	fld	fs2,400(sp)
    1d40:	006e                	c.slli	zero,0x1b
    1d42:	0000                	unimp
    1d44:	9102                	jalr	sp
    1d46:	006c                	addi	a1,sp,12
    1d48:	825a                	mv	tp,s6
    1d4a:	0004                	0x4
    1d4c:	a000                	fsd	fs0,0(s0)
    1d4e:	000a                	c.slli	zero,0x2
    1d50:	0080                	addi	s0,sp,64
    1d52:	0000                	unimp
    1d54:	4000                	lw	s0,0(s0)
    1d56:	0000                	unimp
    1d58:	0000                	unimp
    1d5a:	0000                	unimp
    1d5c:	0100                	addi	s0,sp,128
    1d5e:	459c                	lw	a5,8(a1)
    1d60:	001d                	c.nop	7
    1d62:	5b00                	lw	s0,48(a4)
    1d64:	0ed6                	slli	t4,t4,0x15
    1d66:	0000                	unimp
    1d68:	5202                	lw	tp,32(sp)
    1d6a:	6e26                	ld	t3,72(sp)
    1d6c:	0000                	unimp
    1d6e:	0200                	addi	s0,sp,256
    1d70:	6c91                	lui	s9,0x4
    1d72:	5a00                	lw	s0,48(a2)
    1d74:	049c                	addi	a5,sp,576
    1d76:	0000                	unimp
    1d78:	0a64                	addi	s1,sp,284
    1d7a:	8000                	0x8000
    1d7c:	0000                	unimp
    1d7e:	0000                	unimp
    1d80:	003c                	addi	a5,sp,8
    1d82:	0000                	unimp
    1d84:	0000                	unimp
    1d86:	0000                	unimp
    1d88:	9c01                	subw	s0,s0,s0
    1d8a:	1d70                	addi	a2,sp,700
    1d8c:	0000                	unimp
    1d8e:	000ed65b          	0xed65b
    1d92:	0200                	addi	s0,sp,256
    1d94:	2a51                	addiw	s4,s4,20
    1d96:	006e                	c.slli	zero,0x1b
    1d98:	0000                	unimp
    1d9a:	9102                	jalr	sp
    1d9c:	006c                	addi	a1,sp,12
    1d9e:	b65a                	fsd	fs6,296(sp)
    1da0:	0004                	0x4
    1da2:	2800                	fld	fs0,16(s0)
    1da4:	000a                	c.slli	zero,0x2
    1da6:	0080                	addi	s0,sp,64
    1da8:	0000                	unimp
    1daa:	3c00                	fld	fs0,56(s0)
    1dac:	0000                	unimp
    1dae:	0000                	unimp
    1db0:	0000                	unimp
    1db2:	0100                	addi	s0,sp,128
    1db4:	9b9c                	0x9b9c
    1db6:	001d                	c.nop	7
    1db8:	5b00                	lw	s0,48(a4)
    1dba:	0ed6                	slli	t4,t4,0x15
    1dbc:	0000                	unimp
    1dbe:	5002                	0x5002
    1dc0:	00006e27          	0x6e27
    1dc4:	0200                	addi	s0,sp,256
    1dc6:	6c91                	lui	s9,0x4
    1dc8:	5900                	lw	s0,48(a0)
    1dca:	03c9                	addi	t2,t2,18
    1dcc:	0000                	unimp
    1dce:	09a4                	addi	s1,sp,216
    1dd0:	8000                	0x8000
    1dd2:	0000                	unimp
    1dd4:	0000                	unimp
    1dd6:	0084                	addi	s1,sp,64
    1dd8:	0000                	unimp
    1dda:	0000                	unimp
    1ddc:	0000                	unimp
    1dde:	9c01                	subw	s0,s0,s0
    1de0:	1e0a                	slli	t3,t3,0x22
    1de2:	0000                	unimp
    1de4:	02006357          	0x2006357
    1de8:	05b1233b          	0x5b1233b
    1dec:	0000                	unimp
    1dee:	9102                	jalr	sp
    1df0:	545f 16e2 0000      	0x16e2545f
    1df6:	09cc                	addi	a1,sp,212
    1df8:	8000                	0x8000
    1dfa:	0000                	unimp
    1dfc:	0000                	unimp
    1dfe:	0004                	0x4
    1e00:	0000                	unimp
    1e02:	0000                	unimp
    1e04:	0000                	unimp
    1e06:	3c02                	fld	fs8,32(sp)
    1e08:	001de827          	0x1de827
    1e0c:	5200                	lw	s0,32(a2)
    1e0e:	16fe                	slli	a3,a3,0x3f
    1e10:	0000                	unimp
    1e12:	9102                	jalr	sp
    1e14:	0068                	addi	a0,sp,12
    1e16:	b351                	j	1b9a <STACK_SIZE+0x179a>
    1e18:	0016                	c.slli	zero,0x5
    1e1a:	0400                	addi	s0,sp,512
    1e1c:	000a                	c.slli	zero,0x2
    1e1e:	0080                	addi	s0,sp,64
    1e20:	0000                	unimp
    1e22:	0400                	addi	s0,sp,512
    1e24:	0000                	unimp
    1e26:	0000                	unimp
    1e28:	0000                	unimp
    1e2a:	0200                	addi	s0,sp,256
    1e2c:	243d                	addiw	s0,s0,15
    1e2e:	cf52                	sw	s4,156(sp)
    1e30:	0016                	c.slli	zero,0x5
    1e32:	0200                	addi	s0,sp,256
    1e34:	6091                	lui	ra,0x4
    1e36:	0000                	unimp
    1e38:	ec59                	bnez	s0,1ed6 <STACK_SIZE+0x1ad6>
    1e3a:	28000003          	lb	zero,640(zero) # 280 <STACK_SIZE-0x180>
    1e3e:	0009                	c.nop	2
    1e40:	0080                	addi	s0,sp,64
    1e42:	0000                	unimp
    1e44:	7c00                	ld	s0,56(s0)
    1e46:	0000                	unimp
    1e48:	0000                	unimp
    1e4a:	0000                	unimp
    1e4c:	0100                	addi	s0,sp,128
    1e4e:	799c                	ld	a5,48(a1)
    1e50:	001e                	c.slli	zero,0x7
    1e52:	5700                	lw	s0,40(a4)
    1e54:	30020063          	beqz	tp,2154 <STACK_SIZE+0x1d54>
    1e58:	0005b123          	sd	zero,2(a1)
    1e5c:	0200                	addi	s0,sp,256
    1e5e:	5f91                	li	t6,-28
    1e60:	e254                	sd	a3,128(a2)
    1e62:	0016                	c.slli	zero,0x5
    1e64:	5000                	lw	s0,32(s0)
    1e66:	0009                	c.nop	2
    1e68:	0080                	addi	s0,sp,64
    1e6a:	0000                	unimp
    1e6c:	0400                	addi	s0,sp,512
    1e6e:	0000                	unimp
    1e70:	0000                	unimp
    1e72:	0000                	unimp
    1e74:	0200                	addi	s0,sp,256
    1e76:	2a31                	addiw	s4,s4,12
    1e78:	00001e57          	0x1e57
    1e7c:	fe52                	sd	s4,312(sp)
    1e7e:	0016                	c.slli	zero,0x5
    1e80:	0200                	addi	s0,sp,256
    1e82:	6891                	lui	a7,0x4
    1e84:	5100                	lw	s0,32(a0)
    1e86:	000016b3          	sll	a3,zero,zero
    1e8a:	0984                	addi	s1,sp,208
    1e8c:	8000                	0x8000
    1e8e:	0000                	unimp
    1e90:	0000                	unimp
    1e92:	0004                	0x4
    1e94:	0000                	unimp
    1e96:	0000                	unimp
    1e98:	0000                	unimp
    1e9a:	3202                	fld	ft4,32(sp)
    1e9c:	5224                	lw	s1,96(a2)
    1e9e:	000016cf          	fnmadd.s	fa3,ft0,ft0,ft0,rtz
    1ea2:	9102                	jalr	sp
    1ea4:	0060                	addi	s0,sp,12
    1ea6:	5a00                	lw	s0,48(a2)
    1ea8:	000003ff          	radd16	t2,zero,zero
    1eac:	08f4                	addi	a3,sp,92
    1eae:	8000                	0x8000
    1eb0:	0000                	unimp
    1eb2:	0000                	unimp
    1eb4:	0034                	addi	a3,sp,8
    1eb6:	0000                	unimp
    1eb8:	0000                	unimp
    1eba:	0000                	unimp
    1ebc:	9c01                	subw	s0,s0,s0
    1ebe:	1ea2                	slli	t4,t4,0x28
    1ec0:	0000                	unimp
    1ec2:	02007257          	0x2007257
    1ec6:	2326                	fld	ft6,72(sp)
    1ec8:	0000030f          	0x30f
    1ecc:	9102                	jalr	sp
    1ece:	006c                	addi	a1,sp,12
    1ed0:	955a                	add	a0,a0,s6
    1ed2:	0002                	c.slli64	zero
    1ed4:	cc00                	sw	s0,24(s0)
    1ed6:	0008                	0x8
    1ed8:	0080                	addi	s0,sp,64
    1eda:	0000                	unimp
    1edc:	2800                	fld	fs0,16(s0)
    1ede:	0000                	unimp
    1ee0:	0000                	unimp
    1ee2:	0000                	unimp
    1ee4:	0100                	addi	s0,sp,128
    1ee6:	cc9c                	sw	a5,24(s1)
    1ee8:	001e                	c.slli	zero,0x7
    1eea:	3400                	fld	fs0,40(s0)
    1eec:	7472                	ld	s0,312(sp)
    1eee:	0100                	addi	s0,sp,128
    1ef0:	006e0d43          	fmadd.s	fs10,ft8,ft6,ft0,rne
    1ef4:	0000                	unimp
    1ef6:	9102                	jalr	sp
    1ef8:	006c                	addi	a1,sp,12
    1efa:	205c                	fld	fa5,128(s0)
    1efc:	0002                	c.slli64	zero
    1efe:	a000                	fsd	fs0,0(s0)
    1f00:	0008                	0x8
    1f02:	0080                	addi	s0,sp,64
    1f04:	0000                	unimp
    1f06:	2c00                	fld	fs0,24(s0)
    1f08:	0000                	unimp
    1f0a:	0000                	unimp
    1f0c:	0000                	unimp
    1f0e:	0100                	addi	s0,sp,128
    1f10:	5b9c                	lw	a5,48(a5)
    1f12:	0052                	c.slli	zero,0x14
    1f14:	0000                	unimp
    1f16:	3001                	0x3001
    1f18:	0000372b          	0x372b
    1f1c:	0200                	addi	s0,sp,256
    1f1e:	6891                	lui	a7,0x4
    1f20:	0000                	unimp
    1f22:	0a30                	addi	a2,sp,280
    1f24:	0000                	unimp
    1f26:	0004                	0x4
    1f28:	061a                	slli	a2,a2,0x6
    1f2a:	0000                	unimp
    1f2c:	0108                	addi	a0,sp,128
    1f2e:	0fa8                	addi	a0,sp,984
    1f30:	0000                	unimp
    1f32:	8904                	0x8904
    1f34:	08000017          	auipc	zero,0x8000
    1f38:	0000                	unimp
    1f3a:	6c00                	ld	s0,24(s0)
    1f3c:	0080000b          	0x80000b
    1f40:	0000                	unimp
    1f42:	9000                	0x9000
    1f44:	000c                	0xc
    1f46:	0000                	unimp
    1f48:	0000                	unimp
    1f4a:	4f00                	lw	s0,24(a4)
    1f4c:	0009                	c.nop	2
    1f4e:	0200                	addi	s0,sp,256
    1f50:	0308                	addi	a0,sp,384
    1f52:	0708                	addi	a0,sp,896
    1f54:	000011a7          	0x11a7
    1f58:	ac070403          	lb	s0,-1344(a4) # ffffffffffff7ac0 <_ZL7out_buf+0xffffffff7fff3898>
    1f5c:	0011                	c.nop	4
    1f5e:	0300                	addi	s0,sp,384
    1f60:	0801                	addi	a6,a6,0
    1f62:	000012b7          	lui	t0,0x1
    1f66:	3d04                	fld	fs1,56(a0)
    1f68:	0000                	unimp
    1f6a:	0500                	addi	s0,sp,640
    1f6c:	0504                	addi	s1,sp,640
    1f6e:	6e69                	lui	t3,0x1a
    1f70:	0074                	addi	a3,sp,12
    1f72:	4904                	lw	s1,16(a0)
    1f74:	0000                	unimp
    1f76:	0300                	addi	s0,sp,384
    1f78:	0508                	addi	a0,sp,640
    1f7a:	0b06                	slli	s6,s6,0x1
    1f7c:	0000                	unimp
    1f7e:	5504                	lw	s1,40(a0)
    1f80:	0000                	unimp
    1f82:	0600                	addi	s0,sp,768
    1f84:	0684                	addi	s1,sp,832
    1f86:	0000                	unimp
    1f88:	d102                	sw	zero,160(sp)
    1f8a:	00002f17          	auipc	t5,0x2
    1f8e:	0300                	addi	s0,sp,384
    1f90:	0508                	addi	a0,sp,640
    1f92:	0b01                	addi	s6,s6,0
    1f94:	0000                	unimp
    1f96:	72041003          	lh	zero,1824(s0)
    1f9a:	000e                	c.slli	zero,0x3
    1f9c:	0700                	addi	s0,sp,896
    1f9e:	1324                	addi	s1,sp,424
    1fa0:	0000                	unimp
    1fa2:	7a06                	ld	s4,96(sp)
    1fa4:	03000017          	auipc	zero,0x3000
    1fa8:	1b28                	addi	a0,sp,440
    1faa:	008c                	addi	a1,sp,64
    1fac:	0000                	unimp
    1fae:	0808                	addi	a0,sp,16
    1fb0:	1761                	addi	a4,a4,-8
    1fb2:	0000                	unimp
    1fb4:	8106                	mv	sp,ra
    1fb6:	03000017          	auipc	zero,0x3000
    1fba:	00801863          	bne	zero,s0,1fca <STACK_SIZE+0x1bca>
    1fbe:	0000                	unimp
    1fc0:	b9060103          	lb	sp,-1136(a2) # fffffffffffe1b90 <_ZL7out_buf+0xffffffff7ffdd968>
    1fc4:	0012                	c.slli	zero,0x4
    1fc6:	0300                	addi	s0,sp,384
    1fc8:	0502                	c.slli64	a0
    1fca:	103a                	c.slli	zero,0x2e
    1fcc:	0000                	unimp
    1fce:	55070203          	lb	tp,1360(a4)
    1fd2:	0014                	0x14
    1fd4:	0900                	addi	s0,sp,144
    1fd6:	0000020b          	0x20b
    1fda:	1304                	addi	s1,sp,416
    1fdc:	0001cd0b          	0x1cd0b
    1fe0:	0900                	addi	s0,sp,144
    1fe2:	1439                	addi	s0,s0,-18
    1fe4:	0000                	unimp
    1fe6:	1404                	addi	s1,sp,544
    1fe8:	0000e90f          	0xe90f
    1fec:	0a00                	addi	s0,sp,272
    1fee:	7269                	lui	tp,0xffffa
    1ff0:	0071                	c.nop	28
    1ff2:	1604                	addi	s1,sp,800
    1ff4:	5018                	lw	a4,32(s0)
    1ff6:	0000                	unimp
    1ff8:	0a00                	addi	s0,sp,272
    1ffa:	0004d90b          	0x4d90b
    1ffe:	0400                	addi	s0,sp,512
    2000:	005c1817          	auipc	a6,0x5c1
    2004:	0000                	unimp
    2006:	0000                	unimp
    2008:	1000                	addi	s0,sp,32
    200a:	0900                	addi	s0,sp,144
    200c:	0035                	c.nop	13
    200e:	0000                	unimp
    2010:	4704                	lw	s1,8(a4)
    2012:	0001560f          	0x1560f
    2016:	0b00                	addi	s0,sp,400
    2018:	04d9                	addi	s1,s1,22
    201a:	0000                	unimp
    201c:	4904                	lw	s1,16(a0)
    201e:	5c18                	lw	a4,56(s0)
    2020:	0000                	unimp
    2022:	0000                	unimp
    2024:	0000                	unimp
    2026:	0b0c                	addi	a1,sp,400
    2028:	10df 0000 4a04      	0x4a04000010df
    202e:	5c0d                	li	s8,-29
    2030:	0000                	unimp
    2032:	0000                	unimp
    2034:	0000                	unimp
    2036:	0b0c                	addi	a1,sp,400
    2038:	07f9                	addi	a5,a5,30
    203a:	0000                	unimp
    203c:	4b04                	lw	s1,16(a4)
    203e:	5c0d                	li	s8,-29
    2040:	0000                	unimp
    2042:	0000                	unimp
    2044:	0010                	0x10
    2046:	0b0c                	addi	a1,sp,400
    2048:	05ed                	addi	a1,a1,27
    204a:	0000                	unimp
    204c:	4c04                	lw	s1,24(s0)
    204e:	5c0d                	li	s8,-29
    2050:	0000                	unimp
    2052:	0000                	unimp
    2054:	0020                	addi	s0,sp,8
    2056:	0b0c                	addi	a1,sp,400
    2058:	000013eb          	0x13eb
    205c:	4d04                	lw	s1,24(a0)
    205e:	5c0d                	li	s8,-29
    2060:	0000                	unimp
    2062:	0000                	unimp
    2064:	2000                	fld	fs0,0(s0)
    2066:	0b0c                	addi	a1,sp,400
    2068:	04e9                	addi	s1,s1,26
    206a:	0000                	unimp
    206c:	4e04                	lw	s1,24(a2)
    206e:	5c0d                	li	s8,-29
    2070:	0000                	unimp
    2072:	0400                	addi	s0,sp,512
    2074:	2000                	fld	fs0,0(s0)
    2076:	000c                	0xc
    2078:	1409                	addi	s0,s0,-30
    207a:	0011                	c.nop	4
    207c:	0400                	addi	s0,sp,512
    207e:	0f54                	addi	a3,sp,916
    2080:	00000193          	li	gp,0
    2084:	0004d90b          	0x4d90b
    2088:	0400                	addi	s0,sp,512
    208a:	1856                	slli	a6,a6,0x35
    208c:	005c                	addi	a5,sp,4
    208e:	0000                	unimp
    2090:	0000                	unimp
    2092:	0200                	addi	s0,sp,256
    2094:	0011800b          	0x11800b
    2098:	0400                	addi	s0,sp,512
    209a:	005c0d57          	0x5c0d57
    209e:	0000                	unimp
    20a0:	bff8                	fsd	fa4,248(a5)
    20a2:	0200                	addi	s0,sp,256
    20a4:	0001500b          	0x1500b
    20a8:	0400                	addi	s0,sp,512
    20aa:	0d58                	addi	a4,sp,660
    20ac:	005c                	addi	a5,sp,4
    20ae:	0000                	unimp
    20b0:	4000                	lw	s0,0(s0)
    20b2:	0200                	addi	s0,sp,256
    20b4:	0c00                	addi	s0,sp,528
    20b6:	6172                	ld	sp,280(sp)
    20b8:	006d                	c.nop	27
    20ba:	5d04                	lw	s1,56(a0)
    20bc:	11480b0f          	0x11480b0f
    20c0:	0000                	unimp
    20c2:	5f04                	lw	s1,56(a4)
    20c4:	5c18                	lw	a4,56(s0)
    20c6:	0000                	unimp
    20c8:	0000                	unimp
    20ca:	0000                	unimp
    20cc:	0b80                	addi	s0,sp,464
    20ce:	0ed1                	addi	t4,t4,20
    20d0:	0000                	unimp
    20d2:	6004                	ld	s1,0(s0)
    20d4:	5c0d                	li	s8,-29
    20d6:	0000                	unimp
    20d8:	0000                	unimp
    20da:	0000                	unimp
    20dc:	0d08                	addi	a0,sp,656
    20de:	6e65                	lui	t3,0x19
    20e0:	0064                	addi	s1,sp,12
    20e2:	6104                	ld	s1,0(a0)
    20e4:	5c0d                	li	s8,-29
    20e6:	0000                	unimp
    20e8:	0000                	unimp
    20ea:	0000                	unimp
    20ec:	0088                	addi	a0,sp,64
    20ee:	0e00                	addi	s0,sp,784
    20f0:	000000cb          	fnmsub.s	ft1,ft0,ft0,ft0,rne
    20f4:	d80e                	sw	gp,48(sp)
    20f6:	0000                	unimp
    20f8:	0e00                	addi	s0,sp,784
    20fa:	00f5                	addi	ra,ra,29
    20fc:	0000                	unimp
    20fe:	050e                	slli	a0,a0,0x3
    2100:	0001                	nop
    2102:	0e00                	addi	s0,sp,784
    2104:	0115                	addi	sp,sp,5
    2106:	0000                	unimp
    2108:	250e                	fld	fa0,192(sp)
    210a:	0001                	nop
    210c:	0e00                	addi	s0,sp,784
    210e:	0135                	addi	sp,sp,13
    2110:	0000                	unimp
    2112:	450e                	lw	a0,192(sp)
    2114:	0001                	nop
    2116:	0e00                	addi	s0,sp,784
    2118:	0162                	slli	sp,sp,0x18
    211a:	0000                	unimp
    211c:	720e                	ld	tp,224(sp)
    211e:	0001                	nop
    2120:	0e00                	addi	s0,sp,784
    2122:	0182                	c.slli64	gp
    2124:	0000                	unimp
    2126:	9b0e                	add	s6,s6,gp
    2128:	0001                	nop
    212a:	0e00                	addi	s0,sp,784
    212c:	000001ab          	0x1ab
    2130:	bb0e                	fsd	ft3,432(sp)
    2132:	0001                	nop
    2134:	0900                	addi	s0,sp,144
    2136:	028e                	slli	t0,t0,0x3
    2138:	0000                	unimp
    213a:	0805                	addi	a6,a6,1
    213c:	0003180b          	0x3180b
    2140:	0f00                	addi	s0,sp,912
    2142:	15d6                	slli	a1,a1,0x35
    2144:	0000                	unimp
    2146:	0590                	addi	a2,sp,704
    2148:	5810081b          	addiw	a6,zero,1409
    214c:	0006                	c.slli	zero,0x1
    214e:	0500                	addi	s0,sp,640
    2150:	041d                	addi	s0,s0,7
    2152:	0318                	addi	a4,sp,384
    2154:	0000                	unimp
    2156:	1000                	addi	s0,sp,32
    2158:	0206                	slli	tp,tp,0x1
    215a:	0000                	unimp
    215c:	1e05                	addi	t3,t3,-31
    215e:	6109                	addi	sp,sp,128
    2160:	0000                	unimp
    2162:	8000                	0x8000
    2164:	4a10                	lw	a2,16(a2)
    2166:	0006                	c.slli	zero,0x1
    2168:	0500                	addi	s0,sp,640
    216a:	0e1e                	slli	t3,t3,0x7
    216c:	0061                	c.nop	24
    216e:	0000                	unimp
    2170:	1188                	addi	a0,sp,224
    2172:	01de                	slli	gp,gp,0x17
    2174:	0000                	unimp
    2176:	1f05                	addi	t5,t5,-31
    2178:	c516                	sw	t0,136(sp)
    217a:	0012                	c.slli	zero,0x4
    217c:	6100                	ld	s0,0(a0)
    217e:	0000                	unimp
    2180:	6700                	ld	s0,8(a4)
    2182:	0002                	c.slli64	zero
    2184:	7200                	ld	s0,32(a2)
    2186:	0002                	c.slli64	zero
    2188:	1200                	addi	s0,sp,288
    218a:	0334                	addi	a3,sp,392
    218c:	0000                	unimp
    218e:	00006113          	ori	sp,zero,0
    2192:	0000                	unimp
    2194:	7014                	ld	a3,32(s0)
    2196:	7475                	lui	s0,0xffffd
    2198:	0500                	addi	s0,sp,640
    219a:	0e20                	addi	s0,sp,792
    219c:	0459                	addi	s0,s0,22
    219e:	0000                	unimp
    21a0:	0286                	slli	t0,t0,0x1
    21a2:	0000                	unimp
    21a4:	0291                	addi	t0,t0,4
    21a6:	0000                	unimp
    21a8:	3412                	fld	fs0,288(sp)
    21aa:	13000003          	lb	zero,304(zero) # 130 <STACK_SIZE-0x2d0>
    21ae:	0328                	addi	a0,sp,392
    21b0:	0000                	unimp
    21b2:	1400                	addi	s0,sp,544
    21b4:	6f70                	ld	a2,216(a4)
    21b6:	0070                	addi	a2,sp,12
    21b8:	2405                	addiw	s0,s0,1
    21ba:	530e                	lw	t1,224(sp)
    21bc:	a5000003          	lb	zero,-1456(zero) # fffffffffffffa50 <_ZL7out_buf+0xffffffff7fffb828>
    21c0:	0002                	c.slli64	zero
    21c2:	ab00                	fsd	fs0,16(a4)
    21c4:	0002                	c.slli64	zero
    21c6:	1200                	addi	s0,sp,288
    21c8:	0334                	addi	a3,sp,392
    21ca:	0000                	unimp
    21cc:	1500                	addi	s0,sp,672
    21ce:	00746567          	0x746567
    21d2:	2705                	addiw	a4,a4,1
    21d4:	0002930b          	0x2930b
    21d8:	2800                	fld	fs0,16(s0)
    21da:	c3000003          	lb	zero,-976(zero) # fffffffffffffc30 <_ZL7out_buf+0xffffffff7fffba08>
    21de:	0002                	c.slli64	zero
    21e0:	c900                	sw	s0,16(a0)
    21e2:	0002                	c.slli64	zero
    21e4:	1200                	addi	s0,sp,288
    21e6:	0334                	addi	a3,sp,392
    21e8:	0000                	unimp
    21ea:	1100                	addi	s0,sp,160
    21ec:	11b9                	addi	gp,gp,-18
    21ee:	0000                	unimp
    21f0:	2a05                	addiw	s4,s4,1
    21f2:	0c0e                	slli	s8,s8,0x3
    21f4:	000e                	c.slli	zero,0x3
    21f6:	3a00                	fld	fs0,48(a2)
    21f8:	e1000003          	lb	zero,-496(zero) # fffffffffffffe10 <_ZL7out_buf+0xffffffff7fffbbe8>
    21fc:	0002                	c.slli64	zero
    21fe:	e700                	sd	s0,8(a4)
    2200:	0002                	c.slli64	zero
    2202:	1200                	addi	s0,sp,288
    2204:	0334                	addi	a3,sp,392
    2206:	0000                	unimp
    2208:	1100                	addi	s0,sp,160
    220a:	004d                	c.nop	19
    220c:	0000                	unimp
    220e:	2d05                	addiw	s10,s10,1
    2210:	0008410f          	0x8410f
    2214:	3a00                	fld	fs0,48(a2)
    2216:	ff000003          	lb	zero,-16(zero) # fffffffffffffff0 <_ZL7out_buf+0xffffffff7fffbdc8>
    221a:	0002                	c.slli64	zero
    221c:	0500                	addi	s0,sp,640
    221e:	12000003          	lb	zero,288(zero) # 120 <STACK_SIZE-0x2e0>
    2222:	0334                	addi	a3,sp,392
    2224:	0000                	unimp
    2226:	1600                	addi	s0,sp,800
    2228:	0054                	addi	a3,sp,4
    222a:	0328                	addi	a0,sp,392
    222c:	0000                	unimp
    222e:	000ecd17          	auipc	s10,0xec
    2232:	2f00                	fld	fs0,24(a4)
    2234:	0000                	unimp
    2236:	8000                	0x8000
    2238:	0000                	unimp
    223a:	2818                	fld	fa4,16(s0)
    223c:	28000003          	lb	zero,640(zero) # 280 <STACK_SIZE-0x180>
    2240:	19000003          	lb	zero,400(zero) # 190 <STACK_SIZE-0x270>
    2244:	0000002f          	0x2f
    2248:	0103007f          	radd16	zero,t1,a6
    224c:	c008                	sw	a0,0(s0)
    224e:	0012                	c.slli	zero,0x4
    2250:	0400                	addi	s0,sp,512
    2252:	0328                	addi	a0,sp,392
    2254:	0000                	unimp
    2256:	081a                	slli	a6,a6,0x6
    2258:	021f 0000 0103      	0x1030000021f
    225e:	1a02                	slli	s4,s4,0x20
    2260:	0011                	c.nop	4
    2262:	1b00                	addi	s0,sp,432
    2264:	7562                	ld	a0,56(sp)
    2266:	0066                	c.slli	zero,0x19
    2268:	a305                	j	2788 <STACK_SIZE+0x2388>
    226a:	1f1c                	addi	a5,sp,944
    226c:	0002                	c.slli64	zero
    226e:	0900                	addi	s0,sp,144
    2270:	00419803          	lh	a6,4(gp)
    2274:	0080                	addi	s0,sp,64
    2276:	0000                	unimp
    2278:	1a00                	addi	s0,sp,304
    227a:	2f08                	fld	fa0,24(a4)
    227c:	1c000003          	lb	zero,448(zero) # 1c0 <STACK_SIZE-0x240>
    2280:	0368                	addi	a0,sp,396
    2282:	0000                	unimp
    2284:	00035713          	srli	a4,t1,0x0
    2288:	0000                	unimp
    228a:	621d                	lui	tp,0x7
    228c:	0600000b          	0x600000b
    2290:	0f1c                	addi	a5,sp,912
    2292:	0374                	addi	a3,sp,396
    2294:	0000                	unimp
    2296:	081a                	slli	a6,a6,0x6
    2298:	035d                	addi	t1,t1,23
    229a:	0000                	unimp
    229c:	681e                	ld	a6,448(sp)
    229e:	01000003          	lb	zero,16(zero) # 10 <STACK_SIZE-0x3f0>
    22a2:	0805                	addi	a6,a6,1
    22a4:	0309                	addi	t1,t1,2
    22a6:	4008                	lw	a0,0(s0)
    22a8:	8000                	0x8000
    22aa:	0000                	unimp
    22ac:	0000                	unimp
    22ae:	2818                	fld	fa4,16(s0)
    22b0:	9d000003          	lb	zero,-1584(zero) # fffffffffffff9d0 <_ZL7out_buf+0xffffffff7fffb7a8>
    22b4:	1f000003          	lb	zero,496(zero) # 1f0 <STACK_SIZE-0x210>
    22b8:	0000002f          	0x2f
    22bc:	200003e7          	jalr	t2,512(zero) # 0 <STACK_SIZE-0x400>
    22c0:	1746                	slli	a4,a4,0x31
    22c2:	0000                	unimp
    22c4:	7101                	addi	sp,sp,-512
    22c6:	8c0d                	sub	s0,s0,a1
    22c8:	09000003          	lb	zero,144(zero) # 90 <STACK_SIZE-0x370>
    22cc:	00422803          	lw	a6,4(tp) # 7004 <STACK_SIZE+0x6c04>
    22d0:	0080                	addi	s0,sp,64
    22d2:	0000                	unimp
    22d4:	2100                	fld	fs0,0(a0)
    22d6:	171d                	addi	a4,a4,-25
    22d8:	0000                	unimp
    22da:	d601                	beqz	a2,21e2 <STACK_SIZE+0x1de2>
    22dc:	4905                	li	s2,1
    22de:	0000                	unimp
    22e0:	2c00                	fld	fs0,24(s0)
    22e2:	00800017          	auipc	zero,0x800
    22e6:	0000                	unimp
    22e8:	d000                	sw	s0,32(s0)
    22ea:	0000                	unimp
    22ec:	0000                	unimp
    22ee:	0000                	unimp
    22f0:	0100                	addi	s0,sp,128
    22f2:	299c                	fld	fa5,16(a1)
    22f4:	0004                	0x4
    22f6:	2200                	fld	fs0,0(a2)
    22f8:	01003173          	csrrc	sp,0x10,zero
    22fc:	18d6                	slli	a7,a7,0x35
    22fe:	0429                	addi	s0,s0,10
    2300:	0000                	unimp
    2302:	9102                	jalr	sp
    2304:	2248                	fld	fa0,128(a2)
    2306:	01003273          	csrrc	tp,0x10,zero
    230a:	28d6                	fld	fa7,336(sp)
    230c:	0429                	addi	s0,s0,10
    230e:	0000                	unimp
    2310:	9102                	jalr	sp
    2312:	2240                	fld	fs0,128(a2)
    2314:	006e                	c.slli	zero,0x1b
    2316:	d601                	beqz	a2,221e <STACK_SIZE+0x1e1e>
    2318:	00006133          	or	sp,zero,zero
    231c:	0300                	addi	s0,sp,384
    231e:	b891                	j	1b72 <STACK_SIZE+0x1772>
    2320:	6e631b7f          	kslraw	s6,t1,t1
    2324:	0074                	addi	a3,sp,12
    2326:	d701                	beqz	a4,222e <STACK_SIZE+0x1e2e>
    2328:	610a                	ld	sp,128(sp)
    232a:	0000                	unimp
    232c:	0200                	addi	s0,sp,256
    232e:	6891                	lui	a7,0x4
    2330:	0100691b          	0x100691b
    2334:	18d8                	addi	a4,sp,116
    2336:	0430                	addi	a2,sp,520
    2338:	0000                	unimp
    233a:	9102                	jalr	sp
    233c:	1b60                	addi	s0,sp,444
    233e:	006a                	c.slli	zero,0x1a
    2340:	d801                	beqz	s0,2250 <STACK_SIZE+0x1e50>
    2342:	3035                	0x3035
    2344:	0004                	0x4
    2346:	0200                	addi	s0,sp,256
    2348:	5891                	li	a7,-28
    234a:	1a00                	addi	s0,sp,304
    234c:	2f08                	fld	fa0,24(a4)
    234e:	0004                	0x4
    2350:	2300                	fld	fs0,0(a4)
    2352:	081a                	slli	a6,a6,0x6
    2354:	0044                	addi	s1,sp,4
    2356:	0000                	unimp
    2358:	0621                	addi	a2,a2,8
    235a:	01000017          	auipc	zero,0x1000
    235e:	002d07cf          	fnmadd.s	fa5,fs10,ft2,ft0,rne
    2362:	0000                	unimp
    2364:	16ac                	addi	a1,sp,872
    2366:	8000                	0x8000
    2368:	0000                	unimp
    236a:	0000                	unimp
    236c:	0080                	addi	s0,sp,64
    236e:	0000                	unimp
    2370:	0000                	unimp
    2372:	0000                	unimp
    2374:	9c01                	subw	s0,s0,s0
    2376:	049d                	addi	s1,s1,7
    2378:	0000                	unimp
    237a:	6f22                	ld	t5,8(sp)
    237c:	7475                	lui	s0,0xffffd
    237e:	0100                	addi	s0,sp,128
    2380:	002d14cf          	fnmadd.s	fs1,fs10,ft2,ft0,rtz
    2384:	0000                	unimp
    2386:	9102                	jalr	sp
    2388:	2258                	fld	fa4,128(a2)
    238a:	6e69                	lui	t3,0x1a
    238c:	0100                	addi	s0,sp,128
    238e:	042925cf          	0x42925cf
    2392:	0000                	unimp
    2394:	9102                	jalr	sp
    2396:	2250                	fld	fa2,128(a2)
    2398:	006e                	c.slli	zero,0x1b
    239a:	cf01                	beqz	a4,23b2 <STACK_SIZE+0x1fb2>
    239c:	6130                	ld	a2,64(a0)
    239e:	0000                	unimp
    23a0:	0200                	addi	s0,sp,256
    23a2:	4891                	li	a7,4
    23a4:	0100691b          	0x100691b
    23a8:	0fd0                	addi	a2,sp,980
    23aa:	00000357          	0x357
    23ae:	9102                	jalr	sp
    23b0:	1b68                	addi	a0,sp,444
    23b2:	006a                	c.slli	zero,0x1a
    23b4:	d101                	beqz	a0,22b4 <STACK_SIZE+0x1eb4>
    23b6:	9d09                	subw	a0,a0,a0
    23b8:	0004                	0x4
    23ba:	0200                	addi	s0,sp,256
    23bc:	6091                	lui	ra,0x4
    23be:	1a00                	addi	s0,sp,304
    23c0:	2808                	fld	fa0,16(s0)
    23c2:	21000003          	lb	zero,528(zero) # 210 <STACK_SIZE-0x1f0>
    23c6:	173e                	slli	a4,a4,0x2f
    23c8:	0000                	unimp
    23ca:	c701                	beqz	a4,23d2 <STACK_SIZE+0x1fd2>
    23cc:	00002d07          	flw	fs10,0(zero) # 0 <STACK_SIZE-0x400>
    23d0:	1000                	addi	s0,sp,32
    23d2:	0016                	c.slli	zero,0x5
    23d4:	0080                	addi	s0,sp,64
    23d6:	0000                	unimp
    23d8:	9c00                	0x9c00
    23da:	0000                	unimp
    23dc:	0000                	unimp
    23de:	0000                	unimp
    23e0:	0100                	addi	s0,sp,128
    23e2:	0b9c                	addi	a5,sp,464
    23e4:	0005                	c.nop	1
    23e6:	2200                	fld	fs0,0(a2)
    23e8:	7364                	ld	s1,224(a4)
    23ea:	0074                	addi	a3,sp,12
    23ec:	c701                	beqz	a4,23f4 <STACK_SIZE+0x1ff4>
    23ee:	2d15                	addiw	s10,s10,5
    23f0:	0000                	unimp
    23f2:	0200                	addi	s0,sp,256
    23f4:	5891                	li	a7,-28
    23f6:	7322                	ld	t1,40(sp)
    23f8:	6372                	ld	t1,280(sp)
    23fa:	0100                	addi	s0,sp,128
    23fc:	042926c7          	0x42926c7
    2400:	0000                	unimp
    2402:	9102                	jalr	sp
    2404:	2250                	fld	fa2,128(a2)
    2406:	006e                	c.slli	zero,0x1b
    2408:	c701                	beqz	a4,2410 <STACK_SIZE+0x2010>
    240a:	6132                	ld	sp,264(sp)
    240c:	0000                	unimp
    240e:	0200                	addi	s0,sp,256
    2410:	4891                	li	a7,4
    2412:	0100691b          	0x100691b
    2416:	0fc9                	addi	t6,t6,18
    2418:	00000357          	0x357
    241c:	9102                	jalr	sp
    241e:	1b68                	addi	a0,sp,444
    2420:	006a                	c.slli	zero,0x1a
    2422:	ca01                	beqz	a2,2432 <STACK_SIZE+0x2032>
    2424:	9d09                	subw	a0,a0,a0
    2426:	0004                	0x4
    2428:	0200                	addi	s0,sp,256
    242a:	6091                	lui	ra,0x4
    242c:	2100                	fld	fs0,0(a0)
    242e:	1724                	addi	s1,sp,936
    2430:	0000                	unimp
    2432:	c201                	beqz	a2,2432 <STACK_SIZE+0x2032>
    2434:	00002d07          	flw	fs10,0(zero) # 0 <STACK_SIZE-0x400>
    2438:	a000                	fsd	fs0,0(s0)
    243a:	0015                	c.nop	5
    243c:	0080                	addi	s0,sp,64
    243e:	0000                	unimp
    2440:	7000                	ld	s0,32(s0)
    2442:	0000                	unimp
    2444:	0000                	unimp
    2446:	0000                	unimp
    2448:	0100                	addi	s0,sp,128
    244a:	749c                	ld	a5,40(s1)
    244c:	0005                	c.nop	1
    244e:	2200                	fld	fs0,0(a2)
    2450:	c2010073          	0xc2010073
    2454:	2d14                	fld	fa3,24(a0)
    2456:	0000                	unimp
    2458:	0200                	addi	s0,sp,256
    245a:	5891                	li	a7,-28
    245c:	6322                	ld	t1,8(sp)
    245e:	0100                	addi	s0,sp,128
    2460:	1bc2                	slli	s7,s7,0x30
    2462:	0049                	c.nop	18
    2464:	0000                	unimp
    2466:	9102                	jalr	sp
    2468:	2254                	fld	fa3,128(a2)
    246a:	006e                	c.slli	zero,0x1b
    246c:	c201                	beqz	a2,246c <STACK_SIZE+0x206c>
    246e:	6125                	addi	sp,sp,96
    2470:	0000                	unimp
    2472:	0200                	addi	s0,sp,256
    2474:	4891                	li	a7,4
    2476:	bc24                	fsd	fs1,120(s0)
    2478:	0015                	c.nop	5
    247a:	0080                	addi	s0,sp,64
    247c:	0000                	unimp
    247e:	4000                	lw	s0,0(s0)
    2480:	0000                	unimp
    2482:	0000                	unimp
    2484:	0000                	unimp
    2486:	1b00                	addi	s0,sp,432
    2488:	0062                	c.slli	zero,0x18
    248a:	c301                	beqz	a4,248a <STACK_SIZE+0x208a>
    248c:	9d0d                	subw	a0,a0,a1
    248e:	0004                	0x4
    2490:	0200                	addi	s0,sp,256
    2492:	6891                	lui	a7,0x4
    2494:	0000                	unimp
    2496:	ab21                	j	29ae <STACK_SIZE+0x25ae>
    2498:	01000017          	auipc	zero,0x1000
    249c:	05b9                	addi	a1,a1,14
    249e:	0049                	c.nop	18
    24a0:	0000                	unimp
    24a2:	14e0                	addi	s0,sp,620
    24a4:	8000                	0x8000
    24a6:	0000                	unimp
    24a8:	0000                	unimp
    24aa:	00c0                	addi	s0,sp,68
    24ac:	0000                	unimp
    24ae:	0000                	unimp
    24b0:	0000                	unimp
    24b2:	9c01                	subw	s0,s0,s0
    24b4:	000005cf          	fnmadd.s	fa1,ft0,ft0,ft0,rne
    24b8:	7322                	ld	t1,40(sp)
    24ba:	0031                	c.nop	12
    24bc:	b901                	j	20cc <STACK_SIZE+0x1ccc>
    24be:	5719                	li	a4,-26
    24c0:	02000003          	lb	zero,32(zero) # 20 <STACK_SIZE-0x3e0>
    24c4:	5891                	li	a7,-28
    24c6:	7322                	ld	t1,40(sp)
    24c8:	0032                	c.slli	zero,0xc
    24ca:	b901                	j	20da <STACK_SIZE+0x1cda>
    24cc:	5729                	li	a4,-22
    24ce:	02000003          	lb	zero,32(zero) # 20 <STACK_SIZE-0x3e0>
    24d2:	5091                	li	ra,-28
    24d4:	6e22                	ld	t3,8(sp)
    24d6:	0100                	addi	s0,sp,128
    24d8:	34b9                	addiw	s1,s1,-18
    24da:	0061                	c.nop	24
    24dc:	0000                	unimp
    24de:	9102                	jalr	sp
    24e0:	1b48                	addi	a0,sp,436
    24e2:	00746e63          	bltu	s0,t2,24fe <STACK_SIZE+0x20fe>
    24e6:	ba01                	j	1df6 <STACK_SIZE+0x19f6>
    24e8:	610a                	ld	sp,128(sp)
    24ea:	0000                	unimp
    24ec:	0200                	addi	s0,sp,256
    24ee:	6891                	lui	a7,0x4
    24f0:	2100                	fld	fs0,0(a0)
    24f2:	00001773          	csrrw	a4,ustatus,zero
    24f6:	b201                	j	1df6 <STACK_SIZE+0x19f6>
    24f8:	4905                	li	s2,1
    24fa:	0000                	unimp
    24fc:	5400                	lw	s0,40(s0)
    24fe:	0014                	0x14
    2500:	0080                	addi	s0,sp,64
    2502:	0000                	unimp
    2504:	8c00                	0x8c00
    2506:	0000                	unimp
    2508:	0000                	unimp
    250a:	0000                	unimp
    250c:	0100                	addi	s0,sp,128
    250e:	0e9c                	addi	a5,sp,848
    2510:	0006                	c.slli	zero,0x1
    2512:	2200                	fld	fs0,0(a2)
    2514:	01003173          	csrrc	sp,0x10,zero
    2518:	18b2                	slli	a7,a7,0x2c
    251a:	00000357          	0x357
    251e:	9102                	jalr	sp
    2520:	2268                	fld	fa0,192(a2)
    2522:	01003273          	csrrc	tp,0x10,zero
    2526:	28b2                	fld	fa7,264(sp)
    2528:	00000357          	0x357
    252c:	9102                	jalr	sp
    252e:	0060                	addi	s0,sp,12
    2530:	5321                	li	t1,-24
    2532:	01000017          	auipc	zero,0x1000
    2536:	07aa                	slli	a5,a5,0xa
    2538:	049d                	addi	s1,s1,7
    253a:	0000                	unimp
    253c:	13c8                	addi	a0,sp,484
    253e:	8000                	0x8000
    2540:	0000                	unimp
    2542:	0000                	unimp
    2544:	008c                	addi	a1,sp,64
    2546:	0000                	unimp
    2548:	0000                	unimp
    254a:	0000                	unimp
    254c:	9c01                	subw	s0,s0,s0
    254e:	065c                	addi	a5,sp,772
    2550:	0000                	unimp
    2552:	6422                	ld	s0,8(sp)
    2554:	01007473          	csrrci	s0,0x10,0
    2558:	14aa                	slli	s1,s1,0x2a
    255a:	049d                	addi	s1,s1,7
    255c:	0000                	unimp
    255e:	9102                	jalr	sp
    2560:	2258                	fld	fa4,128(a2)
    2562:	00637273          	csrrci	tp,0x6,6
    2566:	aa01                	j	2676 <STACK_SIZE+0x2276>
    2568:	5725                	li	a4,-23
    256a:	02000003          	lb	zero,32(zero) # 20 <STACK_SIZE-0x3e0>
    256e:	5091                	li	ra,-28
    2570:	01006a1b          	0x1006a1b
    2574:	049d09ab          	0x49d09ab
    2578:	0000                	unimp
    257a:	9102                	jalr	sp
    257c:	0068                	addi	a0,sp,12
    257e:	f621                	bnez	a2,24c6 <STACK_SIZE+0x20c6>
    2580:	0016                	c.slli	zero,0x5
    2582:	0100                	addi	s0,sp,128
    2584:	07a2                	slli	a5,a5,0x8
    2586:	049d                	addi	s1,s1,7
    2588:	0000                	unimp
    258a:	1310                	addi	a2,sp,416
    258c:	8000                	0x8000
    258e:	0000                	unimp
    2590:	0000                	unimp
    2592:	00b8                	addi	a4,sp,72
    2594:	0000                	unimp
    2596:	0000                	unimp
    2598:	0000                	unimp
    259a:	9c01                	subw	s0,s0,s0
    259c:	06c6                	slli	a3,a3,0x11
    259e:	0000                	unimp
    25a0:	6422                	ld	s0,8(sp)
    25a2:	01007473          	csrrci	s0,0x10,0
    25a6:	15a2                	slli	a1,a1,0x28
    25a8:	049d                	addi	s1,s1,7
    25aa:	0000                	unimp
    25ac:	9102                	jalr	sp
    25ae:	2258                	fld	fa4,128(a2)
    25b0:	00637273          	csrrci	tp,0x6,6
    25b4:	a201                	j	26b4 <STACK_SIZE+0x22b4>
    25b6:	5726                	lw	a4,104(sp)
    25b8:	02000003          	lb	zero,32(zero) # 20 <STACK_SIZE-0x3e0>
    25bc:	5091                	li	ra,-28
    25be:	6e22                	ld	t3,8(sp)
    25c0:	0100                	addi	s0,sp,128
    25c2:	32a2                	fld	ft5,40(sp)
    25c4:	0061                	c.nop	24
    25c6:	0000                	unimp
    25c8:	9102                	jalr	sp
    25ca:	1b48                	addi	a0,sp,436
    25cc:	006a                	c.slli	zero,0x1a
    25ce:	a301                	j	2ace <STACK_SIZE+0x26ce>
    25d0:	9d09                	subw	a0,a0,a0
    25d2:	0004                	0x4
    25d4:	0200                	addi	s0,sp,256
    25d6:	6891                	lui	a7,0x4
    25d8:	746e631b          	0x746e631b
    25dc:	0100                	addi	s0,sp,128
    25de:	0aa4                	addi	s1,sp,344
    25e0:	0061                	c.nop	24
    25e2:	0000                	unimp
    25e4:	9102                	jalr	sp
    25e6:	0060                	addi	s0,sp,12
    25e8:	9b21                	andi	a4,a4,-24
    25ea:	01000017          	auipc	zero,0x1000
    25ee:	049d079b          	addiw	a5,s10,73
    25f2:	0000                	unimp
    25f4:	12a0                	addi	s0,sp,360
    25f6:	8000                	0x8000
    25f8:	0000                	unimp
    25fa:	0000                	unimp
    25fc:	0070                	addi	a2,sp,12
    25fe:	0000                	unimp
    2600:	0000                	unimp
    2602:	0000                	unimp
    2604:	9c01                	subw	s0,s0,s0
    2606:	0714                	addi	a3,sp,896
    2608:	0000                	unimp
    260a:	6422                	ld	s0,8(sp)
    260c:	01007473          	csrrci	s0,0x10,0
    2610:	049d149b          	0x49d149b
    2614:	0000                	unimp
    2616:	9102                	jalr	sp
    2618:	2258                	fld	fa4,128(a2)
    261a:	00637273          	csrrci	tp,0x6,6
    261e:	9b01                	andi	a4,a4,-32
    2620:	5725                	li	a4,-23
    2622:	02000003          	lb	zero,32(zero) # 20 <STACK_SIZE-0x3e0>
    2626:	5091                	li	ra,-28
    2628:	01006a1b          	0x1006a1b
    262c:	099c                	addi	a5,sp,208
    262e:	049d                	addi	s1,s1,7
    2630:	0000                	unimp
    2632:	9102                	jalr	sp
    2634:	0068                	addi	a0,sp,12
    2636:	5a21                	li	s4,-24
    2638:	01000017          	auipc	zero,0x1000
    263c:	0895                	addi	a7,a7,5
    263e:	0061                	c.nop	24
    2640:	0000                	unimp
    2642:	1250                	addi	a2,sp,292
    2644:	8000                	0x8000
    2646:	0000                	unimp
    2648:	0000                	unimp
    264a:	0050                	addi	a2,sp,4
    264c:	0000                	unimp
    264e:	0000                	unimp
    2650:	0000                	unimp
    2652:	9c01                	subw	s0,s0,s0
    2654:	00000753          	fadd.s	fa4,ft0,ft0,rne
    2658:	7322                	ld	t1,40(sp)
    265a:	0100                	addi	s0,sp,128
    265c:	1b95                	addi	s7,s7,-27
    265e:	00000357          	0x357
    2662:	9102                	jalr	sp
    2664:	1b58                	addi	a4,sp,436
    2666:	656c                	ld	a1,200(a0)
    2668:	006e                	c.slli	zero,0x1b
    266a:	9601                	srai	a2,a2,0x20
    266c:	610a                	ld	sp,128(sp)
    266e:	0000                	unimp
    2670:	0200                	addi	s0,sp,256
    2672:	6891                	lui	a7,0x4
    2674:	2500                	fld	fs0,8(a0)
    2676:	174e                	slli	a4,a4,0x33
    2678:	0000                	unimp
    267a:	9001                	srli	s0,s0,0x20
    267c:	3406                	fld	fs0,96(sp)
    267e:	0012                	c.slli	zero,0x4
    2680:	0080                	addi	s0,sp,64
    2682:	0000                	unimp
    2684:	1c00                	addi	s0,sp,560
    2686:	0000                	unimp
    2688:	0000                	unimp
    268a:	0000                	unimp
    268c:	0100                	addi	s0,sp,128
    268e:	819c                	0x819c
    2690:	26000007          	0x26000007
    2694:	17ba                	slli	a5,a5,0x2e
    2696:	0000                	unimp
    2698:	9001                	srli	s0,s0,0x20
    269a:	0000490f          	0x490f
    269e:	0200                	addi	s0,sp,256
    26a0:	6c91                	lui	s9,0x4
    26a2:	2700                	fld	fs0,8(a4)
    26a4:	170d                	addi	a4,a4,-29
    26a6:	0000                	unimp
    26a8:	8901                	andi	a0,a0,0
    26aa:	eb06                	sd	ra,400(sp)
    26ac:	0016                	c.slli	zero,0x5
    26ae:	fc00                	sd	s0,56(s0)
    26b0:	0011                	c.nop	4
    26b2:	0080                	addi	s0,sp,64
    26b4:	0000                	unimp
    26b6:	3800                	fld	fs0,48(s0)
    26b8:	0000                	unimp
    26ba:	0000                	unimp
    26bc:	0000                	unimp
    26be:	0100                	addi	s0,sp,128
    26c0:	b19c                	fsd	fa5,32(a1)
    26c2:	22000007          	0x22000007
    26c6:	89010073          	0x89010073
    26ca:	9d12                	add	s10,s10,tp
    26cc:	0004                	0x4
    26ce:	0200                	addi	s0,sp,256
    26d0:	6891                	lui	a7,0x4
    26d2:	2800                	fld	fs0,16(s0)
    26d4:	0000172f          	0x172f
    26d8:	7f01                	lui	t5,0xfffe0
    26da:	4905                	li	s2,1
    26dc:	0000                	unimp
    26de:	8400                	0x8400
    26e0:	0011                	c.nop	4
    26e2:	0080                	addi	s0,sp,64
    26e4:	0000                	unimp
    26e6:	7800                	ld	s0,48(s0)
    26e8:	0000                	unimp
    26ea:	0000                	unimp
    26ec:	0000                	unimp
    26ee:	0100                	addi	s0,sp,128
    26f0:	029c                	addi	a5,sp,320
    26f2:	0008                	0x8
    26f4:	2200                	fld	fs0,0(a2)
    26f6:	7f010073          	0x7f010073
    26fa:	5718                	lw	a4,40(a4)
    26fc:	03000003          	lb	zero,48(zero) # 30 <STACK_SIZE-0x3d0>
    2700:	9891                	andi	s1,s1,-28
    2702:	721b297f          	0x721b297f
    2706:	7365                	lui	t1,0xffff9
    2708:	0100                	addi	s0,sp,128
    270a:	0681                	addi	a3,a3,0
    270c:	0049                	c.nop	18
    270e:	0000                	unimp
    2710:	7fac9103          	lh	sp,2042(s9) # 47fa <STACK_SIZE+0x43fa>
    2714:	006c761b          	0x6c761b
    2718:	8201                	c.srli64	a2
    271a:	920a                	add	tp,tp,sp
    271c:	0000                	unimp
    271e:	0300                	addi	s0,sp,384
    2720:	a091                	j	2764 <STACK_SIZE+0x2364>
    2722:	a22a007f          	smulx16	zero,s4,sp
    2726:	01000017          	auipc	zero,0x1000
    272a:	00490c73          	0x490c73
    272e:	0000                	unimp
    2730:	10c8                	addi	a0,sp,100
    2732:	8000                	0x8000
    2734:	0000                	unimp
    2736:	0000                	unimp
    2738:	00bc                	addi	a5,sp,72
    273a:	0000                	unimp
    273c:	0000                	unimp
    273e:	0000                	unimp
    2740:	9c01                	subw	s0,s0,s0
    2742:	0000084f          	fnmadd.s	fa6,ft0,ft0,ft0,rne
    2746:	7322                	ld	t1,40(sp)
    2748:	0100                	addi	s0,sp,128
    274a:	03572173          	csrrs	sp,0x35,a4
    274e:	0000                	unimp
    2750:	9102                	jalr	sp
    2752:	2258                	fld	fa4,128(a2)
    2754:	6c76                	ld	s8,344(sp)
    2756:	0100                	addi	s0,sp,128
    2758:	00922c73          	csrrs	s8,0x9,tp
    275c:	0000                	unimp
    275e:	9102                	jalr	sp
    2760:	1b50                	addi	a2,sp,436
    2762:	6572                	ld	a0,280(sp)
    2764:	75010073          	0x75010073
    2768:	4906                	lw	s2,64(sp)
    276a:	0000                	unimp
    276c:	0200                	addi	s0,sp,256
    276e:	6c91                	lui	s9,0x4
    2770:	2b00                	fld	fs0,16(a4)
    2772:	0000172b          	0x172b
    2776:	0c01                	addi	s8,s8,0
    2778:	490c                	lw	a1,16(a0)
    277a:	0000                	unimp
    277c:	c000                	sw	s0,0(s0)
    277e:	0080000b          	0x80000b
    2782:	0000                	unimp
    2784:	0800                	addi	s0,sp,16
    2786:	0005                	c.nop	1
    2788:	0000                	unimp
    278a:	0000                	unimp
    278c:	0100                	addi	s0,sp,128
    278e:	e89c                	sd	a5,16(s1)
    2790:	0009                	c.nop	2
    2792:	2200                	fld	fs0,0(a2)
    2794:	0074756f          	jal	a0,49f9a <STACK_SIZE+0x49b9a>
    2798:	0c01                	addi	s8,s8,0
    279a:	9d1e                	add	s10,s10,t2
    279c:	0004                	0x4
    279e:	0300                	addi	s0,sp,384
    27a0:	9891                	andi	s1,s1,-28
    27a2:	006e227f          	0x6e227f
    27a6:	0c01                	addi	s8,s8,0
    27a8:	612a                	ld	sp,136(sp)
    27aa:	0000                	unimp
    27ac:	0300                	addi	s0,sp,384
    27ae:	9091                	srli	s1,s1,0x24
    27b0:	0073227f          	0x73227f
    27b4:	0c01                	addi	s8,s8,0
    27b6:	5739                	li	a4,-18
    27b8:	03000003          	lb	zero,48(zero) # 30 <STACK_SIZE-0x3d0>
    27bc:	8891                	andi	s1,s1,4
    27be:	6c76227f          	0x6c76227f
    27c2:	0100                	addi	s0,sp,128
    27c4:	440c                	lw	a1,8(s0)
    27c6:	0092                	slli	ra,ra,0x4
    27c8:	0000                	unimp
    27ca:	7f809103          	lh	sp,2040(ra) # 47f8 <STACK_SIZE+0x43f8>
    27ce:	b320                	fsd	fs0,96(a4)
    27d0:	01000017          	auipc	zero,0x1000
    27d4:	060e                	slli	a2,a2,0x3
    27d6:	0049                	c.nop	18
    27d8:	0000                	unimp
    27da:	9102                	jalr	sp
    27dc:	206c                	fld	fa1,192(s0)
    27de:	1736                	slli	a4,a4,0x2d
    27e0:	0000                	unimp
    27e2:	0f01                	addi	t5,t5,0
    27e4:	4906                	lw	s2,64(sp)
    27e6:	0000                	unimp
    27e8:	0200                	addi	s0,sp,256
    27ea:	6891                	lui	a7,0x4
    27ec:	736f701b          	0x736f701b
    27f0:	0100                	addi	s0,sp,128
    27f2:	0910                	addi	a2,sp,144
    27f4:	0061                	c.nop	24
    27f6:	0000                	unimp
    27f8:	9102                	jalr	sp
    27fa:	2c60                	fld	fs0,216(s0)
    27fc:	0cc8                	addi	a0,sp,596
    27fe:	8000                	0x8000
    2800:	0000                	unimp
    2802:	0000                	unimp
    2804:	0104                	addi	s1,sp,128
    2806:	0000                	unimp
    2808:	0000                	unimp
    280a:	0000                	unimp
    280c:	094e                	slli	s2,s2,0x13
    280e:	0000                	unimp
    2810:	6d756e1b          	0x6d756e1b
    2814:	0100                	addi	s0,sp,128
    2816:	0a24                	addi	s1,sp,280
    2818:	0055                	c.nop	21
    281a:	0000                	unimp
    281c:	7fa89103          	lh	sp,2042(a7) # 47fa <STACK_SIZE+0x43fa>
    2820:	1320                	addi	s0,sp,424
    2822:	01000017          	auipc	zero,0x1000
    2826:	0925                	addi	s2,s2,9
    2828:	0049                	c.nop	18
    282a:	0000                	unimp
    282c:	7fa49103          	lh	sp,2042(s1)
    2830:	1824                	addi	s1,sp,56
    2832:	000d                	c.nop	3
    2834:	0080                	addi	s0,sp,64
    2836:	0000                	unimp
    2838:	a800                	fsd	fs0,16(s0)
    283a:	0000                	unimp
    283c:	0000                	unimp
    283e:	0000                	unimp
    2840:	1b00                	addi	s0,sp,432
    2842:	0069                	c.nop	26
    2844:	2601                	sext.w	a2,a2
    2846:	490d                	li	s2,3
    2848:	0000                	unimp
    284a:	0200                	addi	s0,sp,256
    284c:	5c91                	li	s9,-28
    284e:	2c24                	fld	fs1,88(s0)
    2850:	000d                	c.nop	3
    2852:	0080                	addi	s0,sp,64
    2854:	0000                	unimp
    2856:	8400                	0x8400
    2858:	0000                	unimp
    285a:	0000                	unimp
    285c:	0000                	unimp
    285e:	1b00                	addi	s0,sp,432
    2860:	0064                	addi	s1,sp,12
    2862:	2701                	sext.w	a4,a4
    2864:	490a                	lw	s2,128(sp)
    2866:	0000                	unimp
    2868:	0300                	addi	s0,sp,384
    286a:	a091                	j	28ae <STACK_SIZE+0x24ae>
    286c:	0000007f          	radd16	zero,zero,zero
    2870:	cc2c                	sw	a1,88(s0)
    2872:	000d                	c.nop	3
    2874:	0080                	addi	s0,sp,64
    2876:	0000                	unimp
    2878:	6400                	ld	s0,8(s0)
    287a:	0001                	nop
    287c:	0000                	unimp
    287e:	0000                	unimp
    2880:	c600                	sw	s0,8(a2)
    2882:	0009                	c.nop	2
    2884:	1b00                	addi	s0,sp,432
    2886:	756e                	ld	a0,248(sp)
    2888:	006d                	c.nop	27
    288a:	3201                	addiw	tp,tp,-32
    288c:	550a                	lw	a0,160(sp)
    288e:	0000                	unimp
    2890:	0200                	addi	s0,sp,256
    2892:	5091                	li	ra,-28
    2894:	1620                	addi	s0,sp,808
    2896:	01000017          	auipc	zero,0x1000
    289a:	0a3a                	slli	s4,s4,0xe
    289c:	0055                	c.nop	21
    289e:	0000                	unimp
    28a0:	9102                	jalr	sp
    28a2:	2c48                	fld	fa0,152(s0)
    28a4:	0e50                	addi	a2,sp,788
    28a6:	8000                	0x8000
    28a8:	0000                	unimp
    28aa:	0000                	unimp
    28ac:	0038                	addi	a4,sp,8
    28ae:	0000                	unimp
    28b0:	0000                	unimp
    28b2:	0000                	unimp
    28b4:	09a5                	addi	s3,s3,9
    28b6:	0000                	unimp
    28b8:	006e6e1b          	0x6e6e1b
    28bc:	3b01                	addiw	s6,s6,-32
    28be:	0000550f          	0x550f
    28c2:	0200                	addi	s0,sp,256
    28c4:	4091                	li	ra,4
    28c6:	2400                	fld	fs0,8(s0)
    28c8:	0e88                	addi	a0,sp,848
    28ca:	8000                	0x8000
    28cc:	0000                	unimp
    28ce:	0000                	unimp
    28d0:	008c                	addi	a1,sp,64
    28d2:	0000                	unimp
    28d4:	0000                	unimp
    28d6:	0000                	unimp
    28d8:	0100691b          	0x100691b
    28dc:	0e3c                	addi	a5,sp,792
    28de:	0049                	c.nop	18
    28e0:	0000                	unimp
    28e2:	7fbc9103          	lh	sp,2043(s9) # 47fb <STACK_SIZE+0x43fb>
    28e6:	0000                	unimp
    28e8:	3024                	fld	fs1,96(s0)
    28ea:	0080000f          	fence	unknown,i
    28ee:	0000                	unimp
    28f0:	7400                	ld	s0,40(s0)
    28f2:	0000                	unimp
    28f4:	0000                	unimp
    28f6:	0000                	unimp
    28f8:	1b00                	addi	s0,sp,432
    28fa:	01003273          	csrrc	tp,0x10,zero
    28fe:	1148                	addi	a0,sp,164
    2900:	00000357          	0x357
    2904:	7fb09103          	lh	sp,2043(ra)
    2908:	0000                	unimp
    290a:	fe28                	sd	a0,120(a2)
    290c:	0016                	c.slli	zero,0x5
    290e:	0100                	addi	s0,sp,128
    2910:	00490507          	0x490507
    2914:	0000                	unimp
    2916:	0b6c                	addi	a1,sp,412
    2918:	8000                	0x8000
    291a:	0000                	unimp
    291c:	0000                	unimp
    291e:	0054                	addi	a3,sp,4
    2920:	0000                	unimp
    2922:	0000                	unimp
    2924:	0000                	unimp
    2926:	9c01                	subw	s0,s0,s0
    2928:	00000a27          	0xa27
    292c:	6322                	ld	t1,8(sp)
    292e:	0100                	addi	s0,sp,128
    2930:	03281207          	0x3281207
    2934:	0000                	unimp
    2936:	9102                	jalr	sp
    2938:	205f 0658 0000      	0x658205f
    293e:	0801                	addi	a6,a6,0
    2940:	000a2707          	flw	fa4,0(s4)
    2944:	0200                	addi	s0,sp,256
    2946:	6891                	lui	a7,0x4
    2948:	2d00                	fld	fs0,24(a0)
    294a:	0328                	addi	a0,sp,392
    294c:	0000                	unimp
    294e:	2f19                	addiw	t5,t5,6
    2950:	0000                	unimp
    2952:	0100                	addi	s0,sp,128
	...

Disassembly of section .debug_abbrev:

0000000000000000 <.debug_abbrev>:
   0:	1101                	addi	sp,sp,-32
   2:	1000                	addi	s0,sp,32
   4:	1106                	slli	sp,sp,0x21
   6:	1201                	addi	tp,tp,-32
   8:	0301                	addi	t1,t1,0
   a:	1b0e                	slli	s6,s6,0x23
   c:	250e                	fld	fa0,192(sp)
   e:	130e                	slli	t1,t1,0x23
  10:	0005                	c.nop	1
  12:	0000                	unimp
  14:	1101                	addi	sp,sp,-32
  16:	2501                	sext.w	a0,a0
  18:	130e                	slli	t1,t1,0x23
  1a:	1b0e030b          	0x1b0e030b
  1e:	550e                	lw	a0,224(sp)
  20:	10011117          	auipc	sp,0x10011
  24:	02000017          	auipc	zero,0x2000
  28:	0016                	c.slli	zero,0x5
  2a:	0b3a0e03          	lb	t3,179(s4)
  2e:	0b390b3b          	0xb390b3b
  32:	1349                	addi	t1,t1,-14
  34:	0000                	unimp
  36:	0b000f03          	lb	t5,176(zero) # b0 <STACK_SIZE-0x350>
  3a:	0400000b          	0x400000b
  3e:	0026                	c.slli	zero,0x9
  40:	1349                	addi	t1,t1,-14
  42:	0000                	unimp
  44:	2405                	addiw	s0,s0,1
  46:	0b00                	addi	s0,sp,400
  48:	030b3e0b          	0x30b3e0b
  4c:	000e                	c.slli	zero,0x3
  4e:	0600                	addi	s0,sp,768
  50:	0035                	c.nop	13
  52:	1349                	addi	t1,t1,-14
  54:	0000                	unimp
  56:	0b002407          	flw	fs0,176(zero) # b0 <STACK_SIZE-0x350>
  5a:	030b3e0b          	0x30b3e0b
  5e:	0008                	0x8
  60:	0800                	addi	s0,sp,16
  62:	0e03003b          	0xe03003b
  66:	0000                	unimp
  68:	3909                	addiw	s2,s2,-30
  6a:	0301                	addi	t1,t1,0
  6c:	3a08                	fld	fa0,48(a2)
  6e:	390b3b0b          	0x390b3b0b
  72:	0013010b          	0x13010b
  76:	0a00                	addi	s0,sp,272
  78:	0104                	addi	s1,sp,128
  7a:	0b3e0e03          	lb	t3,179(t3) # 1a0b3 <STACK_SIZE+0x19cb3>
  7e:	13490b0b          	0x13490b0b
  82:	0b3a                	slli	s6,s6,0xe
  84:	0b390b3b          	0xb390b3b
  88:	0000                	unimp
  8a:	0300280b          	0x300280b
  8e:	1c0e                	slli	s8,s8,0x23
  90:	0c00000b          	0xc00000b
  94:	0139                	addi	sp,sp,14
  96:	0b3a0e03          	lb	t3,179(s4)
  9a:	0b390b3b          	0xb390b3b
  9e:	1301                	addi	t1,t1,-32
  a0:	0000                	unimp
  a2:	040d                	addi	s0,s0,3
  a4:	0301                	addi	t1,t1,0
  a6:	3e0e                	fld	ft8,224(sp)
  a8:	490b0b0b          	0x490b0b0b
  ac:	3b0b3a13          	sltiu	s4,s6,944
  b0:	010b390b          	0x10b390b
  b4:	0e000013          	li	zero,224
  b8:	0028                	addi	a0,sp,8
  ba:	0b1c0803          	lb	a6,177(s8)
  be:	0000                	unimp
  c0:	3f012e0f          	0x3f012e0f
  c4:	0319                	addi	t1,t1,6
  c6:	3a0e                	fld	fs4,224(sp)
  c8:	390b3b0b          	0x390b3b0b
  cc:	490e6e0b          	0x490e6e0b
  d0:	00193c13          	seqz	s8,s2
  d4:	1000                	addi	s0,sp,32
  d6:	0005                	c.nop	1
  d8:	1349                	addi	t1,t1,-14
  da:	0000                	unimp
  dc:	2e11                	addiw	t3,t3,4
  de:	3f00                	fld	fs0,56(a4)
  e0:	0319                	addi	t1,t1,6
  e2:	3a0e                	fld	fs4,224(sp)
  e4:	390b3b0b          	0x390b3b0b
  e8:	490e6e0b          	0x490e6e0b
  ec:	00193c13          	seqz	s8,s2
  f0:	1200                	addi	s0,sp,288
  f2:	0034                	addi	a3,sp,8
  f4:	0b3a0803          	lb	a6,179(s4)
  f8:	0b390b3b          	0xb390b3b
  fc:	1349                	addi	t1,t1,-14
  fe:	193c                	addi	a5,sp,184
 100:	0b1c                	addi	a5,sp,400
 102:	196c                	addi	a1,sp,188
 104:	0000                	unimp
 106:	03003413          	sltiu	s0,zero,48
 10a:	3a0e                	fld	fs4,224(sp)
 10c:	390b3b0b          	0x390b3b0b
 110:	3c13490b          	0x3c13490b
 114:	1c19                	addi	s8,s8,-26
 116:	6c06                	ld	s8,64(sp)
 118:	0019                	c.nop	6
 11a:	1400                	addi	s0,sp,544
 11c:	08030113          	addi	sp,t1,128 # ffffffffffff9080 <_ZL7out_buf+0xffffffff7fff4e58>
 120:	0b3a0b0b          	0xb3a0b0b
 124:	0b390b3b          	0xb390b3b
 128:	1301                	addi	t1,t1,-32
 12a:	0000                	unimp
 12c:	0d15                	addi	s10,s10,5
 12e:	0300                	addi	s0,sp,384
 130:	3a0e                	fld	fs4,224(sp)
 132:	390b3b0b          	0x390b3b0b
 136:	0b13490b          	0xb13490b
 13a:	0c0b0d0b          	0xc0b0d0b
 13e:	000b380b          	0xb380b
 142:	1600                	addi	s0,sp,800
 144:	012e                	slli	sp,sp,0xb
 146:	0e03193f 0b3b0b3a 	0xb3b0b3a0e03193f
 14e:	0b39                	addi	s6,s6,14
 150:	0e6e                	slli	t3,t3,0x1b
 152:	193c                	addi	a5,sp,184
 154:	0000                	unimp
 156:	3f012e17          	auipc	t3,0x3f012
 15a:	0319                	addi	t1,t1,6
 15c:	3a08                	fld	fa0,48(a2)
 15e:	390b3b0b          	0x390b3b0b
 162:	490e6e0b          	0x490e6e0b
 166:	00193c13          	seqz	s8,s2
 16a:	1800                	addi	s0,sp,48
 16c:	012e                	slli	sp,sp,0xb
 16e:	0e03193f 0b3b0b3a 	0xb3b0b3a0e03193f
 176:	0b39                	addi	s6,s6,14
 178:	0e6e                	slli	t3,t3,0x1b
 17a:	1349                	addi	t1,t1,-14
 17c:	193c                	addi	a5,sp,184
 17e:	1301                	addi	t1,t1,-32
 180:	0000                	unimp
 182:	3919                	addiw	s2,s2,-26
 184:	0301                	addi	t1,t1,0
 186:	3a08                	fld	fa0,48(a2)
 188:	390b3b0b          	0x390b3b0b
 18c:	1a00000b          	0x1a00000b
 190:	0034                	addi	a3,sp,8
 192:	0b3a0803          	lb	a6,179(s4)
 196:	0b390b3b          	0xb390b3b
 19a:	1349                	addi	t1,t1,-14
 19c:	193c                	addi	a5,sp,184
 19e:	061c                	addi	a5,sp,768
 1a0:	196c                	addi	a1,sp,188
 1a2:	0000                	unimp
 1a4:	4700341b          	0x4700341b
 1a8:	1c000013          	li	zero,448
 1ac:	0115                	addi	sp,sp,5
 1ae:	1301                	addi	t1,t1,-32
 1b0:	0000                	unimp
 1b2:	0f1d                	addi	t5,t5,7
 1b4:	0b00                	addi	s0,sp,400
 1b6:	0013490b          	0x13490b
 1ba:	1e00                	addi	s0,sp,816
 1bc:	0034                	addi	a3,sp,8
 1be:	0b3a0e03          	lb	t3,179(s4)
 1c2:	0b390b3b          	0xb390b3b
 1c6:	1349                	addi	t1,t1,-14
 1c8:	193c193f 131f0000 	0x131f0000193c193f
 1d0:	0301                	addi	t1,t1,0
 1d2:	0b0e                	slli	s6,s6,0x3
 1d4:	3b0b3a0b          	0x3b0b3a0b
 1d8:	010b390b          	0x10b390b
 1dc:	20000013          	li	zero,512
 1e0:	000d                	c.nop	3
 1e2:	0b3a0e03          	lb	t3,179(s4)
 1e6:	0b390b3b          	0xb390b3b
 1ea:	1349                	addi	t1,t1,-14
 1ec:	0b38                	addi	a4,sp,408
 1ee:	0000                	unimp
 1f0:	2e21                	addiw	t3,t3,8
 1f2:	3f01                	addiw	t5,t5,-32
 1f4:	0319                	addi	t1,t1,6
 1f6:	3a0e                	fld	fs4,224(sp)
 1f8:	390b3b0b          	0x390b3b0b
 1fc:	490e6e0b          	0x490e6e0b
 200:	64193c13          	sltiu	s8,s2,1601
 204:	00130113          	addi	sp,t1,1
 208:	2200                	fld	fs0,0(a2)
 20a:	0005                	c.nop	1
 20c:	1349                	addi	t1,t1,-14
 20e:	1934                	addi	a3,sp,184
 210:	0000                	unimp
 212:	3f012e23          	sw	a6,1020(sp) # 1001141c <STACK_SIZE+0x1001101c>
 216:	0319                	addi	t1,t1,6
 218:	3a08                	fld	fa0,48(a2)
 21a:	390b3b0b          	0x390b3b0b
 21e:	3c0e6e0b          	0x3c0e6e0b
 222:	6419                	lui	s0,0x6
 224:	00130113          	addi	sp,t1,1
 228:	2400                	fld	fs0,8(s0)
 22a:	012e                	slli	sp,sp,0xb
 22c:	0803193f 0b3b0b3a 	0xb3b0b3a0803193f
 234:	0b39                	addi	s6,s6,14
 236:	0e6e                	slli	t3,t3,0x1b
 238:	1349                	addi	t1,t1,-14
 23a:	193c                	addi	a5,sp,184
 23c:	1364                	addi	s1,sp,428
 23e:	1301                	addi	t1,t1,-32
 240:	0000                	unimp
 242:	2f25                	addiw	t5,t5,9
 244:	0300                	addi	s0,sp,384
 246:	4908                	lw	a0,16(a0)
 248:	26000013          	li	zero,608
 24c:	0030                	addi	a2,sp,8
 24e:	13490e03          	lb	t3,308(s2) # 6e1cb2 <STACK_SIZE+0x6e18b2>
 252:	191e                	slli	s2,s2,0x27
 254:	0b1c                	addi	a5,sp,400
 256:	0000                	unimp
 258:	3f012e27          	fsw	fa6,1020(sp)
 25c:	0319                	addi	t1,t1,6
 25e:	3a0e                	fld	fs4,224(sp)
 260:	390b3b0b          	0x390b3b0b
 264:	3c0e6e0b          	0x3c0e6e0b
 268:	6419                	lui	s0,0x6
 26a:	00130113          	addi	sp,t1,1
 26e:	2800                	fld	fs0,16(s0)
 270:	012e                	slli	sp,sp,0xb
 272:	0e03193f 0b3b0b3a 	0xb3b0b3a0e03193f
 27a:	0b39                	addi	s6,s6,14
 27c:	0e6e                	slli	t3,t3,0x1b
 27e:	193c                	addi	a5,sp,184
 280:	1301                	addi	t1,t1,-32
 282:	0000                	unimp
 284:	0229                	addi	tp,tp,10
 286:	0301                	addi	t1,t1,0
 288:	0b0e                	slli	s6,s6,0x3
 28a:	3b0b3a0b          	0x3b0b3a0b
 28e:	010b390b          	0x10b390b
 292:	2a000013          	li	zero,672
 296:	000d                	c.nop	3
 298:	0b3a0803          	lb	a6,179(s4)
 29c:	0b390b3b          	0xb390b3b
 2a0:	1349                	addi	t1,t1,-14
 2a2:	0b38                	addi	a4,sp,408
 2a4:	0000                	unimp
 2a6:	3f012e2b          	0x3f012e2b
 2aa:	0319                	addi	t1,t1,6
 2ac:	3a0e                	fld	fs4,224(sp)
 2ae:	390b3b0b          	0x390b3b0b
 2b2:	320e6e0b          	0x320e6e0b
 2b6:	64193c0b          	0x64193c0b
 2ba:	00130113          	addi	sp,t1,1
 2be:	2c00                	fld	fs0,24(s0)
 2c0:	012e                	slli	sp,sp,0xb
 2c2:	0e03193f 0b3b0b3a 	0xb3b0b3a0e03193f
 2ca:	0b39                	addi	s6,s6,14
 2cc:	0e6e                	slli	t3,t3,0x1b
 2ce:	1349                	addi	t1,t1,-14
 2d0:	0b32                	slli	s6,s6,0xc
 2d2:	193c                	addi	a5,sp,184
 2d4:	1364                	addi	s1,sp,428
 2d6:	1301                	addi	t1,t1,-32
 2d8:	0000                	unimp
 2da:	2e2d                	addiw	t3,t3,11
 2dc:	3f01                	addiw	t5,t5,-32
 2de:	0319                	addi	t1,t1,6
 2e0:	3a0e                	fld	fs4,224(sp)
 2e2:	390b3b0b          	0x390b3b0b
 2e6:	490e6e0b          	0x490e6e0b
 2ea:	3c0b3213          	sltiu	tp,s6,960
 2ee:	6419                	lui	s0,0x6
 2f0:	2e000013          	li	zero,736
 2f4:	0030                	addi	a2,sp,8
 2f6:	13490e03          	lb	t3,308(s2)
 2fa:	0b1c                	addi	a5,sp,400
 2fc:	0000                	unimp
 2fe:	0300132f          	0x300132f
 302:	3c0e                	fld	fs8,224(sp)
 304:	0019                	c.nop	6
 306:	3000                	fld	fs0,32(s0)
 308:	0e030113          	addi	sp,t1,224
 30c:	0b3a0b0b          	0xb3a0b0b
 310:	0b390b3b          	0xb390b3b
 314:	0000                	unimp
 316:	0231                	addi	tp,tp,12
 318:	0300                	addi	s0,sp,384
 31a:	3c0e                	fld	fs8,224(sp)
 31c:	0019                	c.nop	6
 31e:	3200                	fld	fs0,32(a2)
 320:	0101                	addi	sp,sp,0
 322:	1349                	addi	t1,t1,-14
 324:	1301                	addi	t1,t1,-32
 326:	0000                	unimp
 328:	49002133          	0x49002133
 32c:	000b2f13          	slti	t5,s6,0
 330:	3400                	fld	fs0,40(s0)
 332:	0034                	addi	a3,sp,8
 334:	0b3a0803          	lb	a6,179(s4)
 338:	0b390b3b          	0xb390b3b
 33c:	1349                	addi	t1,t1,-14
 33e:	1802                	slli	a6,a6,0x20
 340:	0000                	unimp
 342:	0235                	addi	tp,tp,13
 344:	0301                	addi	t1,t1,0
 346:	0b08                	addi	a0,sp,400
 348:	3b0b3a0b          	0x3b0b3a0b
 34c:	010b390b          	0x10b390b
 350:	36000013          	li	zero,864
 354:	012e                	slli	sp,sp,0xb
 356:	0e03193f 0b3b0b3a 	0xb3b0b3a0e03193f
 35e:	0b39                	addi	s6,s6,14
 360:	0e6e                	slli	t3,t3,0x1b
 362:	0b32                	slli	s6,s6,0xc
 364:	193c                	addi	a5,sp,184
 366:	1301                	addi	t1,t1,-32
 368:	0000                	unimp
 36a:	3f002e37          	lui	t3,0x3f002
 36e:	0319                	addi	t1,t1,6
 370:	3a0e                	fld	fs4,224(sp)
 372:	390b3b0b          	0x390b3b0b
 376:	490e6e0b          	0x490e6e0b
 37a:	3c0b3213          	sltiu	tp,s6,960
 37e:	0019                	c.nop	6
 380:	3800                	fld	fs0,48(s0)
 382:	0e030117          	auipc	sp,0xe030
 386:	0b3a0b0b          	0xb3a0b0b
 38a:	0b390b3b          	0xb390b3b
 38e:	1301                	addi	t1,t1,-32
 390:	0000                	unimp
 392:	0d39                	addi	s10,s10,14
 394:	0300                	addi	s0,sp,384
 396:	3a08                	fld	fa0,48(a2)
 398:	390b3b0b          	0x390b3b0b
 39c:	0b13490b          	0xb13490b
 3a0:	0c0b0d0b          	0xc0b0d0b
 3a4:	000b380b          	0xb380b
 3a8:	3a00                	fld	fs0,48(a2)
 3aa:	000d                	c.nop	3
 3ac:	0b3a0e03          	lb	t3,179(s4)
 3b0:	0b390b3b          	0xb390b3b
 3b4:	1349                	addi	t1,t1,-14
 3b6:	0000                	unimp
 3b8:	03000d3b          	mulw	s10,zero,a6
 3bc:	3a08                	fld	fa0,48(a2)
 3be:	390b3b0b          	0x390b3b0b
 3c2:	0013490b          	0x13490b
 3c6:	3c00                	fld	fs0,56(s0)
 3c8:	012e                	slli	sp,sp,0xb
 3ca:	0e03193f 0b3b0b3a 	0xb3b0b3a0e03193f
 3d2:	0b39                	addi	s6,s6,14
 3d4:	0e6e                	slli	t3,t3,0x1b
 3d6:	193c                	addi	a5,sp,184
 3d8:	1364                	addi	s1,sp,428
 3da:	0000                	unimp
 3dc:	343d                	addiw	s0,s0,-17
 3de:	0300                	addi	s0,sp,384
 3e0:	3a0e                	fld	fs4,224(sp)
 3e2:	390b3b0b          	0x390b3b0b
 3e6:	3c13490b          	0x3c13490b
 3ea:	1c19                	addi	s8,s8,-26
 3ec:	6c05                	lui	s8,0x1
 3ee:	0019                	c.nop	6
 3f0:	3e00                	fld	fs0,56(a2)
 3f2:	012e                	slli	sp,sp,0xb
 3f4:	0e03193f 0b3b0b3a 	0xb3b0b3a0e03193f
 3fc:	0b39                	addi	s6,s6,14
 3fe:	0e6e                	slli	t3,t3,0x1b
 400:	1349                	addi	t1,t1,-14
 402:	0b32                	slli	s6,s6,0xc
 404:	193c                	addi	a5,sp,184
 406:	0000                	unimp
 408:	0b00103f 0013490b 	0x13490b0b00103f
 410:	4000                	lw	s0,0(s0)
 412:	0008                	0x8
 414:	0b3a                	slli	s6,s6,0xe
 416:	0b390b3b          	0xb390b3b
 41a:	1318                	addi	a4,sp,416
 41c:	0000                	unimp
 41e:	0241                	addi	tp,tp,16
 420:	0301                	addi	t1,t1,0
 422:	0b0e                	slli	s6,s6,0x3
 424:	3b0b3a0b          	0x3b0b3a0b
 428:	000b390b          	0xb390b
 42c:	4200                	lw	s0,0(a2)
 42e:	000d                	c.nop	3
 430:	0b3a0e03          	lb	t3,179(s4)
 434:	0b390b3b          	0xb390b3b
 438:	1349                	addi	t1,t1,-14
 43a:	0b38                	addi	a4,sp,408
 43c:	0b32                	slli	s6,s6,0xc
 43e:	0000                	unimp
 440:	03000d43          	fmadd.d	fs10,ft0,fa6,ft0,rne
 444:	3a0e                	fld	fs4,224(sp)
 446:	390b3b0b          	0x390b3b0b
 44a:	3f13490b          	0x3f13490b
 44e:	3219                	addiw	tp,tp,-26
 450:	1c193c0b          	0x1c193c0b
 454:	00196c0b          	0x196c0b
 458:	4400                	lw	s0,8(s0)
 45a:	012e                	slli	sp,sp,0xb
 45c:	0803193f 0b3b0b3a 	0xb3b0b3a0803193f
 464:	0b39                	addi	s6,s6,14
 466:	0e6e                	slli	t3,t3,0x1b
 468:	0b32                	slli	s6,s6,0xc
 46a:	193c                	addi	a5,sp,184
 46c:	1364                	addi	s1,sp,428
 46e:	0000                	unimp
 470:	1345                	addi	t1,t1,-15
 472:	0301                	addi	t1,t1,0
 474:	0b0e                	slli	s6,s6,0x3
 476:	3a05                	addiw	s4,s4,-31
 478:	390b3b0b          	0x390b3b0b
 47c:	0013010b          	0x13010b
 480:	4600                	lw	s0,8(a2)
 482:	000d                	c.nop	3
 484:	0b3a0803          	lb	a6,179(s4)
 488:	0b390b3b          	0xb390b3b
 48c:	1349                	addi	t1,t1,-14
 48e:	0538                	addi	a4,sp,648
 490:	0000                	unimp
 492:	03003947          	fmsub.d	fs2,ft0,fa6,ft0,rup
 496:	3a08                	fld	fa0,48(a2)
 498:	390b3b0b          	0x390b3b0b
 49c:	4800000b          	0x4800000b
 4a0:	0e030113          	addi	sp,t1,224
 4a4:	0b3a050b          	0xb3a050b
 4a8:	0b390b3b          	0xb390b3b
 4ac:	0000                	unimp
 4ae:	0d49                	addi	s10,s10,18
 4b0:	0300                	addi	s0,sp,384
 4b2:	3a0e                	fld	fs4,224(sp)
 4b4:	390b3b0b          	0x390b3b0b
 4b8:	3813490b          	0x3813490b
 4bc:	0005                	c.nop	1
 4be:	4a00                	lw	s0,16(a2)
 4c0:	0034                	addi	a3,sp,8
 4c2:	0b3a0e03          	lb	t3,179(s4)
 4c6:	0b390b3b          	0xb390b3b
 4ca:	1349                	addi	t1,t1,-14
 4cc:	1802193f 2e4b0000 	0x2e4b00001802193f
 4d4:	3f01                	addiw	t5,t5,-32
 4d6:	0319                	addi	t1,t1,6
 4d8:	3a0e                	fld	fs4,224(sp)
 4da:	390b3b0b          	0x390b3b0b
 4de:	490e6e0b          	0x490e6e0b
 4e2:	010b2013          	slti	zero,s6,16
 4e6:	4c000013          	li	zero,1216
 4ea:	0005                	c.nop	1
 4ec:	0b3a0e03          	lb	t3,179(s4)
 4f0:	0b390b3b          	0xb390b3b
 4f4:	1349                	addi	t1,t1,-14
 4f6:	0000                	unimp
 4f8:	2e4d                	addiw	t3,t3,19
 4fa:	3f01                	addiw	t5,t5,-32
 4fc:	0319                	addi	t1,t1,6
 4fe:	3a0e                	fld	fs4,224(sp)
 500:	390b3b0b          	0x390b3b0b
 504:	1201110b          	0x1201110b
 508:	96184007          	flq	ft0,-1695(a6) # 5c2961 <STACK_SIZE+0x5c2561>
 50c:	1942                	slli	s2,s2,0x30
 50e:	1301                	addi	t1,t1,-32
 510:	0000                	unimp
 512:	2e4e                	fld	ft8,208(sp)
 514:	3f01                	addiw	t5,t5,-32
 516:	0319                	addi	t1,t1,6
 518:	3a0e                	fld	fs4,224(sp)
 51a:	390b3b0b          	0x390b3b0b
 51e:	110e6e0b          	0x110e6e0b
 522:	1201                	addi	tp,tp,-32
 524:	96184007          	flq	ft0,-1695(a6)
 528:	1942                	slli	s2,s2,0x30
 52a:	1301                	addi	t1,t1,-32
 52c:	0000                	unimp
 52e:	11010b4f          	fnmadd.s	fs6,ft2,fa6,ft2,rne
 532:	1201                	addi	tp,tp,-32
 534:	50000007          	0x50000007
 538:	0034                	addi	a3,sp,8
 53a:	0b3a0e03          	lb	t3,179(s4)
 53e:	0b390b3b          	0xb390b3b
 542:	1349                	addi	t1,t1,-14
 544:	1802                	slli	a6,a6,0x20
 546:	0000                	unimp
 548:	1d51                	addi	s10,s10,-12
 54a:	3101                	addiw	sp,sp,-32
 54c:	12011113          	0x12011113
 550:	590b5807          	0x590b5807
 554:	000b570b          	0xb570b
 558:	5200                	lw	s0,32(a2)
 55a:	0005                	c.nop	1
 55c:	1331                	addi	t1,t1,-20
 55e:	1802                	slli	a6,a6,0x20
 560:	0000                	unimp
 562:	3a003a53          	0x3a003a53
 566:	390b3b0b          	0x390b3b0b
 56a:	0013180b          	0x13180b
 56e:	5400                	lw	s0,40(s0)
 570:	011d                	addi	sp,sp,7
 572:	1331                	addi	t1,t1,-20
 574:	0111                	addi	sp,sp,4
 576:	0712                	slli	a4,a4,0x4
 578:	0b58                	addi	a4,sp,404
 57a:	0b59                	addi	s6,s6,22
 57c:	13010b57          	0x13010b57
 580:	0000                	unimp
 582:	0b55                	addi	s6,s6,21
 584:	1101                	addi	sp,sp,-32
 586:	1201                	addi	tp,tp,-32
 588:	00130107          	0x130107
 58c:	5600                	lw	s0,40(a2)
 58e:	012e                	slli	sp,sp,0xb
 590:	0b3a0e03          	lb	t3,179(s4)
 594:	0b390b3b          	0xb390b3b
 598:	0111                	addi	sp,sp,4
 59a:	0712                	slli	a4,a4,0x4
 59c:	1840                	addi	s0,sp,52
 59e:	4296                	lw	t0,68(sp)
 5a0:	0119                	addi	sp,sp,6
 5a2:	57000013          	li	zero,1392
 5a6:	0005                	c.nop	1
 5a8:	0b3a0803          	lb	a6,179(s4)
 5ac:	0b390b3b          	0xb390b3b
 5b0:	1349                	addi	t1,t1,-14
 5b2:	1802                	slli	a6,a6,0x20
 5b4:	0000                	unimp
 5b6:	2e58                	fld	fa4,152(a2)
 5b8:	3f01                	addiw	t5,t5,-32
 5ba:	0319                	addi	t1,t1,6
 5bc:	3a0e                	fld	fs4,224(sp)
 5be:	390b3b0b          	0x390b3b0b
 5c2:	490e6e0b          	0x490e6e0b
 5c6:	12011113          	0x12011113
 5ca:	96184007          	flq	ft0,-1695(a6)
 5ce:	1942                	slli	s2,s2,0x30
 5d0:	1301                	addi	t1,t1,-32
 5d2:	0000                	unimp
 5d4:	2e59                	addiw	t3,t3,22
 5d6:	4701                	li	a4,0
 5d8:	12011113          	0x12011113
 5dc:	96184007          	flq	ft0,-1695(a6)
 5e0:	1942                	slli	s2,s2,0x30
 5e2:	1301                	addi	t1,t1,-32
 5e4:	0000                	unimp
 5e6:	2e5a                	fld	ft8,400(sp)
 5e8:	4701                	li	a4,0
 5ea:	12011113          	0x12011113
 5ee:	97184007          	flq	ft0,-1679(a6)
 5f2:	1942                	slli	s2,s2,0x30
 5f4:	1301                	addi	t1,t1,-32
 5f6:	0000                	unimp
 5f8:	0300055b          	0x300055b
 5fc:	3a0e                	fld	fs4,224(sp)
 5fe:	390b3b0b          	0x390b3b0b
 602:	0213490b          	0x213490b
 606:	0018                	0x18
 608:	5c00                	lw	s0,56(s0)
 60a:	012e                	slli	sp,sp,0xb
 60c:	01111347          	fmsub.s	ft6,ft2,fa7,ft0,rtz
 610:	0712                	slli	a4,a4,0x4
 612:	1840                	addi	s0,sp,52
 614:	00194297          	auipc	t0,0x194
 618:	0000                	unimp
 61a:	1101                	addi	sp,sp,-32
 61c:	2501                	sext.w	a0,a0
 61e:	130e                	slli	t1,t1,0x23
 620:	1b0e030b          	0x1b0e030b
 624:	110e                	slli	sp,sp,0x23
 626:	1201                	addi	tp,tp,-32
 628:	00171007          	0x171007
 62c:	0200                	addi	s0,sp,256
 62e:	0b0b000f          	0xb0b000f
 632:	0000                	unimp
 634:	0b002403          	lw	s0,176(zero) # b0 <STACK_SIZE-0x350>
 638:	030b3e0b          	0x30b3e0b
 63c:	000e                	c.slli	zero,0x3
 63e:	0400                	addi	s0,sp,512
 640:	0026                	c.slli	zero,0x9
 642:	1349                	addi	t1,t1,-14
 644:	0000                	unimp
 646:	2405                	addiw	s0,s0,1
 648:	0b00                	addi	s0,sp,400
 64a:	030b3e0b          	0x30b3e0b
 64e:	0008                	0x8
 650:	0600                	addi	s0,sp,768
 652:	0016                	c.slli	zero,0x5
 654:	0b3a0e03          	lb	t3,179(s4)
 658:	0b390b3b          	0xb390b3b
 65c:	1349                	addi	t1,t1,-14
 65e:	0000                	unimp
 660:	03003b07          	fld	fs6,48(zero) # 30 <STACK_SIZE-0x3d0>
 664:	000e                	c.slli	zero,0x3
 666:	0800                	addi	s0,sp,16
 668:	0b0b000f          	0xb0b000f
 66c:	00000e03          	lb	t3,0(zero) # 0 <STACK_SIZE-0x400>
 670:	3909                	addiw	s2,s2,-30
 672:	0301                	addi	t1,t1,0
 674:	3a0e                	fld	fs4,224(sp)
 676:	390b3b0b          	0x390b3b0b
 67a:	0013010b          	0x13010b
 67e:	0a00                	addi	s0,sp,272
 680:	0034                	addi	a3,sp,8
 682:	0b3a0803          	lb	a6,179(s4)
 686:	0b390b3b          	0xb390b3b
 68a:	1349                	addi	t1,t1,-14
 68c:	193c                	addi	a5,sp,184
 68e:	0b1c                	addi	a5,sp,400
 690:	196c                	addi	a1,sp,188
 692:	0000                	unimp
 694:	0300340b          	0x300340b
 698:	3a0e                	fld	fs4,224(sp)
 69a:	390b3b0b          	0x390b3b0b
 69e:	3c13490b          	0x3c13490b
 6a2:	1c19                	addi	s8,s8,-26
 6a4:	6c06                	ld	s8,64(sp)
 6a6:	0019                	c.nop	6
 6a8:	0c00                	addi	s0,sp,528
 6aa:	0139                	addi	sp,sp,14
 6ac:	0b3a0803          	lb	a6,179(s4)
 6b0:	0b390b3b          	0xb390b3b
 6b4:	0000                	unimp
 6b6:	340d                	addiw	s0,s0,-29
 6b8:	0300                	addi	s0,sp,384
 6ba:	3a08                	fld	fa0,48(a2)
 6bc:	390b3b0b          	0x390b3b0b
 6c0:	3c13490b          	0x3c13490b
 6c4:	1c19                	addi	s8,s8,-26
 6c6:	6c06                	ld	s8,64(sp)
 6c8:	0019                	c.nop	6
 6ca:	0e00                	addi	s0,sp,784
 6cc:	0034                	addi	a3,sp,8
 6ce:	00001347          	fmsub.s	ft6,ft0,ft0,ft0,rtz
 6d2:	0301130f          	0x301130f
 6d6:	0b0e                	slli	s6,s6,0x3
 6d8:	3b0b3a0b          	0x3b0b3a0b
 6dc:	000b390b          	0xb390b
 6e0:	1000                	addi	s0,sp,32
 6e2:	000d                	c.nop	3
 6e4:	0b3a0e03          	lb	t3,179(s4)
 6e8:	0b390b3b          	0xb390b3b
 6ec:	1349                	addi	t1,t1,-14
 6ee:	0b38                	addi	a4,sp,408
 6f0:	0000                	unimp
 6f2:	2e11                	addiw	t3,t3,4
 6f4:	3f01                	addiw	t5,t5,-32
 6f6:	0319                	addi	t1,t1,6
 6f8:	3a0e                	fld	fs4,224(sp)
 6fa:	390b3b0b          	0x390b3b0b
 6fe:	490e6e0b          	0x490e6e0b
 702:	64193c13          	sltiu	s8,s2,1601
 706:	00130113          	addi	sp,t1,1
 70a:	1200                	addi	s0,sp,288
 70c:	0005                	c.nop	1
 70e:	1349                	addi	t1,t1,-14
 710:	1934                	addi	a3,sp,184
 712:	0000                	unimp
 714:	49000513          	li	a0,1168
 718:	14000013          	li	zero,320
 71c:	012e                	slli	sp,sp,0xb
 71e:	0803193f 0b3b0b3a 	0xb3b0b3a0803193f
 726:	0b39                	addi	s6,s6,14
 728:	0e6e                	slli	t3,t3,0x1b
 72a:	193c                	addi	a5,sp,184
 72c:	1364                	addi	s1,sp,428
 72e:	1301                	addi	t1,t1,-32
 730:	0000                	unimp
 732:	2e15                	addiw	t3,t3,5
 734:	3f01                	addiw	t5,t5,-32
 736:	0319                	addi	t1,t1,6
 738:	3a08                	fld	fa0,48(a2)
 73a:	390b3b0b          	0x390b3b0b
 73e:	490e6e0b          	0x490e6e0b
 742:	64193c13          	sltiu	s8,s2,1601
 746:	00130113          	addi	sp,t1,1
 74a:	1600                	addi	s0,sp,800
 74c:	0803002f          	0x803002f
 750:	1349                	addi	t1,t1,-14
 752:	0000                	unimp
 754:	03003017          	auipc	zero,0x3003
 758:	490e                	lw	s2,192(sp)
 75a:	1c191e13          	0x1c191e13
 75e:	1800000b          	0x1800000b
 762:	0101                	addi	sp,sp,0
 764:	1349                	addi	t1,t1,-14
 766:	1301                	addi	t1,t1,-32
 768:	0000                	unimp
 76a:	2119                	addiw	sp,sp,6
 76c:	4900                	lw	s0,16(a0)
 76e:	000b2f13          	slti	t5,s6,0
 772:	1a00                	addi	s0,sp,304
 774:	0b0b000f          	0xb0b000f
 778:	1349                	addi	t1,t1,-14
 77a:	0000                	unimp
 77c:	0300341b          	0x300341b
 780:	3a08                	fld	fa0,48(a2)
 782:	390b3b0b          	0x390b3b0b
 786:	0213490b          	0x213490b
 78a:	0018                	0x18
 78c:	1c00                	addi	s0,sp,560
 78e:	0115                	addi	sp,sp,5
 790:	1301                	addi	t1,t1,-32
 792:	0000                	unimp
 794:	341d                	addiw	s0,s0,-25
 796:	0300                	addi	s0,sp,384
 798:	3a0e                	fld	fs4,224(sp)
 79a:	390b3b0b          	0x390b3b0b
 79e:	3f13490b          	0x3f13490b
 7a2:	3c19                	addiw	s8,s8,-26
 7a4:	0019                	c.nop	6
 7a6:	1e00                	addi	s0,sp,816
 7a8:	0034                	addi	a3,sp,8
 7aa:	0b3a1347          	fmsub.d	ft6,fs4,fs3,ft1,rtz
 7ae:	0b390b3b          	0xb390b3b
 7b2:	1802                	slli	a6,a6,0x20
 7b4:	0000                	unimp
 7b6:	211f 4900 2f13      	0x2f134900211f
 7bc:	0005                	c.nop	1
 7be:	2000                	fld	fs0,0(s0)
 7c0:	0034                	addi	a3,sp,8
 7c2:	0b3a0e03          	lb	t3,179(s4)
 7c6:	0b390b3b          	0xb390b3b
 7ca:	1349                	addi	t1,t1,-14
 7cc:	1802                	slli	a6,a6,0x20
 7ce:	0000                	unimp
 7d0:	2e21                	addiw	t3,t3,8
 7d2:	3f01                	addiw	t5,t5,-32
 7d4:	0319                	addi	t1,t1,6
 7d6:	3a0e                	fld	fs4,224(sp)
 7d8:	390b3b0b          	0x390b3b0b
 7dc:	1113490b          	0x1113490b
 7e0:	1201                	addi	tp,tp,-32
 7e2:	97184007          	flq	ft0,-1679(a6)
 7e6:	1942                	slli	s2,s2,0x30
 7e8:	1301                	addi	t1,t1,-32
 7ea:	0000                	unimp
 7ec:	0522                	slli	a0,a0,0x8
 7ee:	0300                	addi	s0,sp,384
 7f0:	3a08                	fld	fa0,48(a2)
 7f2:	390b3b0b          	0x390b3b0b
 7f6:	0213490b          	0x213490b
 7fa:	0018                	0x18
 7fc:	2300                	fld	fs0,0(a4)
 7fe:	0026                	c.slli	zero,0x9
 800:	0000                	unimp
 802:	0b24                	addi	s1,sp,408
 804:	1101                	addi	sp,sp,-32
 806:	1201                	addi	tp,tp,-32
 808:	25000007          	0x25000007
 80c:	012e                	slli	sp,sp,0xb
 80e:	0e03193f 0b3b0b3a 	0xb3b0b3a0e03193f
 816:	0b39                	addi	s6,s6,14
 818:	0111                	addi	sp,sp,4
 81a:	0712                	slli	a4,a4,0x4
 81c:	1840                	addi	s0,sp,52
 81e:	01194297          	auipc	t0,0x1194
 822:	26000013          	li	zero,608
 826:	0005                	c.nop	1
 828:	0b3a0e03          	lb	t3,179(s4)
 82c:	0b390b3b          	0xb390b3b
 830:	1349                	addi	t1,t1,-14
 832:	1802                	slli	a6,a6,0x20
 834:	0000                	unimp
 836:	3f012e27          	fsw	fa6,1020(sp) # e03077e <STACK_SIZE+0xe03037e>
 83a:	0319                	addi	t1,t1,6
 83c:	3a0e                	fld	fs4,224(sp)
 83e:	390b3b0b          	0x390b3b0b
 842:	110e6e0b          	0x110e6e0b
 846:	1201                	addi	tp,tp,-32
 848:	96184007          	flq	ft0,-1695(a6)
 84c:	1942                	slli	s2,s2,0x30
 84e:	1301                	addi	t1,t1,-32
 850:	0000                	unimp
 852:	2e28                	fld	fa0,88(a2)
 854:	3f01                	addiw	t5,t5,-32
 856:	0319                	addi	t1,t1,6
 858:	3a0e                	fld	fs4,224(sp)
 85a:	390b3b0b          	0x390b3b0b
 85e:	1113490b          	0x1113490b
 862:	1201                	addi	tp,tp,-32
 864:	96184007          	flq	ft0,-1695(a6)
 868:	1942                	slli	s2,s2,0x30
 86a:	1301                	addi	t1,t1,-32
 86c:	0000                	unimp
 86e:	1829                	addi	a6,a6,-22
 870:	0000                	unimp
 872:	2a00                	fld	fs0,16(a2)
 874:	012e                	slli	sp,sp,0xb
 876:	0b3a0e03          	lb	t3,179(s4)
 87a:	0b390b3b          	0xb390b3b
 87e:	1349                	addi	t1,t1,-14
 880:	0111                	addi	sp,sp,4
 882:	0712                	slli	a4,a4,0x4
 884:	1840                	addi	s0,sp,52
 886:	4296                	lw	t0,68(sp)
 888:	0119                	addi	sp,sp,6
 88a:	2b000013          	li	zero,688
 88e:	012e                	slli	sp,sp,0xb
 890:	0b3a0e03          	lb	t3,179(s4)
 894:	0b390b3b          	0xb390b3b
 898:	1349                	addi	t1,t1,-14
 89a:	0111                	addi	sp,sp,4
 89c:	0712                	slli	a4,a4,0x4
 89e:	1840                	addi	s0,sp,52
 8a0:	01194297          	auipc	t0,0x1194
 8a4:	2c000013          	li	zero,704
 8a8:	0111010b          	0x111010b
 8ac:	0712                	slli	a4,a4,0x4
 8ae:	1301                	addi	t1,t1,-32
 8b0:	0000                	unimp
 8b2:	012d                	addi	sp,sp,11
 8b4:	4901                	li	s2,0
 8b6:	00000013          	nop

Disassembly of section .debug_aranges:

0000000000000000 <.debug_aranges>:
   0:	002c                	addi	a1,sp,8
   2:	0000                	unimp
   4:	0002                	c.slli64	zero
   6:	0000                	unimp
   8:	0000                	unimp
   a:	0008                	0x8
   c:	0000                	unimp
   e:	0000                	unimp
  10:	0000                	unimp
  12:	8000                	0x8000
  14:	0000                	unimp
  16:	0000                	unimp
  18:	0028                	addi	a0,sp,8
	...
  2e:	0000                	unimp
  30:	00cc                	addi	a1,sp,68
  32:	0000                	unimp
  34:	0002                	c.slli64	zero
  36:	002e                	c.slli	zero,0xb
  38:	0000                	unimp
  3a:	0008                	0x8
  3c:	0000                	unimp
  3e:	0000                	unimp
  40:	0028                	addi	a0,sp,8
  42:	8000                	0x8000
  44:	0000                	unimp
  46:	0000                	unimp
  48:	0878                	addi	a4,sp,28
  4a:	0000                	unimp
  4c:	0000                	unimp
  4e:	0000                	unimp
  50:	08a0                	addi	s0,sp,88
  52:	8000                	0x8000
  54:	0000                	unimp
  56:	0000                	unimp
  58:	002c                	addi	a1,sp,8
  5a:	0000                	unimp
  5c:	0000                	unimp
  5e:	0000                	unimp
  60:	08cc                	addi	a1,sp,84
  62:	8000                	0x8000
  64:	0000                	unimp
  66:	0000                	unimp
  68:	0028                	addi	a0,sp,8
  6a:	0000                	unimp
  6c:	0000                	unimp
  6e:	0000                	unimp
  70:	08f4                	addi	a3,sp,92
  72:	8000                	0x8000
  74:	0000                	unimp
  76:	0000                	unimp
  78:	0034                	addi	a3,sp,8
  7a:	0000                	unimp
  7c:	0000                	unimp
  7e:	0000                	unimp
  80:	0928                	addi	a0,sp,152
  82:	8000                	0x8000
  84:	0000                	unimp
  86:	0000                	unimp
  88:	007c                	addi	a5,sp,12
  8a:	0000                	unimp
  8c:	0000                	unimp
  8e:	0000                	unimp
  90:	09a4                	addi	s1,sp,216
  92:	8000                	0x8000
  94:	0000                	unimp
  96:	0000                	unimp
  98:	0084                	addi	s1,sp,64
  9a:	0000                	unimp
  9c:	0000                	unimp
  9e:	0000                	unimp
  a0:	0a28                	addi	a0,sp,280
  a2:	8000                	0x8000
  a4:	0000                	unimp
  a6:	0000                	unimp
  a8:	003c                	addi	a5,sp,8
  aa:	0000                	unimp
  ac:	0000                	unimp
  ae:	0000                	unimp
  b0:	0a64                	addi	s1,sp,284
  b2:	8000                	0x8000
  b4:	0000                	unimp
  b6:	0000                	unimp
  b8:	003c                	addi	a5,sp,8
  ba:	0000                	unimp
  bc:	0000                	unimp
  be:	0000                	unimp
  c0:	0aa0                	addi	s0,sp,344
  c2:	8000                	0x8000
  c4:	0000                	unimp
  c6:	0000                	unimp
  c8:	0040                	addi	s0,sp,4
  ca:	0000                	unimp
  cc:	0000                	unimp
  ce:	0000                	unimp
  d0:	0ae0                	addi	s0,sp,348
  d2:	8000                	0x8000
  d4:	0000                	unimp
  d6:	0000                	unimp
  d8:	003c                	addi	a5,sp,8
  da:	0000                	unimp
  dc:	0000                	unimp
  de:	0000                	unimp
  e0:	0b1c                	addi	a5,sp,400
  e2:	8000                	0x8000
  e4:	0000                	unimp
  e6:	0000                	unimp
  e8:	0050                	addi	a2,sp,4
	...
  fe:	0000                	unimp
 100:	002c                	addi	a1,sp,8
 102:	0000                	unimp
 104:	0002                	c.slli64	zero
 106:	1f22                	slli	t5,t5,0x28
 108:	0000                	unimp
 10a:	0008                	0x8
 10c:	0000                	unimp
 10e:	0000                	unimp
 110:	0b6c                	addi	a1,sp,412
 112:	8000                	0x8000
 114:	0000                	unimp
 116:	0000                	unimp
 118:	0c90                	addi	a2,sp,592
	...

Disassembly of section .debug_str:

0000000000000000 <.debug_str>:
       0:	72617473          	csrrci	s0,0x726,2
       4:	2e74                	fld	fa3,216(a2)
       6:	682f0053          	0x682f0053
       a:	2f656d6f          	jal	s10,56300 <STACK_SIZE+0x55f00>
       e:	797a                	ld	s2,440(sp)
      10:	6f432f63          	0x6f432f63
      14:	6964                	ld	s1,208(a0)
      16:	676e                	ld	a4,216(sp)
      18:	4f56522f          	0x4f56522f
      1c:	62732f53          	0x62732f53
      20:	0069                	c.nop	26
      22:	20554e47          	fmsub.s	ft8,fa0,ft5,ft4,rmm
      26:	5341                	li	t1,-16
      28:	3220                	fld	fs0,96(a2)
      2a:	332e                	fld	ft6,232(sp)
      2c:	0032                	c.slli	zero,0xc
      2e:	6170                	ld	a2,192(a0)
      30:	6572                	ld	a0,280(sp)
      32:	746e                	ld	s0,248(sp)
      34:	7000                	ld	s0,32(s0)
      36:	696c                	ld	a1,208(a0)
      38:	65750063          	beq	a0,s7,678 <STACK_SIZE+0x278>
      3c:	6569                	lui	a0,0x1a
      3e:	5f00                	lw	s0,56(a4)
      40:	395a                	fld	fs2,432(sp)
      42:	6974                	ld	a3,208(a0)
      44:	656d                	lui	a0,0x1b
      46:	4972                	lw	s2,28(sp)
      48:	696e                	ld	s2,216(sp)
      4a:	7674                	ld	a3,232(a2)
      4c:	6600                	ld	s0,8(a2)
      4e:	6c75                	lui	s8,0x1d
      50:	006c                	addi	a1,sp,12
      52:	636d                	lui	t1,0x1b
      54:	7561                	lui	a0,0xffff8
      56:	5f006573          	csrrsi	a0,0x5f0,0
      5a:	4e5a                	lw	t3,148(sp)
      5c:	6b34                	ld	a3,80(a4)
      5e:	696c                	ld	a1,208(a0)
      60:	3462                	fld	fs0,56(sp)
      62:	696c                	ld	a1,208(a0)
      64:	50497473          	csrrci	s0,0x504,18
      68:	354e                	fld	fa0,240(sp)
      6a:	65686373          	csrrsi	t1,0x656,16
      6e:	3164                	fld	fs1,224(a0)
      70:	5330                	lw	a2,96(a4)
      72:	64656863          	bltu	a0,t1,6c2 <STACK_SIZE+0x2c2>
      76:	6175                	addi	sp,sp,368
      78:	6c62                	ld	s8,24(sp)
      7a:	4565                	li	a0,25
      7c:	624c                	ld	a1,128(a2)
      7e:	4530                	lw	a2,72(a0)
      80:	4345                	li	t1,17
      82:	4534                	lw	a3,72(a0)
      84:	0076                	c.slli	zero,0x1d
      86:	6575                	lui	a0,0x1d
      88:	7069                	c.lui	zero,0xffffa
      8a:	7000                	ld	s0,32(s0)
      8c:	6761                	lui	a4,0x18
      8e:	5365                	li	t1,-7
      90:	7a69                	lui	s4,0xffffa
      92:	0065                	c.nop	25
      94:	5a5f 344e 6c6b      	0x6c6b344e5a5f
      9a:	6269                	lui	tp,0x1a
      9c:	6c34                	ld	a3,88(s0)
      9e:	7369                	lui	t1,0xffffa
      a0:	4974                	lw	a3,84(a0)
      a2:	4e50                	lw	a2,28(a2)
      a4:	7335                	lui	t1,0xfffed
      a6:	64656863          	bltu	a0,t1,6f6 <STACK_SIZE+0x2f6>
      aa:	3031                	0x3031
      ac:	65686353          	0x65686353
      b0:	7564                	ld	s1,232(a0)
      b2:	6261                	lui	tp,0x18
      b4:	656c                	ld	a1,200(a0)
      b6:	4c45                	li	s8,17
      b8:	3162                	fld	ft2,56(sp)
      ba:	4545                	li	a0,17
      bc:	6938                	ld	a4,80(a0)
      be:	6574                	ld	a3,200(a0)
      c0:	6172                	ld	sp,280(sp)
      c2:	6f74                	ld	a3,216(a4)
      c4:	7072                	0x7072
      c6:	4570                	lw	a2,76(a0)
      c8:	0069                	c.nop	26
      ca:	5a5f 344e 6c6b      	0x6c6b344e5a5f
      d0:	6269                	lui	tp,0x1a
      d2:	6c34                	ld	a3,88(s0)
      d4:	7369                	lui	t1,0xffffa
      d6:	4974                	lw	a3,84(a0)
      d8:	4e50                	lw	a2,28(a2)
      da:	7335                	lui	t1,0xfffed
      dc:	64656863          	bltu	a0,t1,72c <STACK_SIZE+0x32c>
      e0:	3031                	0x3031
      e2:	65686353          	0x65686353
      e6:	7564                	ld	s1,232(a0)
      e8:	6261                	lui	tp,0x18
      ea:	656c                	ld	a1,200(a0)
      ec:	4c45                	li	s8,17
      ee:	3162                	fld	ft2,56(sp)
      f0:	4545                	li	a0,17
      f2:	3031                	0x3031
      f4:	7570                	ld	a2,232(a0)
      f6:	665f6873          	csrrsi	a6,0x665,30
      fa:	6f72                	ld	t5,280(sp)
      fc:	746e                	ld	s0,248(sp)
      fe:	5245                	li	tp,-15
     100:	5f33534b          	fnmsub.q	ft6,ft6,fs3,fa1,unknown
     104:	6900                	ld	s0,16(a0)
     106:	6574                	ld	a3,200(a0)
     108:	6172                	ld	sp,280(sp)
     10a:	6f74                	ld	a3,216(a4)
     10c:	0072                	c.slli	zero,0x1c
     10e:	5a5f 344e 6c6b      	0x6c6b344e5a5f
     114:	6269                	lui	tp,0x1a
     116:	6c34                	ld	a3,88(s0)
     118:	7369                	lui	t1,0xffffa
     11a:	4974                	lw	a3,84(a0)
     11c:	4e50                	lw	a2,28(a2)
     11e:	7335                	lui	t1,0xfffed
     120:	64656863          	bltu	a0,t1,770 <STACK_SIZE+0x370>
     124:	3031                	0x3031
     126:	65686353          	0x65686353
     12a:	7564                	ld	s1,232(a0)
     12c:	6261                	lui	tp,0x18
     12e:	656c                	ld	a1,200(a0)
     130:	4c45                	li	s8,17
     132:	3162                	fld	ft2,56(sp)
     134:	4545                	li	a0,17
     136:	6938                	ld	a4,80(a0)
     138:	6574                	ld	a3,200(a0)
     13a:	6172                	ld	sp,280(sp)
     13c:	6f74                	ld	a3,216(a4)
     13e:	7072                	0x7072
     140:	4570                	lw	a2,76(a0)
     142:	0076                	c.slli	zero,0x1d
     144:	6946                	ld	s2,80(sp)
     146:	6c65                	lui	s8,0x19
     148:	7364                	ld	s1,224(a4)
     14a:	6d00                	ld	s0,24(a0)
     14c:	00656973          	csrrsi	s2,0x6,10
     150:	746d                	lui	s0,0xffffb
     152:	6d69                	lui	s10,0x1a
     154:	6365                	lui	t1,0x19
     156:	706d                	c.lui	zero,0xffffb
     158:	6d00                	ld	s0,24(a0)
     15a:	00706973          	csrrsi	s2,0x7,0
     15e:	6f70                	ld	a2,216(a4)
     160:	5f70                	lw	a2,124(a4)
     162:	7266                	ld	tp,120(sp)
     164:	00746e6f          	jal	t3,4696a <STACK_SIZE+0x4656a>
     168:	5a5f 324e 6d76      	0x6d76324e5a5f
     16e:	3431                	addiw	s0,s0,-20
     170:	6150                	ld	a2,128(a0)
     172:	61546567          	0x61546567
     176:	6c62                	ld	s8,24(sp)
     178:	4565                	li	a0,25
     17a:	746e                	ld	s0,248(sp)
     17c:	7972                	ld	s2,312(sp)
     17e:	6e707033          	0x6e707033
     182:	7645                	lui	a2,0xffff1
     184:	5f00                	lw	s0,56(a4)
     186:	4e5a                	lw	t3,148(sp)
     188:	6b34                	ld	a3,80(a4)
     18a:	696c                	ld	a1,208(a0)
     18c:	3462                	fld	fs0,56(sp)
     18e:	696c                	ld	a1,208(a0)
     190:	50497473          	csrrci	s0,0x504,18
     194:	354e                	fld	fa0,240(sp)
     196:	65686373          	csrrsi	t1,0x656,16
     19a:	3164                	fld	fs1,224(a0)
     19c:	5330                	lw	a2,96(a4)
     19e:	64656863          	bltu	a0,t1,7ee <STACK_SIZE+0x3ee>
     1a2:	6175                	addi	sp,sp,368
     1a4:	6c62                	ld	s8,24(sp)
     1a6:	4565                	li	a0,25
     1a8:	624c                	ld	a1,128(a2)
     1aa:	4531                	li	a0,12
     1ac:	3145                	addiw	sp,sp,-15
     1ae:	6932                	ld	s2,264(sp)
     1b0:	736e                	ld	t1,248(sp)
     1b2:	7265                	lui	tp,0xffff9
     1b4:	4274                	lw	a3,68(a2)
     1b6:	6665                	lui	a2,0x19
     1b8:	4565726f          	jal	tp,5760e <STACK_SIZE+0x5720e>
     1bc:	4e50                	lw	a2,28(a2)
     1be:	4c385f53          	0x4c385f53
     1c2:	7369                	lui	t1,0xffffa
     1c4:	4e74                	lw	a3,92(a2)
     1c6:	4965646f          	jal	s0,5665c <STACK_SIZE+0x5625c>
     1ca:	455f3353          	0x455f3353
     1ce:	5345                	li	t1,-15
     1d0:	69005f37          	lui	t5,0x69005
     1d4:	746e                	ld	s0,248(sp)
     1d6:	7265                	lui	tp,0xffff9
     1d8:	7572                	ld	a0,312(sp)
     1da:	7470                	ld	a2,232(s0)
     1dc:	656e0073          	0x656e0073
     1e0:	7478                	ld	a4,232(s0)
     1e2:	5f00                	lw	s0,56(a4)
     1e4:	345a                	fld	fs0,432(sp)
     1e6:	6d6d                	lui	s10,0x1b
     1e8:	6f69                	lui	t5,0x1a
     1ea:	4e49                	li	t3,18
     1ec:	7038                	ld	a4,96(s0)
     1ee:	616c                	ld	a1,192(a0)
     1f0:	6674                	ld	a3,200(a2)
     1f2:	356d726f          	jal	tp,d7548 <STACK_SIZE+0xd7148>
     1f6:	6175                	addi	sp,sp,368
     1f8:	7472                	ld	s0,312(sp)
     1fa:	3330                	fld	fa2,96(a4)
     1fc:	736c                	ld	a1,224(a4)
     1fe:	4572                	lw	a0,28(sp)
     200:	5245                	li	tp,-15
     202:	5f54                	lw	a3,60(a4)
     204:	006d                	c.nop	27
     206:	6568                	ld	a0,200(a0)
     208:	6461                	lui	s0,0x18
     20a:	7000                	ld	s0,32(s0)
     20c:	616c                	ld	a1,192(a0)
     20e:	6674                	ld	a3,200(a2)
     210:	006d726f          	jal	tp,d7216 <STACK_SIZE+0xd6e16>
     214:	5a5f 354e 6c61      	0x6c61354e5a5f
     21a:	6f6c                	ld	a1,216(a4)
     21c:	61503763          	0x61503763
     220:	674d6567          	0x674d6567
     224:	4472                	lw	s0,28(sp)
     226:	4534                	lw	a3,72(a0)
     228:	0076                	c.slli	zero,0x1d
     22a:	6e72656b          	0x6e72656b
     22e:	6c65                	lui	s8,0x19
     230:	6d50                	ld	a2,152(a0)
     232:	65007267          	0x65007267
     236:	6c6c6163          	bltu	s8,t1,8f8 <STACK_SIZE+0x4f8>
     23a:	65730073          	0x65730073
     23e:	6c6c6163          	bltu	s8,t1,900 <STACK_SIZE+0x500>
     242:	6148                	ld	a0,128(a0)
     244:	646e                	ld	s0,216(sp)
     246:	656c                	ld	a1,200(a0)
     248:	0072                	c.slli	zero,0x1c
     24a:	5a5f 334e 7363      	0x7363334e5a5f
     250:	3472                	fld	fs0,312(sp)
     252:	6168                	ld	a0,192(a0)
     254:	7472                	ld	s0,312(sp)
     256:	7645                	lui	a2,0xffff1
     258:	5f00                	lw	s0,56(a4)
     25a:	4e5a                	lw	t3,148(sp)
     25c:	6135                	addi	sp,sp,352
     25e:	6c6c                	ld	a1,216(s0)
     260:	4837636f          	jal	t1,76ee2 <STACK_SIZE+0x76ae2>
     264:	6165                	addi	sp,sp,112
     266:	4d70                	lw	a2,92(a0)
     268:	67387267          	0x67387267
     26c:	6f72                	ld	t5,280(sp)
     26e:	61654877          	0x61654877
     272:	4570                	lw	a2,76(a0)
     274:	0076                	c.slli	zero,0x1d
     276:	6e69                	lui	t3,0x1a
     278:	74726573          	csrrsi	a0,0x747,4
     27c:	6641                	lui	a2,0x10
     27e:	6574                	ld	a3,200(a0)
     280:	0072                	c.slli	zero,0x1c
     282:	66664f67          	0x66664f67
     286:	6b00                	ld	s0,16(a4)
     288:	7265                	lui	tp,0xffff9
     28a:	656e                	ld	a0,216(sp)
     28c:	006c                	addi	a1,sp,12
     28e:	62696c6b          	0x62696c6b
     292:	5f00                	lw	s0,56(a4)
     294:	4e5a                	lw	t3,148(sp)
     296:	6b34                	ld	a3,80(a4)
     298:	696c                	ld	a1,208(a0)
     29a:	3762                	fld	fa4,56(sp)
     29c:	6972                	ld	s2,280(sp)
     29e:	676e                	ld	a4,216(sp)
     2a0:	7562                	ld	a0,56(sp)
     2a2:	4966                	lw	s2,88(sp)
     2a4:	316d4c63          	blt	s10,s6,5bc <STACK_SIZE+0x1bc>
     2a8:	3832                	fld	fa6,296(sp)
     2aa:	4545                	li	a0,17
     2ac:	74656733          	0x74656733
     2b0:	7645                	lui	a2,0xffff1
     2b2:	5f00                	lw	s0,56(a4)
     2b4:	4e5a                	lw	t3,148(sp)
     2b6:	6135                	addi	sp,sp,352
     2b8:	6c6c                	ld	a1,216(s0)
     2ba:	5037636f          	jal	t1,76fbc <STACK_SIZE+0x76bbc>
     2be:	6761                	lui	a4,0x18
     2c0:	4d65                	li	s10,25
     2c2:	61357267          	0x61357267
     2c6:	6c6c                	ld	a1,216(s0)
     2c8:	6d45636f          	jal	t1,5699c <STACK_SIZE+0x5659c>
     2cc:	5300                	lw	s0,32(a4)
     2ce:	6174                	ld	a3,192(a0)
     2d0:	6574                	ld	a3,200(a0)
     2d2:	6300                	ld	s0,0(a4)
     2d4:	7275                	lui	tp,0xffffd
     2d6:	6950                	ld	a2,144(a0)
     2d8:	0064                	addi	s1,sp,12
     2da:	746d                	lui	s0,0xffffb
     2dc:	6172                	ld	sp,280(sp)
     2de:	5f70                	lw	a2,124(a4)
     2e0:	6574                	ld	a3,200(a0)
     2e2:	6d007473          	csrrci	s0,0x6d0,0
     2e6:	7274                	ld	a3,224(a2)
     2e8:	7061                	c.lui	zero,0xffff8
     2ea:	70617277          	0x70617277
     2ee:	6570                	ld	a2,200(a0)
     2f0:	0072                	c.slli	zero,0x1c
     2f2:	5a5f 354e 6c61      	0x6c61354e5a5f
     2f8:	6f6c                	ld	a1,216(a4)
     2fa:	61503763          	0x61503763
     2fe:	674d6567          	0x674d6567
     302:	4372                	lw	t1,28(sp)
     304:	4534                	lw	a3,72(a0)
     306:	6d6d                	lui	s10,0x1b
     308:	7000                	ld	s0,32(s0)
     30a:	7375                	lui	t1,0xffffd
     30c:	5f68                	lw	a0,124(a4)
     30e:	7266                	ld	tp,120(sp)
     310:	00746e6f          	jal	t3,46b16 <STACK_SIZE+0x46716>
     314:	746d                	lui	s0,0xffffb
     316:	6176                	ld	sp,344(sp)
     318:	006c                	addi	a1,sp,12
     31a:	6d6d                	lui	s10,0x1b
     31c:	6f69                	lui	t5,0x1a
     31e:	763c                	ld	a5,104(a2)
     320:	74616c6f          	jal	s8,16a66 <STACK_SIZE+0x16666>
     324:	6c69                	lui	s8,0x1a
     326:	2065                	0x2065
     328:	6c70                	ld	a2,216(s0)
     32a:	7461                	lui	s0,0xffff8
     32c:	6f66                	ld	t5,88(sp)
     32e:	6d72                	ld	s10,280(sp)
     330:	3a3a                	fld	fs4,424(sp)
     332:	6175                	addi	sp,sp,368
     334:	7472                	ld	s0,312(sp)
     336:	3a30                	fld	fa2,112(a2)
     338:	6c3a                	ld	s8,392(sp)
     33a:	003e7273          	csrrci	tp,fcsr,28
     33e:	6572                	ld	a0,280(sp)
     340:	5f007367          	0x5f007367
     344:	345a                	fld	fs0,432(sp)
     346:	6d6d                	lui	s10,0x1b
     348:	6f69                	lui	t5,0x1a
     34a:	5649                	li	a2,-14
     34c:	4568                	lw	a0,76(a0)
     34e:	5452                	lw	s0,52(sp)
     350:	6d5f 5f00 4e5a      	0x4e5a5f006d5f
     356:	6b34                	ld	a3,80(a4)
     358:	696c                	ld	a1,208(a0)
     35a:	3762                	fld	fa4,56(sp)
     35c:	6972                	ld	s2,280(sp)
     35e:	676e                	ld	a4,216(sp)
     360:	7562                	ld	a0,56(sp)
     362:	4966                	lw	s2,88(sp)
     364:	316d4c63          	blt	s10,s6,67c <STACK_SIZE+0x27c>
     368:	3832                	fld	fa6,296(sp)
     36a:	4545                	li	a0,17
     36c:	706f7033          	0x706f7033
     370:	7645                	lui	a2,0xffff1
     372:	6800                	ld	s0,16(s0)
     374:	00656973          	csrrsi	s2,0x6,10
     378:	65686373          	csrrsi	t1,0x656,16
     37c:	0064                	addi	s1,sp,12
     37e:	5a5f 324e 4f49      	0x4f49324e5a5f
     384:	6e34                	ld	a3,88(a2)
     386:	7865                	lui	a6,0xffff9
     388:	4574                	lw	a3,76(a0)
     38a:	0076                	c.slli	zero,0x1d
     38c:	696c                	ld	a1,208(a0)
     38e:	733c7473          	csrrci	s0,0x733,24
     392:	64656863          	bltu	a0,t1,9e2 <STACK_SIZE+0x5e2>
     396:	3a3a                	fld	fs4,424(sp)
     398:	65686353          	0x65686353
     39c:	7564                	ld	s1,232(a0)
     39e:	6261                	lui	tp,0x18
     3a0:	656c                	ld	a1,200(a0)
     3a2:	2c2a                	fld	fs8,136(sp)
     3a4:	6620                	ld	s0,72(a2)
     3a6:	6c61                	lui	s8,0x18
     3a8:	003e6573          	csrrsi	a0,fcsr,28
     3ac:	7552                	ld	a0,304(sp)
     3ae:	6e6e                	ld	t3,216(sp)
     3b0:	6e69                	lui	t3,0x1a
     3b2:	73680067          	jr	1846(a6) # ffffffffffff9736 <_ZL7out_buf+0xffffffff7fff550e>
     3b6:	7069                	c.lui	zero,0xffffa
     3b8:	6500                	ld	s0,8(a0)
     3ba:	6378                	ld	a4,192(a4)
     3bc:	7065                	c.lui	zero,0xffff9
     3be:	6974                	ld	a3,208(a0)
     3c0:	00736e6f          	jal	t3,36bc6 <STACK_SIZE+0x367c6>
     3c4:	5a5f 354e 6c61      	0x6c61354e5a5f
     3ca:	6f6c                	ld	a1,216(a4)
     3cc:	61503763          	0x61503763
     3d0:	674d6567          	0x674d6567
     3d4:	3572                	fld	fa0,312(sp)
     3d6:	7270                	ld	a2,224(a2)
     3d8:	6e69                	lui	t3,0x1a
     3da:	4574                	lw	a3,76(a0)
     3dc:	0076                	c.slli	zero,0x1d
     3de:	5a5f 344e 6c6b      	0x6c6b344e5a5f
     3e4:	6269                	lui	tp,0x1a
     3e6:	6c34                	ld	a3,88(s0)
     3e8:	7369                	lui	t1,0xffffa
     3ea:	4974                	lw	a3,84(a0)
     3ec:	4e50                	lw	a2,28(a2)
     3ee:	7335                	lui	t1,0xfffed
     3f0:	64656863          	bltu	a0,t1,a40 <STACK_SIZE+0x640>
     3f4:	3031                	0x3031
     3f6:	65686353          	0x65686353
     3fa:	7564                	ld	s1,232(a0)
     3fc:	6261                	lui	tp,0x18
     3fe:	656c                	ld	a1,200(a0)
     400:	4c45                	li	s8,17
     402:	3062                	fld	ft0,56(sp)
     404:	4545                	li	a0,17
     406:	646e6533          	0x646e6533
     40a:	7645                	lui	a2,0xffff1
     40c:	5f00                	lw	s0,56(a4)
     40e:	4e5a                	lw	t3,148(sp)
     410:	6b34                	ld	a3,80(a4)
     412:	696c                	ld	a1,208(a0)
     414:	3462                	fld	fs0,56(sp)
     416:	696c                	ld	a1,208(a0)
     418:	50497473          	csrrci	s0,0x504,18
     41c:	354e                	fld	fa0,240(sp)
     41e:	65686373          	csrrsi	t1,0x656,16
     422:	3164                	fld	fs1,224(a0)
     424:	5330                	lw	a2,96(a4)
     426:	64656863          	bltu	a0,t1,a76 <STACK_SIZE+0x676>
     42a:	6175                	addi	sp,sp,368
     42c:	6c62                	ld	s8,24(sp)
     42e:	4565                	li	a0,25
     430:	624c                	ld	a1,128(a2)
     432:	4530                	lw	a2,72(a0)
     434:	3945                	addiw	s2,s2,-15
     436:	7570                	ld	a2,232(a0)
     438:	625f6873          	csrrsi	a6,0x625,30
     43c:	6361                	lui	t1,0x18
     43e:	4e50456b          	0x4e50456b
     442:	4c385f53          	0x4c385f53
     446:	7369                	lui	t1,0xffffa
     448:	4e74                	lw	a3,92(a2)
     44a:	4965646f          	jal	s0,568e0 <STACK_SIZE+0x564e0>
     44e:	455f3353          	0x455f3353
     452:	0045                	c.nop	17
     454:	4f75                	li	t5,29
     456:	6666                	ld	a2,88(sp)
     458:	5f00                	lw	s0,56(a4)
     45a:	4e5a                	lw	t3,148(sp)
     45c:	6b34                	ld	a3,80(a4)
     45e:	696c                	ld	a1,208(a0)
     460:	3762                	fld	fa4,56(sp)
     462:	6972                	ld	s2,280(sp)
     464:	676e                	ld	a4,216(sp)
     466:	7562                	ld	a0,56(sp)
     468:	4966                	lw	s2,88(sp)
     46a:	316d4c63          	blt	s10,s6,782 <STACK_SIZE+0x382>
     46e:	3832                	fld	fa6,296(sp)
     470:	4545                	li	a0,17
     472:	74757033          	0x74757033
     476:	6345                	lui	t1,0x11
     478:	6d00                	ld	s0,24(a0)
     47a:	74617473          	csrrci	s0,0x746,2
     47e:	7375                	lui	t1,0xffffd
     480:	7400                	ld	s0,40(s0)
     482:	6d69                	lui	s10,0x1a
     484:	7265                	lui	tp,0xffff9
     486:	6e49                	lui	t3,0x12
     488:	6574                	ld	a3,200(a0)
     48a:	7672                	ld	a2,312(sp)
     48c:	6c61                	lui	s8,0x18
     48e:	5f00                	lw	s0,56(a4)
     490:	4e5a                	lw	t3,148(sp)
     492:	7335                	lui	t1,0xfffed
     494:	64656863          	bltu	a0,t1,ae4 <STACK_SIZE+0x6e4>
     498:	3031                	0x3031
     49a:	65686353          	0x65686353
     49e:	7564                	ld	s1,232(a0)
     4a0:	6261                	lui	tp,0x18
     4a2:	656c                	ld	a1,200(a0)
     4a4:	69453443          	fmadd.s	fs0,fa0,fs4,fa3,rup
     4a8:	63530073          	0x63530073
     4ac:	6568                	ld	a0,200(a0)
     4ae:	7564                	ld	s1,232(a0)
     4b0:	656c                	ld	a1,200(a0)
     4b2:	0072                	c.slli	zero,0x1c
     4b4:	6c70                	ld	a2,216(s0)
     4b6:	6369                	lui	t1,0x1a
     4b8:	6e49                	lui	t3,0x12
     4ba:	7469                	lui	s0,0xffffa
     4bc:	6300                	ld	s0,0(a4)
     4be:	6572                	ld	a0,280(sp)
     4c0:	7461                	lui	s0,0xffff8
     4c2:	5065                	c.li	zero,-7
     4c4:	4e54                	lw	a3,28(a2)
     4c6:	0065646f          	jal	s0,564cc <STACK_SIZE+0x560cc>
     4ca:	65697073          	csrci	0x656,18
     4ce:	7300                	ld	s0,32(a4)
     4d0:	7465                	lui	s0,0xffff9
     4d2:	5450                	lw	a2,44(s0)
     4d4:	6f4e                	ld	t5,208(sp)
     4d6:	6564                	ld	s1,200(a0)
     4d8:	6200                	ld	s0,0(a2)
     4da:	7361                	lui	t1,0xffff8
     4dc:	0065                	c.nop	25
     4de:	65686353          	0x65686353
     4e2:	7564                	ld	s1,232(a0)
     4e4:	6261                	lui	tp,0x18
     4e6:	656c                	ld	a1,200(a0)
     4e8:	6300                	ld	s0,0(a4)
     4ea:	616c                	ld	a1,192(a0)
     4ec:	6d69                	lui	s10,0x1a
     4ee:	6d00                	ld	s0,24(a0)
     4f0:	696d                	lui	s2,0x1b
     4f2:	68633c6f          	jal	s8,33b78 <STACK_SIZE+0x33778>
     4f6:	7261                	lui	tp,0xffff8
     4f8:	003e                	c.slli	zero,0xf
     4fa:	5a5f 354e 6c61      	0x6c61354e5a5f
     500:	6f6c                	ld	a1,216(a4)
     502:	65483763          	0x65483763
     506:	7061                	c.lui	zero,0xffff8
     508:	674d                	lui	a4,0x13
     50a:	3572                	fld	fa0,312(sp)
     50c:	6c61                	lui	s8,0x18
     50e:	6f6c                	ld	a1,216(a4)
     510:	006d4563          	blt	s10,t1,51a <STACK_SIZE+0x11a>
     514:	5a5f 324e 6d76      	0x6d76324e5a5f
     51a:	3431                	addiw	s0,s0,-20
     51c:	6150                	ld	a2,128(a0)
     51e:	61546567          	0x61546567
     522:	6c62                	ld	s8,24(sp)
     524:	4565                	li	a0,25
     526:	746e                	ld	s0,248(sp)
     528:	7972                	ld	s2,312(sp)
     52a:	6936                	ld	s2,328(sp)
     52c:	61654c73          	0x61654c73
     530:	4566                	lw	a0,88(sp)
     532:	0076                	c.slli	zero,0x1d
     534:	5a5f 354e 6c61      	0x6c61354e5a5f
     53a:	6f6c                	ld	a1,216(a4)
     53c:	65483763          	0x65483763
     540:	7061                	c.lui	zero,0xffff8
     542:	674d                	lui	a4,0x13
     544:	4372                	lw	t1,28(sp)
     546:	4534                	lw	a3,72(a0)
     548:	7650                	ld	a2,168(a2)
     54a:	006d                	c.nop	27
     54c:	5a5f 7538 7261      	0x726175385a5f
     552:	4974                	lw	a3,84(a0)
     554:	696e                	ld	s2,216(sp)
     556:	7674                	ld	a3,232(a2)
     558:	7700                	ld	s0,40(a4)
     55a:	0066664f          	fnmadd.s	fa2,fa2,ft6,ft0,unknown
     55e:	5a5f 344e 6c6b      	0x6c6b344e5a5f
     564:	6269                	lui	tp,0x1a
     566:	6c34                	ld	a3,88(s0)
     568:	7369                	lui	t1,0xffffa
     56a:	4974                	lw	a3,84(a0)
     56c:	4e50                	lw	a2,28(a2)
     56e:	7335                	lui	t1,0xfffed
     570:	64656863          	bltu	a0,t1,bc0 <STACK_SIZE+0x7c0>
     574:	3031                	0x3031
     576:	65686353          	0x65686353
     57a:	7564                	ld	s1,232(a0)
     57c:	6261                	lui	tp,0x18
     57e:	656c                	ld	a1,200(a0)
     580:	4c45                	li	s8,17
     582:	3062                	fld	ft0,56(sp)
     584:	4545                	li	a0,17
     586:	3031                	0x3031
     588:	7570                	ld	a2,232(a0)
     58a:	665f6873          	csrrsi	a6,0x665,30
     58e:	6f72                	ld	t5,280(sp)
     590:	746e                	ld	s0,248(sp)
     592:	5045                	c.li	zero,-15
     594:	534e                	lw	t1,240(sp)
     596:	385f 694c 7473      	0x7473694c385f
     59c:	6f4e                	ld	t5,208(sp)
     59e:	6564                	ld	s1,200(a0)
     5a0:	5349                	li	t1,-14
     5a2:	45455f33          	0x45455f33
     5a6:	5f00                	lw	s0,56(a4)
     5a8:	7372                	ld	t1,312(sp)
     5aa:	736c0077          	0x736c0077
     5ae:	6275                	lui	tp,0x1d
     5b0:	7000                	ld	s0,32(s0)
     5b2:	7375                	lui	t1,0xffffd
     5b4:	5f68                	lw	a0,124(a4)
     5b6:	6162                	ld	sp,24(sp)
     5b8:	4c006b63          	bltu	zero,zero,a8e <STACK_SIZE+0x68e>
     5bc:	7369                	lui	t1,0xffffa
     5be:	4e74                	lw	a3,92(a2)
     5c0:	3c65646f          	jal	s0,56986 <STACK_SIZE+0x56586>
     5c4:	65686373          	csrrsi	t1,0x656,16
     5c8:	3a64                	fld	fs1,240(a2)
     5ca:	533a                	lw	t1,172(sp)
     5cc:	64656863          	bltu	a0,t1,c1c <STACK_SIZE+0x81c>
     5d0:	6175                	addi	sp,sp,368
     5d2:	6c62                	ld	s8,24(sp)
     5d4:	2a65                	addiw	s4,s4,25
     5d6:	003e                	c.slli	zero,0xf
     5d8:	6c696863          	bltu	s2,t1,ca8 <STACK_SIZE+0x8a8>
     5dc:	0064                	addi	s1,sp,12
     5de:	6e72654b          	fnmsub.q	fa0,ft4,ft7,fa3,unknown
     5e2:	6c65                	lui	s8,0x19
     5e4:	6154                	ld	a3,128(a0)
     5e6:	624f6b73          	csrrsi	s6,0x624,30
     5ea:	736a                	ld	t1,184(sp)
     5ec:	6500                	ld	s0,8(a0)
     5ee:	616e                	ld	sp,216(sp)
     5f0:	6c62                	ld	s8,24(sp)
     5f2:	0065                	c.nop	25
     5f4:	6e72654b          	fnmsub.q	fa0,ft4,ft7,fa3,unknown
     5f8:	6c65                	lui	s8,0x19
     5fa:	626f6c47          	fmsub.d	fs8,ft10,ft6,fa2,unknown
     5fe:	6c61                	lui	s8,0x18
     600:	736a624f          	fnmadd.d	ft4,fs4,fs6,fa4,unknown
     604:	7800                	ld	s0,48(s0)
     606:	00656973          	csrrsi	s2,0x6,10
     60a:	6c70                	ld	a2,216(s0)
     60c:	6369                	lui	t1,0x1a
     60e:	69616c43          	fmadd.s	fs8,ft2,fs6,fa3,unknown
     612:	006d                	c.nop	27
     614:	7570                	ld	a2,232(a0)
     616:	6374                	ld	a3,192(a4)
     618:	5f00                	lw	s0,56(a4)
     61a:	4e5a                	lw	t3,148(sp)
     61c:	6b34                	ld	a3,80(a4)
     61e:	696c                	ld	a1,208(a0)
     620:	3462                	fld	fs0,56(sp)
     622:	696c                	ld	a1,208(a0)
     624:	50497473          	csrrci	s0,0x504,18
     628:	354e                	fld	fa0,240(sp)
     62a:	65686373          	csrrsi	t1,0x656,16
     62e:	3164                	fld	fs1,224(a0)
     630:	5330                	lw	a2,96(a4)
     632:	64656863          	bltu	a0,t1,c82 <STACK_SIZE+0x882>
     636:	6175                	addi	sp,sp,368
     638:	6c62                	ld	s8,24(sp)
     63a:	4565                	li	a0,25
     63c:	624c                	ld	a1,128(a2)
     63e:	4531                	li	a0,12
     640:	3545                	addiw	a0,a0,-15
     642:	6562                	ld	a0,24(sp)
     644:	456e6967          	0x456e6967
     648:	0076                	c.slli	zero,0x1d
     64a:	6174                	ld	a3,192(a0)
     64c:	6c69                	lui	s8,0x1a
     64e:	7e00                	ld	s0,56(a2)
     650:	6150                	ld	a2,128(a0)
     652:	674d6567          	0x674d6567
     656:	0072                	c.slli	zero,0x1c
     658:	7562                	ld	a0,56(sp)
     65a:	6666                	ld	a2,88(sp)
     65c:	5f00                	lw	s0,56(a4)
     65e:	4e5a                	lw	t3,148(sp)
     660:	7632                	ld	a2,296(sp)
     662:	396d                	addiw	s2,s2,-5
     664:	6150                	ld	a2,128(a0)
     666:	61546567          	0x61546567
     66a:	6c62                	ld	s8,24(sp)
     66c:	3165                	addiw	sp,sp,-7
     66e:	6332                	ld	t1,264(sp)
     670:	6572                	ld	a0,280(sp)
     672:	7461                	lui	s0,0xffff8
     674:	5065                	c.li	zero,-7
     676:	4e54                	lw	a3,28(a2)
     678:	4565646f          	jal	s0,56ace <STACK_SIZE+0x566ce>
     67c:	0076                	c.slli	zero,0x1d
     67e:	7472                	ld	s0,312(sp)
     680:	6176                	ld	sp,344(sp)
     682:	006c                	addi	a1,sp,12
     684:	657a6973          	csrrsi	s2,0x657,20
     688:	745f 6f00 6570      	0x65706f00745f
     68e:	6172                	ld	sp,280(sp)
     690:	6f74                	ld	a3,216(a4)
     692:	2172                	fld	ft2,280(sp)
     694:	003d                	c.nop	15
     696:	5a5f 354e 6373      	0x6373354e5a5f
     69c:	6568                	ld	a0,200(a0)
     69e:	3964                	fld	fs1,240(a0)
     6a0:	65686353          	0x65686353
     6a4:	7564                	ld	s1,232(a0)
     6a6:	656c                	ld	a1,200(a0)
     6a8:	3372                	fld	ft6,312(sp)
     6aa:	6461                	lui	s0,0x18
     6ac:	4564                	lw	s1,76(a0)
     6ae:	4e50                	lw	a2,28(a2)
     6b0:	30315f53          	0x30315f53
     6b4:	65686353          	0x65686353
     6b8:	7564                	ld	s1,232(a0)
     6ba:	6261                	lui	tp,0x18
     6bc:	656c                	ld	a1,200(a0)
     6be:	0045                	c.nop	17
     6c0:	5a5f 324e 6d76      	0x6d76324e5a5f
     6c6:	5039                	c.li	zero,-18
     6c8:	6761                	lui	a4,0x18
     6ca:	5465                	li	s0,-7
     6cc:	6261                	lui	tp,0x18
     6ce:	656c                	ld	a1,200(a0)
     6d0:	3331                	addiw	t1,t1,-20
     6d2:	61657263          	bgeu	a0,s6,cd6 <STACK_SIZE+0x8d6>
     6d6:	6574                	ld	a3,200(a0)
     6d8:	614d                	addi	sp,sp,176
     6da:	7070                	ld	a2,224(s0)
     6dc:	6e69                	lui	t3,0x1a
     6de:	6d6d4567          	0x6d6d4567
     6e2:	686d                	lui	a6,0x1b
     6e4:	5f00                	lw	s0,56(a4)
     6e6:	4e5a                	lw	t3,148(sp)
     6e8:	6b34                	ld	a3,80(a4)
     6ea:	696c                	ld	a1,208(a0)
     6ec:	3462                	fld	fs0,56(sp)
     6ee:	696c                	ld	a1,208(a0)
     6f0:	50497473          	csrrci	s0,0x504,18
     6f4:	354e                	fld	fa0,240(sp)
     6f6:	65686373          	csrrsi	t1,0x656,16
     6fa:	3164                	fld	fs1,224(a0)
     6fc:	5330                	lw	a2,96(a4)
     6fe:	64656863          	bltu	a0,t1,d4e <STACK_SIZE+0x94e>
     702:	6175                	addi	sp,sp,368
     704:	6c62                	ld	s8,24(sp)
     706:	4565                	li	a0,25
     708:	624c                	ld	a1,128(a2)
     70a:	4530                	lw	a2,72(a0)
     70c:	3145                	addiw	sp,sp,-15
     70e:	6932                	ld	s2,264(sp)
     710:	736e                	ld	t1,248(sp)
     712:	7265                	lui	tp,0xffff9
     714:	4274                	lw	a3,68(a2)
     716:	6665                	lui	a2,0x19
     718:	4565726f          	jal	tp,57b6e <STACK_SIZE+0x5776e>
     71c:	4e50                	lw	a2,28(a2)
     71e:	4c385f53          	0x4c385f53
     722:	7369                	lui	t1,0xffffa
     724:	4e74                	lw	a3,92(a2)
     726:	4965646f          	jal	s0,56bbc <STACK_SIZE+0x567bc>
     72a:	455f3353          	0x455f3353
     72e:	5345                	li	t1,-15
     730:	74005f37          	lui	t5,0x74005
     734:	5441536f          	jal	t1,15c78 <STACK_SIZE+0x15878>
     738:	0050                	addi	a2,sp,4
     73a:	6974                	ld	a3,208(a0)
     73c:	656d                	lui	a0,0x1b
     73e:	4972                	lw	s2,28(sp)
     740:	696e                	ld	s2,216(sp)
     742:	0074                	addi	a3,sp,12
     744:	5a5f 354e 6c61      	0x6c61354e5a5f
     74a:	6f6c                	ld	a1,216(a4)
     74c:	65483763          	0x65483763
     750:	7061                	c.lui	zero,0xffff8
     752:	674d                	lui	a4,0x13
     754:	3772                	fld	fa4,312(sp)
     756:	6572                	ld	a0,280(sp)
     758:	6c61                	lui	s8,0x18
     75a:	6f6c                	ld	a1,216(a4)
     75c:	00764563          	blt	a2,t2,766 <STACK_SIZE+0x366>
     760:	7076                	0x7076
     762:	4d6e                	lw	s10,216(sp)
     764:	7361                	lui	t1,0xffff8
     766:	7369006b          	0x7369006b
     76a:	654c                	ld	a1,136(a0)
     76c:	6661                	lui	a2,0x18
     76e:	5f00                	lw	s0,56(a4)
     770:	345a                	fld	fs0,432(sp)
     772:	6d6d                	lui	s10,0x1b
     774:	6f69                	lui	t5,0x1a
     776:	6949                	lui	s2,0x12
     778:	5245                	li	tp,-15
     77a:	5f54                	lw	a3,60(a4)
     77c:	006d                	c.nop	27
     77e:	5a5f 384e 6c70      	0x6c70384e5a5f
     784:	7461                	lui	s0,0xffff8
     786:	6f66                	ld	t5,88(sp)
     788:	6d72                	ld	s10,280(sp)
     78a:	7535                	lui	a0,0xfffed
     78c:	7261                	lui	tp,0xffff8
     78e:	3074                	fld	fa3,224(s0)
     790:	6238                	ld	a4,64(a2)
     792:	6f6c                	ld	a1,216(a4)
     794:	6e696b63          	bltu	s2,t1,e8a <STACK_SIZE+0xa8a>
     798:	75703467          	0x75703467
     79c:	6374                	ld	a3,192(a4)
     79e:	6345                	lui	t1,0x11
     7a0:	7000                	ld	s0,32(s0)
     7a2:	6e32736f          	jal	t1,28684 <STACK_SIZE+0x28284>
     7a6:	0065646f          	jal	s0,567ac <STACK_SIZE+0x563ac>
     7aa:	5a5f 344e 6c6b      	0x6c6b344e5a5f
     7b0:	6269                	lui	tp,0x1a
     7b2:	6c34                	ld	a3,88(s0)
     7b4:	7369                	lui	t1,0xffffa
     7b6:	4974                	lw	a3,84(a0)
     7b8:	4e50                	lw	a2,28(a2)
     7ba:	7335                	lui	t1,0xfffed
     7bc:	64656863          	bltu	a0,t1,e0c <STACK_SIZE+0xa0c>
     7c0:	3031                	0x3031
     7c2:	65686353          	0x65686353
     7c6:	7564                	ld	s1,232(a0)
     7c8:	6261                	lui	tp,0x18
     7ca:	656c                	ld	a1,200(a0)
     7cc:	4c45                	li	s8,17
     7ce:	3162                	fld	ft2,56(sp)
     7d0:	4545                	li	a0,17
     7d2:	7039                	c.lui	zero,0xfffee
     7d4:	7375                	lui	t1,0xffffd
     7d6:	5f68                	lw	a0,124(a4)
     7d8:	6162                	ld	sp,24(sp)
     7da:	50456b63          	bltu	a0,tp,cf0 <STACK_SIZE+0x8f0>
     7de:	534e                	lw	t1,240(sp)
     7e0:	385f 694c 7473      	0x7473694c385f
     7e6:	6f4e                	ld	t5,208(sp)
     7e8:	6564                	ld	s1,200(a0)
     7ea:	5349                	li	t1,-14
     7ec:	45455f33          	0x45455f33
     7f0:	6300                	ld	s0,0(a4)
     7f2:	616c                	ld	a1,192(a0)
     7f4:	6d69                	lui	s10,0x1a
     7f6:	7000664f          	fnmadd.s	fa2,ft0,ft0,fa4,unknown
     7fa:	6e65                	lui	t3,0x19
     7fc:	6964                	ld	s1,208(a0)
     7fe:	676e                	ld	a4,216(sp)
     800:	7400                	ld	s0,40(s0)
     802:	6978                	ld	a4,208(a0)
     804:	6c64                	ld	s1,216(s0)
     806:	0065                	c.nop	25
     808:	6570                	ld	a2,200(a0)
     80a:	6d72                	ld	s10,280(sp)
     80c:	5f00                	lw	s0,56(a4)
     80e:	4e5a                	lw	t3,148(sp)
     810:	7632                	ld	a2,296(sp)
     812:	316d                	addiw	sp,sp,-5
     814:	5034                	lw	a3,96(s0)
     816:	6761                	lui	a4,0x18
     818:	5465                	li	s0,-7
     81a:	6261                	lui	tp,0x18
     81c:	656c                	ld	a1,200(a0)
     81e:	6e45                	lui	t3,0x11
     820:	7274                	ld	a3,224(a2)
     822:	3779                	addiw	a4,a4,-2
     824:	7369                	lui	t1,0xffffa
     826:	6156                	ld	sp,336(sp)
     828:	696c                	ld	a1,208(a0)
     82a:	4564                	lw	s1,76(a0)
     82c:	0076                	c.slli	zero,0x1d
     82e:	656c                	ld	a1,200(a0)
     830:	6576                	ld	a0,344(sp)
     832:	636c                	ld	a1,192(a4)
     834:	746e                	ld	s0,248(sp)
     836:	6e00                	ld	s0,24(a2)
     838:	00656e6f          	jal	t3,5683e <STACK_SIZE+0x5643e>
     83c:	7075                	c.lui	zero,0xffffd
     83e:	6569                	lui	a0,0x1a
     840:	5f00                	lw	s0,56(a4)
     842:	4e5a                	lw	t3,148(sp)
     844:	6b34                	ld	a3,80(a4)
     846:	696c                	ld	a1,208(a0)
     848:	3762                	fld	fa4,56(sp)
     84a:	6972                	ld	s2,280(sp)
     84c:	676e                	ld	a4,216(sp)
     84e:	7562                	ld	a0,56(sp)
     850:	4966                	lw	s2,88(sp)
     852:	316d4c63          	blt	s10,s6,b6a <STACK_SIZE+0x76a>
     856:	3832                	fld	fa6,296(sp)
     858:	4545                	li	a0,17
     85a:	6634                	ld	a3,72(a2)
     85c:	6c75                	lui	s8,0x1d
     85e:	456c                	lw	a1,76(a0)
     860:	0076                	c.slli	zero,0x1d
     862:	6c61                	lui	s8,0x18
     864:	696c                	ld	a1,208(a0)
     866:	64656e67          	0x64656e67
     86a:	615f 6c6c 636f      	0x636f6c6c615f
     870:	6f00                	ld	s0,24(a4)
     872:	6570                	ld	a2,200(a0)
     874:	6172                	ld	sp,280(sp)
     876:	6f74                	ld	a3,216(a4)
     878:	2b72                	fld	fs6,280(sp)
     87a:	736b002b          	0x736b002b
     87e:	7461                	lui	s0,0xffff8
     880:	0070                	addi	a2,sp,12
     882:	2e696273          	csrrsi	tp,0x2e6,18
     886:	75006363          	bltu	zero,a6,fcc <STACK_SIZE+0xbcc>
     88a:	7261                	lui	tp,0xffff8
     88c:	4974                	lw	a3,84(a0)
     88e:	696e                	ld	s2,216(sp)
     890:	0074                	addi	a3,sp,12
     892:	5a5f 4b4e 6b34      	0x6b344b4e5a5f
     898:	696c                	ld	a1,208(a0)
     89a:	3462                	fld	fs0,56(sp)
     89c:	696c                	ld	a1,208(a0)
     89e:	50497473          	csrrci	s0,0x504,18
     8a2:	354e                	fld	fa0,240(sp)
     8a4:	65686373          	csrrsi	t1,0x656,16
     8a8:	3164                	fld	fs1,224(a0)
     8aa:	5330                	lw	a2,96(a4)
     8ac:	64656863          	bltu	a0,t1,efc <STACK_SIZE+0xafc>
     8b0:	6175                	addi	sp,sp,368
     8b2:	6c62                	ld	s8,24(sp)
     8b4:	4565                	li	a0,25
     8b6:	624c                	ld	a1,128(a2)
     8b8:	4531                	li	a0,12
     8ba:	3845                	addiw	a6,a6,-15
     8bc:	7469                	lui	s0,0xffffa
     8be:	7265                	lui	tp,0xffff9
     8c0:	7461                	lui	s0,0xffff8
     8c2:	7165726f          	jal	tp,57fd8 <STACK_SIZE+0x57bd8>
     8c6:	5245                	li	tp,-15
     8c8:	5f35534b          	fnmsub.q	ft6,fa0,fs3,fa1,unknown
     8cc:	6400                	ld	s0,8(s0)
     8ce:	0066664f          	fnmadd.s	fa2,fa2,ft6,ft0,unknown
     8d2:	776f7267          	0x776f7267
     8d6:	6548                	ld	a0,136(a0)
     8d8:	7061                	c.lui	zero,0xffff8
     8da:	7300                	ld	s0,32(a4)
     8dc:	64656863          	bltu	a0,t1,f2c <STACK_SIZE+0xb2c>
     8e0:	6c75                	lui	s8,0x1d
     8e2:	7265                	lui	tp,0xffff9
     8e4:	5f00                	lw	s0,56(a4)
     8e6:	4e5a                	lw	t3,148(sp)
     8e8:	6b34                	ld	a3,80(a4)
     8ea:	696c                	ld	a1,208(a0)
     8ec:	3462                	fld	fs0,56(sp)
     8ee:	696c                	ld	a1,208(a0)
     8f0:	50497473          	csrrci	s0,0x504,18
     8f4:	354e                	fld	fa0,240(sp)
     8f6:	65686373          	csrrsi	t1,0x656,16
     8fa:	3164                	fld	fs1,224(a0)
     8fc:	5330                	lw	a2,96(a4)
     8fe:	64656863          	bltu	a0,t1,f4e <STACK_SIZE+0xb4e>
     902:	6175                	addi	sp,sp,368
     904:	6c62                	ld	s8,24(sp)
     906:	4565                	li	a0,25
     908:	624c                	ld	a1,128(a2)
     90a:	4531                	li	a0,12
     90c:	3545                	addiw	a0,a0,-15
     90e:	7270                	ld	a2,224(a2)
     910:	6e69                	lui	t3,0x1a
     912:	4574                	lw	a3,76(a0)
     914:	4650                	lw	a2,12(a2)
     916:	5276                	lw	tp,124(sp)
     918:	5f33534b          	fnmsub.q	ft6,ft6,fs3,fa1,unknown
     91c:	0045                	c.nop	17
     91e:	5a5f 344e 6c6b      	0x6c6b344e5a5f
     924:	6269                	lui	tp,0x1a
     926:	6c34                	ld	a3,88(s0)
     928:	7369                	lui	t1,0xffffa
     92a:	4974                	lw	a3,84(a0)
     92c:	4e50                	lw	a2,28(a2)
     92e:	7335                	lui	t1,0xfffed
     930:	64656863          	bltu	a0,t1,f80 <STACK_SIZE+0xb80>
     934:	3031                	0x3031
     936:	65686353          	0x65686353
     93a:	7564                	ld	s1,232(a0)
     93c:	6261                	lui	tp,0x18
     93e:	656c                	ld	a1,200(a0)
     940:	4c45                	li	s8,17
     942:	3062                	fld	ft0,56(sp)
     944:	4545                	li	a0,17
     946:	3031                	0x3031
     948:	7570                	ld	a2,232(a0)
     94a:	665f6873          	csrrsi	a6,0x665,30
     94e:	6f72                	ld	t5,280(sp)
     950:	746e                	ld	s0,248(sp)
     952:	5245                	li	tp,-15
     954:	5f33534b          	fnmsub.q	ft6,ft6,fs3,fa1,unknown
     958:	7000                	ld	s0,32(s0)
     95a:	7274                	ld	a3,224(a2)
     95c:	745f 7300 6973      	0x69737300745f
     962:	0065                	c.nop	25
     964:	5a5f 324e 6d76      	0x6d76324e5a5f
     96a:	3431                	addiw	s0,s0,-20
     96c:	6150                	ld	a2,128(a0)
     96e:	61546567          	0x61546567
     972:	6c62                	ld	s8,24(sp)
     974:	4565                	li	a0,25
     976:	746e                	ld	s0,248(sp)
     978:	7972                	ld	s2,312(sp)
     97a:	7035                	c.lui	zero,0xfffed
     97c:	6972                	ld	s2,280(sp)
     97e:	746e                	ld	s0,248(sp)
     980:	7645                	lui	a2,0xffff1
     982:	6d00                	ld	s0,24(a0)
     984:	63617473          	csrrci	s0,0x636,2
     988:	7373006b          	0x7373006b
     98c:	7069                	c.lui	zero,0xffffa
     98e:	6500                	ld	s0,8(a0)
     990:	6c6c6163          	bltu	s8,t1,1052 <STACK_SIZE+0xc52>
     994:	6449                	lui	s0,0x12
     996:	6900                	ld	s0,16(a0)
     998:	6c615673          	csrrwi	a2,0x6c6,2
     99c:	6469                	lui	s0,0x1a
     99e:	4c00                	lw	s0,24(s0)
     9a0:	42504f4f          	fnmadd.d	ft10,ft0,ft5,fs0,rmm
     9a4:	4341                	li	t1,16
     9a6:	6966004b          	fnmsub.s	ft0,fa2,fs6,fa3,rne
     9aa:	6c65                	lui	s8,0x19
     9ac:	7364                	ld	s1,224(a4)
     9ae:	5f00                	lw	s0,56(a4)
     9b0:	4e5a                	lw	t3,148(sp)
     9b2:	72736333          	0x72736333
     9b6:	6d36                	ld	s10,328(sp)
     9b8:	73756163          	bltu	a0,s7,10da <STACK_SIZE+0xcda>
     9bc:	3165                	addiw	sp,sp,-7
     9be:	6931                	lui	s2,0xc
     9c0:	746e4973          	0x746e4973
     9c4:	7265                	lui	tp,0xffff9
     9c6:	7572                	ld	a0,312(sp)
     9c8:	7470                	ld	a2,232(s0)
     9ca:	6d45                	lui	s10,0x11
     9cc:	6600                	ld	s0,8(a2)
     9ce:	6569                	lui	a0,0x1a
     9d0:	646c                	ld	a1,200(s0)
     9d2:	7366664f          	fnmadd.d	fa2,fa2,fs6,fa4,unknown
     9d6:	7465                	lui	s0,0xffff9
     9d8:	6e690073          	0x6e690073
     9dc:	74726573          	csrrsi	a0,0x747,4
     9e0:	6542                	ld	a0,16(sp)
     9e2:	6f66                	ld	t5,88(sp)
     9e4:	6572                	ld	a0,280(sp)
     9e6:	5f00                	lw	s0,56(a4)
     9e8:	4e5a                	lw	t3,148(sp)
     9ea:	7335                	lui	t1,0xfffed
     9ec:	64656863          	bltu	a0,t1,103c <STACK_SIZE+0xc3c>
     9f0:	5339                	li	t1,-18
     9f2:	64656863          	bltu	a0,t1,1042 <STACK_SIZE+0xc42>
     9f6:	6c75                	lui	s8,0x1d
     9f8:	7265                	lui	tp,0xffff9
     9fa:	6e34                	ld	a3,88(a2)
     9fc:	7865                	lui	a6,0xffff9
     9fe:	4574                	lw	a3,76(a0)
     a00:	0076                	c.slli	zero,0x1d
     a02:	7872                	ld	a6,312(sp)
     a04:	656e                	ld	a0,216(sp)
     a06:	706d                	c.lui	zero,0xffffb
     a08:	6d00                	ld	s0,24(a0)
     a0a:	6974                	ld	a3,208(a0)
     a0c:	0065                	c.nop	25
     a0e:	6975                	lui	s2,0x1d
     a10:	746e                	ld	s0,248(sp)
     a12:	5f38                	lw	a4,120(a4)
     a14:	0074                	addi	a3,sp,12
     a16:	5a5f 6d34 696d      	0x696d6d345a5f
     a1c:	456d496f          	jal	s2,d4e72 <STACK_SIZE+0xd4a72>
     a20:	5452                	lw	s0,52(sp)
     a22:	6d5f 5f00 4e5a      	0x4e5a5f006d5f
     a28:	6b34                	ld	a3,80(a4)
     a2a:	696c                	ld	a1,208(a0)
     a2c:	3462                	fld	fs0,56(sp)
     a2e:	696c                	ld	a1,208(a0)
     a30:	50497473          	csrrci	s0,0x504,18
     a34:	354e                	fld	fa0,240(sp)
     a36:	65686373          	csrrsi	t1,0x656,16
     a3a:	3164                	fld	fs1,224(a0)
     a3c:	5330                	lw	a2,96(a4)
     a3e:	64656863          	bltu	a0,t1,108e <STACK_SIZE+0xc8e>
     a42:	6175                	addi	sp,sp,368
     a44:	6c62                	ld	s8,24(sp)
     a46:	4565                	li	a0,25
     a48:	624c                	ld	a1,128(a2)
     a4a:	4531                	li	a0,12
     a4c:	3545                	addiw	a0,a0,-15
     a4e:	6d65                	lui	s10,0x19
     a50:	7470                	ld	a2,232(s0)
     a52:	4579                	li	a0,30
     a54:	0076                	c.slli	zero,0x1d
     a56:	746d                	lui	s0,0xffffb
     a58:	7069                	c.lui	zero,0xffffa
     a5a:	7000                	ld	s0,32(s0)
     a5c:	7265                	lui	tp,0xffff9
     a5e:	5f6d                	li	t5,-5
     a60:	0074                	addi	a3,sp,12
     a62:	6d6d                	lui	s10,0x1b
     a64:	6f69                	lui	t5,0x1a
     a66:	753c                	ld	a5,104(a0)
     a68:	736e                	ld	t1,248(sp)
     a6a:	6769                	lui	a4,0x1a
     a6c:	656e                	ld	a0,216(sp)
     a6e:	2064                	fld	fs1,192(s0)
     a70:	72616863          	bltu	sp,t1,11a0 <STACK_SIZE+0xda0>
     a74:	7620                	ld	s0,104(a2)
     a76:	74616c6f          	jal	s8,171bc <STACK_SIZE+0x16dbc>
     a7a:	6c69                	lui	s8,0x1a
     a7c:	3e65                	addiw	t3,t3,-7
     a7e:	5f00                	lw	s0,56(a4)
     a80:	4e5a                	lw	t3,148(sp)
     a82:	6b34                	ld	a3,80(a4)
     a84:	696c                	ld	a1,208(a0)
     a86:	3462                	fld	fs0,56(sp)
     a88:	696c                	ld	a1,208(a0)
     a8a:	50497473          	csrrci	s0,0x504,18
     a8e:	354e                	fld	fa0,240(sp)
     a90:	65686373          	csrrsi	t1,0x656,16
     a94:	3164                	fld	fs1,224(a0)
     a96:	5330                	lw	a2,96(a4)
     a98:	64656863          	bltu	a0,t1,10e8 <STACK_SIZE+0xce8>
     a9c:	6175                	addi	sp,sp,368
     a9e:	6c62                	ld	s8,24(sp)
     aa0:	4565                	li	a0,25
     aa2:	624c                	ld	a1,128(a2)
     aa4:	4530                	lw	a2,72(a0)
     aa6:	3145                	addiw	sp,sp,-15
     aa8:	6931                	lui	s2,0xc
     aaa:	736e                	ld	t1,248(sp)
     aac:	7265                	lui	tp,0xffff9
     aae:	4174                	lw	a3,68(a0)
     ab0:	7466                	ld	s0,120(sp)
     ab2:	7265                	lui	tp,0xffff9
     ab4:	5045                	c.li	zero,-15
     ab6:	534e                	lw	t1,240(sp)
     ab8:	385f 694c 7473      	0x7473694c385f
     abe:	6f4e                	ld	t5,208(sp)
     ac0:	6564                	ld	s1,200(a0)
     ac2:	5349                	li	t1,-14
     ac4:	45455f33          	0x45455f33
     ac8:	005f3753          	fadd.s	fa4,ft10,ft5,rup
     acc:	5a5f 344e 6c6b      	0x6c6b344e5a5f
     ad2:	6269                	lui	tp,0x1a
     ad4:	6c34                	ld	a3,88(s0)
     ad6:	7369                	lui	t1,0xffffa
     ad8:	4974                	lw	a3,84(a0)
     ada:	4e50                	lw	a2,28(a2)
     adc:	7335                	lui	t1,0xfffed
     ade:	64656863          	bltu	a0,t1,112e <STACK_SIZE+0xd2e>
     ae2:	3031                	0x3031
     ae4:	65686353          	0x65686353
     ae8:	7564                	ld	s1,232(a0)
     aea:	6261                	lui	tp,0x18
     aec:	656c                	ld	a1,200(a0)
     aee:	4c45                	li	s8,17
     af0:	3162                	fld	ft2,56(sp)
     af2:	4545                	li	a0,17
     af4:	646e6533          	0x646e6533
     af8:	7645                	lui	a2,0xffff1
     afa:	7400                	ld	s0,40(s0)
     afc:	6469                	lui	s0,0x1a
     afe:	745f 6c00 6e6f      	0x6e6f6c00745f
     b04:	6f6c2067          	0x6f6c2067
     b08:	676e                	ld	a4,216(sp)
     b0a:	6920                	ld	s0,80(a0)
     b0c:	746e                	ld	s0,248(sp)
     b0e:	6d00                	ld	s0,24(a0)
     b10:	6974                	ld	a3,208(a0)
     b12:	656d                	lui	a0,0x1b
     b14:	4f706d63          	bltu	zero,s7,100e <STACK_SIZE+0xc0e>
     b18:	0066                	c.slli	zero,0x19
     b1a:	7369                	lui	t1,0xffffa
     b1c:	6e49                	lui	t3,0x12
     b1e:	6574                	ld	a3,200(a0)
     b20:	7272                	ld	tp,312(sp)
     b22:	7075                	c.lui	zero,0xffffd
     b24:	0074                	addi	a3,sp,12
     b26:	656d                	lui	a0,0x1b
     b28:	6569                	lui	a0,0x1a
     b2a:	5f00                	lw	s0,56(a4)
     b2c:	4e5a                	lw	t3,148(sp)
     b2e:	6135                	addi	sp,sp,352
     b30:	6c6c                	ld	a1,216(s0)
     b32:	4837636f          	jal	t1,777b4 <STACK_SIZE+0x773b4>
     b36:	6165                	addi	sp,sp,112
     b38:	4d70                	lw	a2,92(a0)
     b3a:	66347267          	0x66347267
     b3e:	6572                	ld	a0,280(sp)
     b40:	4565                	li	a0,25
     b42:	7650                	ld	a2,168(a2)
     b44:	5000                	lw	s0,32(s0)
     b46:	6761                	lui	a4,0x18
     b48:	5465                	li	s0,-7
     b4a:	6261                	lui	tp,0x18
     b4c:	656c                	ld	a1,200(a0)
     b4e:	6e45                	lui	t3,0x11
     b50:	7274                	ld	a3,224(a2)
     b52:	0079                	c.nop	30
     b54:	656d                	lui	a0,0x1b
     b56:	7069                	c.lui	zero,0xffffa
     b58:	5f00                	lw	s0,56(a4)
     b5a:	6c62                	ld	s8,24(sp)
     b5c:	696b636f          	jal	t1,b71f2 <STACK_SIZE+0xb6df2>
     b60:	676e                	ld	a4,216(sp)
     b62:	7570                	ld	a2,232(a0)
     b64:	7374                	ld	a3,224(a4)
     b66:	5000                	lw	s0,32(s0)
     b68:	6e65                	lui	t3,0x19
     b6a:	6964                	ld	s1,208(a0)
     b6c:	676e                	ld	a4,216(sp)
     b6e:	5f00                	lw	s0,56(a4)
     b70:	4e5a                	lw	t3,148(sp)
     b72:	6b34                	ld	a3,80(a4)
     b74:	696c                	ld	a1,208(a0)
     b76:	3462                	fld	fs0,56(sp)
     b78:	696c                	ld	a1,208(a0)
     b7a:	50497473          	csrrci	s0,0x504,18
     b7e:	354e                	fld	fa0,240(sp)
     b80:	65686373          	csrrsi	t1,0x656,16
     b84:	3164                	fld	fs1,224(a0)
     b86:	5330                	lw	a2,96(a4)
     b88:	64656863          	bltu	a0,t1,11d8 <STACK_SIZE+0xdd8>
     b8c:	6175                	addi	sp,sp,368
     b8e:	6c62                	ld	s8,24(sp)
     b90:	4565                	li	a0,25
     b92:	624c                	ld	a1,128(a2)
     b94:	4531                	li	a0,12
     b96:	3945                	addiw	s2,s2,-15
     b98:	6f70                	ld	a2,216(a4)
     b9a:	5f70                	lw	a2,124(a4)
     b9c:	7266                	ld	tp,120(sp)
     b9e:	45746e6f          	jal	t3,477f4 <STACK_SIZE+0x473f4>
     ba2:	0076                	c.slli	zero,0x1d
     ba4:	5a5f 7038 696c      	0x696c70385a5f
     baa:	696e4963          	blt	t3,s6,123c <STACK_SIZE+0xe3c>
     bae:	7674                	ld	a3,232(a2)
     bb0:	6f00                	ld	s0,24(a4)
     bb2:	6570                	ld	a2,200(a0)
     bb4:	6172                	ld	sp,280(sp)
     bb6:	6f74                	ld	a3,216(a4)
     bb8:	2d72                	fld	fs10,280(sp)
     bba:	003e                	c.slli	zero,0xf
     bbc:	6e75                	lui	t3,0x1d
     bbe:	7375                	lui	t1,0xffffd
     bc0:	6465                	lui	s0,0x19
     bc2:	0031                	c.nop	12
     bc4:	746d                	lui	s0,0xffffb
     bc6:	6172                	ld	sp,280(sp)
     bc8:	6870                	ld	a2,208(s0)
     bca:	6e61                	lui	t3,0x18
     bcc:	6c64                	ld	s1,216(s0)
     bce:	7265                	lui	tp,0xffff9
     bd0:	5f00                	lw	s0,56(a4)
     bd2:	4e5a                	lw	t3,148(sp)
     bd4:	6b34                	ld	a3,80(a4)
     bd6:	696c                	ld	a1,208(a0)
     bd8:	3462                	fld	fs0,56(sp)
     bda:	696c                	ld	a1,208(a0)
     bdc:	50497473          	csrrci	s0,0x504,18
     be0:	354e                	fld	fa0,240(sp)
     be2:	65686373          	csrrsi	t1,0x656,16
     be6:	3164                	fld	fs1,224(a0)
     be8:	5330                	lw	a2,96(a4)
     bea:	64656863          	bltu	a0,t1,123a <STACK_SIZE+0xe3a>
     bee:	6175                	addi	sp,sp,368
     bf0:	6c62                	ld	s8,24(sp)
     bf2:	4565                	li	a0,25
     bf4:	624c                	ld	a1,128(a2)
     bf6:	4530                	lw	a2,72(a0)
     bf8:	3945                	addiw	s2,s2,-15
     bfa:	6f70                	ld	a2,216(a4)
     bfc:	5f70                	lw	a2,124(a4)
     bfe:	7266                	ld	tp,120(sp)
     c00:	45746e6f          	jal	t3,47856 <STACK_SIZE+0x47456>
     c04:	0076                	c.slli	zero,0x1d
     c06:	6572                	ld	a0,280(sp)
     c08:	6461                	lui	s0,0x18
     c0a:	0079                	c.nop	30
     c0c:	7265706f          	j	58332 <STACK_SIZE+0x57f32>
     c10:	7461                	lui	s0,0xffff8
     c12:	002a726f          	jal	tp,a7c14 <STACK_SIZE+0xa7814>
     c16:	5a5f 324e 6d76      	0x6d76324e5a5f
     c1c:	5039                	c.li	zero,-18
     c1e:	6761                	lui	a4,0x18
     c20:	5465                	li	s0,-7
     c22:	6261                	lui	tp,0x18
     c24:	656c                	ld	a1,200(a0)
     c26:	50453443          	fmadd.s	fs0,fa0,ft4,fa0,rup
     c2a:	534e                	lw	t1,240(sp)
     c2c:	315f 5034 6761      	0x67615034315f
     c32:	5465                	li	s0,-7
     c34:	6261                	lui	tp,0x18
     c36:	656c                	ld	a1,200(a0)
     c38:	6e45                	lui	t3,0x11
     c3a:	7274                	ld	a3,224(a2)
     c3c:	4579                	li	a0,30
     c3e:	6500                	ld	s0,8(a0)
     c40:	616e                	ld	sp,216(sp)
     c42:	6c62                	ld	s8,24(sp)
     c44:	4f65                	li	t5,25
     c46:	0066                	c.slli	zero,0x19
     c48:	5a5f 384e 6c70      	0x6c70384e5a5f
     c4e:	7461                	lui	s0,0xffff8
     c50:	6f66                	ld	t5,88(sp)
     c52:	6d72                	ld	s10,280(sp)
     c54:	7034                	ld	a3,96(s0)
     c56:	696c                	ld	a1,208(a0)
     c58:	6c633763          	0x6c633763
     c5c:	6961                	lui	s2,0x18
     c5e:	4f6d                	li	t5,27
     c60:	4566                	lw	a0,88(sp)
     c62:	0069                	c.nop	26
     c64:	5a5f 344e 6c6b      	0x6c6b344e5a5f
     c6a:	6269                	lui	tp,0x1a
     c6c:	6c34                	ld	a3,88(s0)
     c6e:	7369                	lui	t1,0xffffa
     c70:	4974                	lw	a3,84(a0)
     c72:	4e50                	lw	a2,28(a2)
     c74:	7335                	lui	t1,0xfffed
     c76:	64656863          	bltu	a0,t1,12c6 <STACK_SIZE+0xec6>
     c7a:	3031                	0x3031
     c7c:	65686353          	0x65686353
     c80:	7564                	ld	s1,232(a0)
     c82:	6261                	lui	tp,0x18
     c84:	656c                	ld	a1,200(a0)
     c86:	4c45                	li	s8,17
     c88:	3062                	fld	ft0,56(sp)
     c8a:	4545                	li	a0,17
     c8c:	6235                	lui	tp,0xd
     c8e:	6765                	lui	a4,0x19
     c90:	6e69                	lui	t3,0x1a
     c92:	7645                	lui	a2,0xffff1
     c94:	5f00                	lw	s0,56(a4)
     c96:	4e5a                	lw	t3,148(sp)
     c98:	6b34                	ld	a3,80(a4)
     c9a:	696c                	ld	a1,208(a0)
     c9c:	3462                	fld	fs0,56(sp)
     c9e:	696c                	ld	a1,208(a0)
     ca0:	50497473          	csrrci	s0,0x504,18
     ca4:	354e                	fld	fa0,240(sp)
     ca6:	65686373          	csrrsi	t1,0x656,16
     caa:	3164                	fld	fs1,224(a0)
     cac:	5330                	lw	a2,96(a4)
     cae:	64656863          	bltu	a0,t1,12fe <STACK_SIZE+0xefe>
     cb2:	6175                	addi	sp,sp,368
     cb4:	6c62                	ld	s8,24(sp)
     cb6:	4565                	li	a0,25
     cb8:	624c                	ld	a1,128(a2)
     cba:	4530                	lw	a2,72(a0)
     cbc:	3545                	addiw	a0,a0,-15
     cbe:	7270                	ld	a2,224(a2)
     cc0:	6e69                	lui	t3,0x1a
     cc2:	4574                	lw	a3,76(a0)
     cc4:	4650                	lw	a2,12(a2)
     cc6:	5276                	lw	tp,124(sp)
     cc8:	5f33534b          	fnmsub.q	ft6,ft6,fs3,fa1,unknown
     ccc:	0045                	c.nop	17
     cce:	5a5f 4b4e 6b34      	0x6b344b4e5a5f
     cd4:	696c                	ld	a1,208(a0)
     cd6:	3462                	fld	fs0,56(sp)
     cd8:	696c                	ld	a1,208(a0)
     cda:	50497473          	csrrci	s0,0x504,18
     cde:	354e                	fld	fa0,240(sp)
     ce0:	65686373          	csrrsi	t1,0x656,16
     ce4:	3164                	fld	fs1,224(a0)
     ce6:	5330                	lw	a2,96(a4)
     ce8:	64656863          	bltu	a0,t1,1338 <STACK_SIZE+0xf38>
     cec:	6175                	addi	sp,sp,368
     cee:	6c62                	ld	s8,24(sp)
     cf0:	4565                	li	a0,25
     cf2:	624c                	ld	a1,128(a2)
     cf4:	4531                	li	a0,12
     cf6:	3845                	addiw	a6,a6,-15
     cf8:	7469                	lui	s0,0xffffa
     cfa:	7265                	lui	tp,0xffff9
     cfc:	7461                	lui	s0,0xffff8
     cfe:	6564726f          	jal	tp,48354 <STACK_SIZE+0x47f54>
     d02:	7645                	lui	a2,0xffff1
     d04:	5f00                	lw	s0,56(a4)
     d06:	4e5a                	lw	t3,148(sp)
     d08:	7335                	lui	t1,0xfffed
     d0a:	64656863          	bltu	a0,t1,135a <STACK_SIZE+0xf5a>
     d0e:	5339                	li	t1,-18
     d10:	64656863          	bltu	a0,t1,1360 <STACK_SIZE+0xf60>
     d14:	6c75                	lui	s8,0x1d
     d16:	7265                	lui	tp,0xffff9
     d18:	76453443          	fmadd.q	fs0,fa0,ft4,fa4,rup
     d1c:	7300                	ld	s0,32(a4)
     d1e:	6962                	ld	s2,24(sp)
     d20:	695f 696e 0074      	0x74696e695f
     d26:	6150                	ld	a2,128(a0)
     d28:	61546567          	0x61546567
     d2c:	6c62                	ld	s8,24(sp)
     d2e:	0065                	c.nop	25
     d30:	7375                	lui	t1,0xffffd
     d32:	6569                	lui	a0,0x1a
     d34:	6800                	ld	s0,16(s0)
     d36:	6974                	ld	a3,208(a0)
     d38:	0065                	c.nop	25
     d3a:	7375                	lui	t1,0xffffd
     d3c:	7069                	c.lui	zero,0xffffa
     d3e:	6800                	ld	s0,16(s0)
     d40:	6974                	ld	a3,208(a0)
     d42:	0070                	addi	a2,sp,12
     d44:	5a5f 344e 6c6b      	0x6c6b344e5a5f
     d4a:	6269                	lui	tp,0x1a
     d4c:	6c34                	ld	a3,88(s0)
     d4e:	7369                	lui	t1,0xffffa
     d50:	4974                	lw	a3,84(a0)
     d52:	4e50                	lw	a2,28(a2)
     d54:	7335                	lui	t1,0xfffed
     d56:	64656863          	bltu	a0,t1,13a6 <STACK_SIZE+0xfa6>
     d5a:	3031                	0x3031
     d5c:	65686353          	0x65686353
     d60:	7564                	ld	s1,232(a0)
     d62:	6261                	lui	tp,0x18
     d64:	656c                	ld	a1,200(a0)
     d66:	4c45                	li	s8,17
     d68:	3162                	fld	ft2,56(sp)
     d6a:	4545                	li	a0,17
     d6c:	76453443          	fmadd.q	fs0,fa0,ft4,fa4,rup
     d70:	5f00                	lw	s0,56(a4)
     d72:	325a                	fld	ft4,432(sp)
     d74:	6534                	ld	a3,72(a0)
     d76:	7478                	ld	a4,232(s0)
     d78:	7265                	lui	tp,0xffff9
     d7a:	616e                	ld	sp,216(sp)
     d7c:	496c                	lw	a1,84(a0)
     d7e:	746e                	ld	s0,248(sp)
     d80:	7265                	lui	tp,0xffff9
     d82:	7572                	ld	a0,312(sp)
     d84:	7470                	ld	a2,232(s0)
     d86:	6148                	ld	a0,128(a0)
     d88:	646e                	ld	s0,216(sp)
     d8a:	656c                	ld	a1,200(a0)
     d8c:	7672                	ld	a2,312(sp)
     d8e:	5f00                	lw	s0,56(a4)
     d90:	4e5a                	lw	t3,148(sp)
     d92:	6135                	addi	sp,sp,352
     d94:	6c6c                	ld	a1,216(s0)
     d96:	5037636f          	jal	t1,77a98 <STACK_SIZE+0x77698>
     d9a:	6761                	lui	a4,0x18
     d9c:	4d65                	li	s10,25
     d9e:	70347267          	0x70347267
     da2:	6e72                	ld	t3,280(sp)
     da4:	4574                	lw	a3,76(a0)
     da6:	006d                	c.nop	27
     da8:	6d6d                	lui	s10,0x1b
     daa:	6f69                	lui	t5,0x1a
     dac:	693c                	ld	a5,80(a0)
     dae:	746e                	ld	s0,248(sp)
     db0:	003e                	c.slli	zero,0xf
     db2:	5a5f 344e 6c6b      	0x6c6b344e5a5f
     db8:	6269                	lui	tp,0x1a
     dba:	6c34                	ld	a3,88(s0)
     dbc:	7369                	lui	t1,0xffffa
     dbe:	4974                	lw	a3,84(a0)
     dc0:	4e50                	lw	a2,28(a2)
     dc2:	7335                	lui	t1,0xfffed
     dc4:	64656863          	bltu	a0,t1,1414 <STACK_SIZE+0x1014>
     dc8:	3031                	0x3031
     dca:	65686353          	0x65686353
     dce:	7564                	ld	s1,232(a0)
     dd0:	6261                	lui	tp,0x18
     dd2:	656c                	ld	a1,200(a0)
     dd4:	4c45                	li	s8,17
     dd6:	3062                	fld	ft0,56(sp)
     dd8:	4545                	li	a0,17
     dda:	6535                	lui	a0,0xd
     ddc:	706d                	c.lui	zero,0xffffb
     dde:	7974                	ld	a3,240(a0)
     de0:	7645                	lui	a2,0xffff1
     de2:	7500                	ld	s0,40(a0)
     de4:	70746173          	csrrsi	sp,0x707,8
     de8:	5500                	lw	s0,40(a0)
     dea:	53726573          	csrrsi	a0,0x537,4
     dee:	6174                	ld	a3,192(a0)
     df0:	5f006b63          	bltu	zero,a6,13e6 <STACK_SIZE+0xfe6>
     df4:	315a                	fld	ft2,432(sp)
     df6:	7531                	lui	a0,0xfffec
     df8:	7261                	lui	tp,0xffff8
     dfa:	4974                	lw	a3,84(a0)
     dfc:	746e                	ld	s0,248(sp)
     dfe:	6554                	ld	a3,136(a0)
     e00:	00767473          	csrrci	s0,0x7,12
     e04:	6770                	ld	a2,200(a4)
     e06:	6274                	ld	a3,192(a2)
     e08:	5f6c                	lw	a1,124(a4)
     e0a:	0074                	addi	a3,sp,12
     e0c:	5a5f 344e 6c6b      	0x6c6b344e5a5f
     e12:	6269                	lui	tp,0x1a
     e14:	6e697237          	lui	tp,0x6e697
     e18:	66756267          	0x66756267
     e1c:	6349                	lui	t1,0x12
     e1e:	6d4c                	ld	a1,152(a0)
     e20:	3231                	addiw	tp,tp,-20
     e22:	4538                	lw	a4,72(a0)
     e24:	3545                	addiw	a0,a0,-15
     e26:	6d65                	lui	s10,0x19
     e28:	7470                	ld	a2,232(s0)
     e2a:	4579                	li	a0,30
     e2c:	0076                	c.slli	zero,0x1d
     e2e:	5a5f 324e 6d76      	0x6d76324e5a5f
     e34:	3431                	addiw	s0,s0,-20
     e36:	6150                	ld	a2,128(a0)
     e38:	61546567          	0x61546567
     e3c:	6c62                	ld	s8,24(sp)
     e3e:	4565                	li	a0,25
     e40:	746e                	ld	s0,248(sp)
     e42:	7972                	ld	s2,312(sp)
     e44:	6335                	lui	t1,0xd
     e46:	6968                	ld	a0,208(a0)
     e48:	646c                	ld	a1,200(s0)
     e4a:	7645                	lui	a2,0xffff1
     e4c:	6800                	ld	s0,16(s0)
     e4e:	6965                	lui	s2,0x19
     e50:	0065                	c.nop	25
     e52:	7372                	ld	t1,312(sp)
     e54:	6275                	lui	tp,0x1d
     e56:	5f00                	lw	s0,56(a4)
     e58:	4e5a                	lw	t3,148(sp)
     e5a:	7632                	ld	a2,296(sp)
     e5c:	396d                	addiw	s2,s2,-5
     e5e:	6150                	ld	a2,128(a0)
     e60:	61546567          	0x61546567
     e64:	6c62                	ld	s8,24(sp)
     e66:	3765                	addiw	a4,a4,-7
     e68:	52746567          	0x52746567
     e6c:	45746f6f          	jal	t5,47ac2 <STACK_SIZE+0x476c2>
     e70:	0076                	c.slli	zero,0x1d
     e72:	6f6c                	ld	a1,216(a4)
     e74:	676e                	ld	a4,216(sp)
     e76:	6420                	ld	s0,72(s0)
     e78:	6c62756f          	jal	a0,2853e <STACK_SIZE+0x2813e>
     e7c:	0065                	c.nop	25
     e7e:	6d6d                	lui	s10,0x1b
     e80:	6f69                	lui	t5,0x1a
     e82:	753c                	ld	a5,104(a0)
     e84:	736e                	ld	t1,248(sp)
     e86:	6769                	lui	a4,0x1a
     e88:	656e                	ld	a0,216(sp)
     e8a:	2064                	fld	fs1,192(s0)
     e8c:	6e69                	lui	t3,0x1a
     e8e:	3e74                	fld	fa3,248(a2)
     e90:	5f00                	lw	s0,56(a4)
     e92:	4e5a                	lw	t3,148(sp)
     e94:	6c6b344b          	0x6c6b344b
     e98:	6269                	lui	tp,0x1a
     e9a:	6c34                	ld	a3,88(s0)
     e9c:	7369                	lui	t1,0xffffa
     e9e:	4974                	lw	a3,84(a0)
     ea0:	4e50                	lw	a2,28(a2)
     ea2:	7335                	lui	t1,0xfffed
     ea4:	64656863          	bltu	a0,t1,14f4 <STACK_SIZE+0x10f4>
     ea8:	3031                	0x3031
     eaa:	65686353          	0x65686353
     eae:	7564                	ld	s1,232(a0)
     eb0:	6261                	lui	tp,0x18
     eb2:	656c                	ld	a1,200(a0)
     eb4:	4c45                	li	s8,17
     eb6:	3162                	fld	ft2,56(sp)
     eb8:	4545                	li	a0,17
     eba:	6938                	ld	a4,80(a0)
     ebc:	6574                	ld	a3,200(a0)
     ebe:	6172                	ld	sp,280(sp)
     ec0:	6f74                	ld	a3,216(a4)
     ec2:	7072                	0x7072
     ec4:	4574                	lw	a3,76(a0)
     ec6:	0076                	c.slli	zero,0x1d
     ec8:	6568                	ld	a0,200(a0)
     eca:	7069                	c.lui	zero,0xffffa
     ecc:	6200                	ld	s0,0(a2)
     ece:	6675                	lui	a2,0x1d
     ed0:	7366                	ld	t1,120(sp)
     ed2:	7a69                	lui	s4,0xffffa
     ed4:	0065                	c.nop	25
     ed6:	6168                	ld	a0,192(a0)
     ed8:	7472                	ld	s0,312(sp)
     eda:	5f00                	lw	s0,56(a4)
     edc:	4e5a                	lw	t3,148(sp)
     ede:	7038                	ld	a4,96(s0)
     ee0:	616c                	ld	a1,192(a0)
     ee2:	6674                	ld	a3,200(a2)
     ee4:	356d726f          	jal	tp,d823a <STACK_SIZE+0xd7e3a>
     ee8:	6175                	addi	sp,sp,368
     eea:	7472                	ld	s0,312(sp)
     eec:	3330                	fld	fa2,96(a4)
     eee:	6572                	ld	a0,280(sp)
     ef0:	534e4567          	0x534e4567
     ef4:	5f30                	lw	a2,120(a4)
     ef6:	7234                	ld	a3,96(a2)
     ef8:	6765                	lui	a4,0x19
     efa:	72004573          	0x72004573
     efe:	0066664f          	fnmadd.s	fa2,fa2,ft6,ft0,unknown
     f02:	7562                	ld	a0,56(sp)
     f04:	6464                	ld	s1,200(s0)
     f06:	4e79                	li	t3,30
     f08:	7365646f          	jal	s0,5763e <STACK_SIZE+0x5723e>
     f0c:	5f00                	lw	s0,56(a4)
     f0e:	345a                	fld	fs0,432(sp)
     f10:	6d6d                	lui	s10,0x1b
     f12:	6f69                	lui	t5,0x1a
     f14:	6a49                	lui	s4,0x12
     f16:	5245                	li	tp,-15
     f18:	5f54                	lw	a3,60(a4)
     f1a:	006d                	c.nop	27
     f1c:	7562                	ld	a0,56(sp)
     f1e:	6464                	ld	s1,200(s0)
     f20:	5479                	li	s0,-2
     f22:	6572                	ld	a0,280(sp)
     f24:	5365                	li	t1,-7
     f26:	7a69                	lui	s4,0xffffa
     f28:	0065                	c.nop	25
     f2a:	6d6d                	lui	s10,0x1b
     f2c:	6f69                	lui	t5,0x1a
     f2e:	6c3c                	ld	a5,88(s0)
     f30:	20676e6f          	jal	t3,77136 <STACK_SIZE+0x76d36>
     f34:	6e75                	lui	t3,0x1d
     f36:	6e676973          	csrrsi	s2,0x6e6,14
     f3a:	6465                	lui	s0,0x19
     f3c:	6920                	ld	s0,80(a0)
     f3e:	746e                	ld	s0,248(sp)
     f40:	003e                	c.slli	zero,0xf
     f42:	5a5f 344e 6c6b      	0x6c6b344e5a5f
     f48:	6269                	lui	tp,0x1a
     f4a:	6c34                	ld	a3,88(s0)
     f4c:	7369                	lui	t1,0xffffa
     f4e:	4974                	lw	a3,84(a0)
     f50:	4e50                	lw	a2,28(a2)
     f52:	7335                	lui	t1,0xfffed
     f54:	64656863          	bltu	a0,t1,15a4 <STACK_SIZE+0x11a4>
     f58:	3031                	0x3031
     f5a:	65686353          	0x65686353
     f5e:	7564                	ld	s1,232(a0)
     f60:	6261                	lui	tp,0x18
     f62:	656c                	ld	a1,200(a0)
     f64:	4c45                	li	s8,17
     f66:	3162                	fld	ft2,56(sp)
     f68:	4545                	li	a0,17
     f6a:	6938                	ld	a4,80(a0)
     f6c:	6574                	ld	a3,200(a0)
     f6e:	6172                	ld	sp,280(sp)
     f70:	6f74                	ld	a3,216(a4)
     f72:	4372                	lw	t1,28(sp)
     f74:	4534                	lw	a3,72(a0)
     f76:	4e50                	lw	a2,28(a2)
     f78:	4c385f53          	0x4c385f53
     f7c:	7369                	lui	t1,0xffffa
     f7e:	4e74                	lw	a3,92(a2)
     f80:	4965646f          	jal	s0,57416 <STACK_SIZE+0x57016>
     f84:	455f3353          	0x455f3353
     f88:	5045                	c.li	zero,-15
     f8a:	005f3453          	fadd.s	fs0,ft10,ft5,rup
     f8e:	5a5f 3031 746d      	0x746d30315a5f
     f94:	6172                	ld	sp,280(sp)
     f96:	5f70                	lw	a2,124(a4)
     f98:	6574                	ld	a3,200(a0)
     f9a:	00767473          	csrrci	s0,0x7,12
     f9e:	6f72                	ld	t5,280(sp)
     fa0:	6100746f          	jal	s0,85b0 <STACK_SIZE+0x81b0>
     fa4:	0066664f          	fnmadd.s	fa2,fa2,ft6,ft0,unknown
     fa8:	20554e47          	fmsub.s	ft8,fa0,ft5,ft4,rmm
     fac:	312b2b43          	fmadd.s	fs6,fs6,fs2,ft6,rdn
     fb0:	2034                	fld	fa3,64(s0)
     fb2:	2e39                	addiw	t3,t3,14
     fb4:	2e32                	fld	ft8,264(sp)
     fb6:	2030                	fld	fa2,64(s0)
     fb8:	6d2d                	lui	s10,0xb
     fba:	7261                	lui	tp,0xffff8
     fbc:	723d6863          	bltu	s10,gp,16ec <STACK_SIZE+0x12ec>
     fc0:	3676                	fld	fa2,376(sp)
     fc2:	6934                	ld	a3,80(a0)
     fc4:	616d                	addi	sp,sp,240
     fc6:	2d20                	fld	fs0,88(a0)
     fc8:	616d                	addi	sp,sp,240
     fca:	6962                	ld	s2,24(sp)
     fcc:	6c3d                	lui	s8,0xf
     fce:	3670                	fld	fa2,232(a2)
     fd0:	2034                	fld	fa3,64(s0)
     fd2:	6d2d                	lui	s10,0xb
     fd4:	646f6d63          	bltu	t5,t1,162e <STACK_SIZE+0x122e>
     fd8:	6c65                	lui	s8,0x19
     fda:	6d3d                	lui	s10,0xf
     fdc:	6465                	lui	s0,0x19
     fde:	6e61                	lui	t3,0x18
     fe0:	2079                	0x2079
     fe2:	6d2d                	lui	s10,0xb
     fe4:	7574                	ld	a3,232(a0)
     fe6:	656e                	ld	a0,216(sp)
     fe8:	723d                	lui	tp,0xfffef
     fea:	656b636f          	jal	t1,b7640 <STACK_SIZE+0xb7240>
     fee:	2074                	fld	fa3,192(s0)
     ff0:	672d                	lui	a4,0xb
     ff2:	2d20                	fld	fs0,88(a0)
     ff4:	6e66                	ld	t3,88(sp)
     ff6:	78652d6f          	jal	s10,5377c <STACK_SIZE+0x5337c>
     ffa:	74706563          	bltu	zero,t2,1744 <STACK_SIZE+0x1344>
     ffe:	6f69                	lui	t5,0x1a
    1000:	736e                	ld	t1,248(sp)
    1002:	2d20                	fld	fs0,88(a0)
    1004:	6e66                	ld	t3,88(sp)
    1006:	75622d6f          	jal	s10,2375c <STACK_SIZE+0x2335c>
    100a:	6c69                	lui	s8,0x1a
    100c:	6974                	ld	a3,208(a0)
    100e:	006e                	c.slli	zero,0x1b
    1010:	7270                	ld	a2,224(a2)
    1012:	6e69                	lui	t3,0x1a
    1014:	0074                	addi	a3,sp,12
    1016:	4f76                	lw	t5,92(sp)
    1018:	6666                	ld	a2,88(sp)
    101a:	6c00                	ld	s0,24(s0)
    101c:	7369                	lui	t1,0xffffa
    101e:	3c74                	fld	fa3,248(s0)
    1020:	65686373          	csrrsi	t1,0x656,16
    1024:	3a64                	fld	fs1,240(a2)
    1026:	533a                	lw	t1,172(sp)
    1028:	64656863          	bltu	a0,t1,1678 <STACK_SIZE+0x1278>
    102c:	6175                	addi	sp,sp,368
    102e:	6c62                	ld	s8,24(sp)
    1030:	2a65                	addiw	s4,s4,25
    1032:	202c                	fld	fa1,64(s0)
    1034:	7274                	ld	a3,224(a2)
    1036:	6575                	lui	a0,0x1d
    1038:	003e                	c.slli	zero,0xf
    103a:	726f6873          	csrrsi	a6,0x726,30
    103e:	2074                	fld	fa3,192(s0)
    1040:	6e69                	lui	t3,0x1a
    1042:	0074                	addi	a3,sp,12
    1044:	746e6f43          	0x746e6f43
    1048:	7865                	lui	a6,0xffff9
    104a:	0074                	addi	a3,sp,12
    104c:	487e                	lw	a6,220(sp)
    104e:	6165                	addi	sp,sp,112
    1050:	4d70                	lw	a2,92(a0)
    1052:	5f007267          	0x5f007267
    1056:	4e5a                	lw	t3,148(sp)
    1058:	7632                	ld	a2,296(sp)
    105a:	316d                	addiw	sp,sp,-5
    105c:	5034                	lw	a3,96(s0)
    105e:	6761                	lui	a4,0x18
    1060:	5465                	li	s0,-7
    1062:	6261                	lui	tp,0x18
    1064:	656c                	ld	a1,200(a0)
    1066:	6e45                	lui	t3,0x11
    1068:	7274                	ld	a3,224(a2)
    106a:	3479                	addiw	s0,s0,-2
    106c:	6570                	ld	a2,200(a0)
    106e:	6d72                	ld	s10,280(sp)
    1070:	7645                	lui	a2,0xffff1
    1072:	5f00                	lw	s0,56(a4)
    1074:	4e5a                	lw	t3,148(sp)
    1076:	7632                	ld	a2,296(sp)
    1078:	316d                	addiw	sp,sp,-5
    107a:	5034                	lw	a3,96(s0)
    107c:	6761                	lui	a4,0x18
    107e:	5465                	li	s0,-7
    1080:	6261                	lui	tp,0x18
    1082:	656c                	ld	a1,200(a0)
    1084:	6e45                	lui	t3,0x11
    1086:	7274                	ld	a3,224(a2)
    1088:	3879                	addiw	a6,a6,-2
    108a:	56746573          	csrrsi	a0,0x567,8
    108e:	6c61                	lui	s8,0x18
    1090:	6469                	lui	s0,0x1a
    1092:	7645                	lui	a2,0xffff1
    1094:	7800                	ld	s0,48(s0)
    1096:	6974                	ld	a3,208(a0)
    1098:	0065                	c.nop	25
    109a:	5a5f 354e 6c61      	0x6c61354e5a5f
    10a0:	6f6c                	ld	a1,216(a4)
    10a2:	61503763          	0x61503763
    10a6:	674d6567          	0x674d6567
    10aa:	3472                	fld	fs0,312(sp)
    10ac:	736c                	ld	a1,224(a4)
    10ae:	6275                	lui	tp,0x1d
    10b0:	6d45                	lui	s10,0x11
    10b2:	7200                	ld	s0,32(a2)
    10b4:	7465                	lui	s0,0xffff9
    10b6:	7972                	ld	s2,312(sp)
    10b8:	694c                	ld	a1,144(a0)
    10ba:	696d                	lui	s2,0x1b
    10bc:	0074                	addi	a3,sp,12
    10be:	5a5f 384e 6c70      	0x6c70384e5a5f
    10c4:	7461                	lui	s0,0xffff8
    10c6:	6f66                	ld	t5,88(sp)
    10c8:	6d72                	ld	s10,280(sp)
    10ca:	6335                	lui	t1,0xd
    10cc:	696c                	ld	a1,208(a0)
    10ce:	746e                	ld	s0,248(sp)
    10d0:	3031                	0x3031
    10d2:	746d                	lui	s0,0xffffb
    10d4:	6d69                	lui	s10,0x1a
    10d6:	6365                	lui	t1,0x19
    10d8:	706d                	c.lui	zero,0xffffb
    10da:	6945664f          	fnmadd.s	fa2,fa0,fs4,fa3,unknown
    10de:	7000                	ld	s0,32(s0)
    10e0:	6972                	ld	s2,280(sp)
    10e2:	7469726f          	jal	tp,98828 <STACK_SIZE+0x98428>
    10e6:	0079                	c.nop	30
    10e8:	61636573          	csrrsi	a0,0x616,6
    10ec:	6c6c                	ld	a1,216(s0)
    10ee:	7800                	ld	s0,48(s0)
    10f0:	656c                	ld	a1,200(a0)
    10f2:	5f6e                	lw	t5,248(sp)
    10f4:	0074                	addi	a3,sp,12
    10f6:	6175                	addi	sp,sp,368
    10f8:	7472                	ld	s0,312(sp)
    10fa:	6e49                	lui	t3,0x12
    10fc:	5474                	lw	a3,108(s0)
    10fe:	7365                	lui	t1,0xffff9
    1100:	0074                	addi	a3,sp,12
    1102:	7270                	ld	a2,224(a2)
    1104:	6f69                	lui	t5,0x1a
    1106:	0072                	c.slli	zero,0x1c
    1108:	54727563          	bgeu	tp,t2,1652 <STACK_SIZE+0x1252>
    110c:	6469                	lui	s0,0x1a
    110e:	7000                	ld	s0,32(s0)
    1110:	6e72                	ld	t3,280(sp)
    1112:	0074                	addi	a3,sp,12
    1114:	6e696c63          	bltu	s2,t1,180c <STACK_SIZE+0x140c>
    1118:	0074                	addi	a3,sp,12
    111a:	6f62                	ld	t5,24(sp)
    111c:	5f006c6f          	jal	s8,770c <STACK_SIZE+0x730c>
    1120:	395a                	fld	fs2,432(sp)
    1122:	6c70                	ld	a2,216(s0)
    1124:	6369                	lui	t1,0x1a
    1126:	69616c43          	fmadd.s	fs8,ft2,fs6,fa3,unknown
    112a:	766d                	lui	a2,0xffffb
    112c:	6600                	ld	s0,8(a2)
    112e:	6572                	ld	a0,280(sp)
    1130:	0065                	c.nop	25
    1132:	5a5f 354e 6c61      	0x6c61354e5a5f
    1138:	6f6c                	ld	a1,216(a4)
    113a:	65483763          	0x65483763
    113e:	7061                	c.lui	zero,0xffff8
    1140:	674d                	lui	a4,0x13
    1142:	4472                	lw	s0,28(sp)
    1144:	4534                	lw	a3,72(a0)
    1146:	0076                	c.slli	zero,0x1d
    1148:	72617473          	csrrci	s0,0x726,2
    114c:	0074                	addi	a3,sp,12
    114e:	726f7473          	csrrci	s0,0x726,30
    1152:	4165                	li	sp,25
    1154:	73656363          	bltu	a0,s6,187a <STACK_SIZE+0x147a>
    1158:	75614673          	0x75614673
    115c:	746c                	ld	a1,232(s0)
    115e:	5f00                	lw	s0,56(a4)
    1160:	6f6e                	ld	t5,216(sp)
    1162:	626e                	ld	tp,216(sp)
    1164:	6f6c                	ld	a1,216(a4)
    1166:	6e696b63          	bltu	s2,t1,185c <STACK_SIZE+0x145c>
    116a:	74757067          	0x74757067
    116e:	72620073          	0x72620073
    1172:	6165                	addi	sp,sp,112
    1174:	696f706b          	0x696f706b
    1178:	746e                	ld	s0,248(sp)
    117a:	7000                	ld	s0,32(s0)
    117c:	6f72                	ld	t5,280(sp)
    117e:	746d0063          	beq	s10,t1,18be <STACK_SIZE+0x14be>
    1182:	6d69                	lui	s10,0x1a
    1184:	0065                	c.nop	25
    1186:	5a5f 384e 6c70      	0x6c70384e5a5f
    118c:	7461                	lui	s0,0xffff8
    118e:	6f66                	ld	t5,88(sp)
    1190:	6d72                	ld	s10,280(sp)
    1192:	7034                	ld	a3,96(s0)
    1194:	696c                	ld	a1,208(a0)
    1196:	74313163          	0x74313163
    119a:	7268                	ld	a0,224(a2)
    119c:	7365                	lui	t1,0xffff9
    119e:	6f68                	ld	a0,216(a4)
    11a0:	646c                	ld	a1,200(s0)
    11a2:	6945664f          	fnmadd.s	fa2,fa0,fs4,fa3,unknown
    11a6:	6c00                	ld	s0,24(s0)
    11a8:	20676e6f          	jal	t3,773ae <STACK_SIZE+0x76fae>
    11ac:	6e75                	lui	t3,0x1d
    11ae:	6e676973          	csrrsi	s2,0x6e6,14
    11b2:	6465                	lui	s0,0x19
    11b4:	6920                	ld	s0,80(a0)
    11b6:	746e                	ld	s0,248(sp)
    11b8:	6500                	ld	s0,8(a0)
    11ba:	706d                	c.lui	zero,0xffffb
    11bc:	7974                	ld	a3,240(a0)
    11be:	7500                	ld	s0,40(a0)
    11c0:	756e                	ld	a0,248(sp)
    11c2:	00646573          	csrrsi	a0,0x6,8
    11c6:	5a5f 324e 4f49      	0x4f49324e5a5f
    11cc:	3631                	addiw	a2,a2,-20
    11ce:	6e5f 6e6f 6c62      	0x6c626e6f6e5f
    11d4:	696b636f          	jal	t1,b786a <STACK_SIZE+0xb746a>
    11d8:	676e                	ld	a4,216(sp)
    11da:	7570                	ld	a2,232(a0)
    11dc:	7374                	ld	a3,224(a4)
    11de:	5045                	c.li	zero,-15
    11e0:	5200634b          	fnmsub.d	ft6,ft0,ft0,fa0,unknown
    11e4:	6165                	addi	sp,sp,112
    11e6:	7964                	ld	s1,240(a0)
    11e8:	5f00                	lw	s0,56(a4)
    11ea:	345a                	fld	fs0,432(sp)
    11ec:	6d6d                	lui	s10,0x1b
    11ee:	6f69                	lui	t5,0x1a
    11f0:	5649                	li	a2,-14
    11f2:	384e                	fld	fa6,240(sp)
    11f4:	6c70                	ld	a2,216(s0)
    11f6:	7461                	lui	s0,0xffff8
    11f8:	6f66                	ld	t5,88(sp)
    11fa:	6d72                	ld	s10,280(sp)
    11fc:	7535                	lui	a0,0xfffed
    11fe:	7261                	lui	tp,0xffff8
    1200:	3074                	fld	fa3,224(s0)
    1202:	72736c33          	0x72736c33
    1206:	4545                	li	a0,17
    1208:	5452                	lw	s0,52(sp)
    120a:	6d5f 7300 6974      	0x697473006d5f
    1210:	0065                	c.nop	25
    1212:	5a5f 354e 6c61      	0x6c61354e5a5f
    1218:	6f6c                	ld	a1,216(a4)
    121a:	61503763          	0x61503763
    121e:	674d6567          	0x674d6567
    1222:	3872                	fld	fa6,312(sp)
    1224:	6f70                	ld	a2,216(a4)
    1226:	6f6e3273          	csrrc	tp,0x6f6,t3
    122a:	6564                	ld	s1,200(a0)
    122c:	6d45                	lui	s10,0x11
    122e:	0069                	c.nop	26
    1230:	6f72                	ld	t5,280(sp)
    1232:	724f746f          	jal	s0,f8956 <STACK_SIZE+0xf8556>
    1236:	6564                	ld	s1,200(a0)
    1238:	0072                	c.slli	zero,0x1c
    123a:	74617473          	csrrci	s0,0x746,2
    123e:	0065                	c.nop	25
    1240:	5a5f 354e 6c61      	0x6c61354e5a5f
    1246:	6f6c                	ld	a1,216(a4)
    1248:	65483763          	0x65483763
    124c:	7061                	c.lui	zero,0xffff8
    124e:	674d                	lui	a4,0x13
    1250:	3172                	fld	ft2,312(sp)
    1252:	6134                	ld	a3,64(a0)
    1254:	6c6c                	ld	a1,216(s0)
    1256:	6769                	lui	a4,0x1a
    1258:	656e                	ld	a0,216(sp)
    125a:	5f64                	lw	s1,124(a4)
    125c:	6c61                	lui	s8,0x18
    125e:	6f6c                	ld	a1,216(a4)
    1260:	6d6d4563          	blt	s10,s6,192a <STACK_SIZE+0x152a>
    1264:	7300                	ld	s0,32(a4)
    1266:	6974                	ld	a3,208(a0)
    1268:	0070                	addi	a2,sp,12
    126a:	4f78                	lw	a4,92(a4)
    126c:	6666                	ld	a2,88(sp)
    126e:	6500                	ld	s0,8(a0)
    1270:	7478                	ld	a4,232(s0)
    1272:	7265                	lui	tp,0xffff9
    1274:	616e                	ld	sp,216(sp)
    1276:	496c                	lw	a1,84(a0)
    1278:	746e                	ld	s0,248(sp)
    127a:	7265                	lui	tp,0xffff9
    127c:	7572                	ld	a0,312(sp)
    127e:	7470                	ld	a2,232(s0)
    1280:	6148                	ld	a0,128(a0)
    1282:	646e                	ld	s0,216(sp)
    1284:	656c                	ld	a1,200(a0)
    1286:	0072                	c.slli	zero,0x1c
    1288:	5a5f 384e 6c70      	0x6c70384e5a5f
    128e:	7461                	lui	s0,0xffff8
    1290:	6f66                	ld	t5,88(sp)
    1292:	6d72                	ld	s10,280(sp)
    1294:	7034                	ld	a3,96(s0)
    1296:	696c                	ld	a1,208(a0)
    1298:	6e653863          	0x6e653863
    129c:	6261                	lui	tp,0x18
    129e:	656c                	ld	a1,200(a0)
    12a0:	6945664f          	fnmadd.s	fa2,fa0,fs4,fa3,unknown
    12a4:	5f00                	lw	s0,56(a4)
    12a6:	315a                	fld	ft2,432(sp)
    12a8:	7032                	0x7032
    12aa:	696c                	ld	a1,208(a0)
    12ac:	6d6f4363          	blt	t5,s6,1972 <STACK_SIZE+0x1572>
    12b0:	6c70                	ld	a2,216(s0)
    12b2:	7465                	lui	s0,0xffff9
    12b4:	6965                	lui	s2,0x19
    12b6:	7500                	ld	s0,40(a0)
    12b8:	736e                	ld	t1,248(sp)
    12ba:	6769                	lui	a4,0x1a
    12bc:	656e                	ld	a0,216(sp)
    12be:	2064                	fld	fs1,192(s0)
    12c0:	72616863          	bltu	sp,t1,19f0 <STACK_SIZE+0x15f0>
    12c4:	5f00                	lw	s0,56(a4)
    12c6:	4e5a                	lw	t3,148(sp)
    12c8:	6b34                	ld	a3,80(a4)
    12ca:	696c                	ld	a1,208(a0)
    12cc:	3762                	fld	fa4,56(sp)
    12ce:	6972                	ld	s2,280(sp)
    12d0:	676e                	ld	a4,216(sp)
    12d2:	7562                	ld	a0,56(sp)
    12d4:	4966                	lw	s2,88(sp)
    12d6:	316d4c63          	blt	s10,s6,15ee <STACK_SIZE+0x11ee>
    12da:	3832                	fld	fa6,296(sp)
    12dc:	4545                	li	a0,17
    12de:	6e34                	ld	a3,88(a2)
    12e0:	7865                	lui	a6,0xffff9
    12e2:	4574                	lw	a3,76(a0)
    12e4:	006d                	c.nop	27
    12e6:	6f6c476b          	0x6f6c476b
    12ea:	4f62                	lw	t5,24(sp)
    12ec:	6a62                	ld	s4,24(sp)
    12ee:	706f0073          	0x706f0073
    12f2:	7265                	lui	tp,0xffff9
    12f4:	7461                	lui	s0,0xffff8
    12f6:	3d3d726f          	jal	tp,d8ec8 <STACK_SIZE+0xd8ac8>
    12fa:	5f00                	lw	s0,56(a4)
    12fc:	4e5a                	lw	t3,148(sp)
    12fe:	7632                	ld	a2,296(sp)
    1300:	396d                	addiw	s2,s2,-5
    1302:	6150                	ld	a2,128(a0)
    1304:	61546567          	0x61546567
    1308:	6c62                	ld	s8,24(sp)
    130a:	3665                	addiw	a2,a2,-7
    130c:	6f74                	ld	a3,216(a4)
    130e:	50544153          	0x50544153
    1312:	5245                	li	tp,-15
    1314:	005f3053          	fadd.s	ft0,ft10,ft5,rup
    1318:	6f6e                	ld	t5,216(sp)
    131a:	626e                	ld	tp,216(sp)
    131c:	6f6c                	ld	a1,216(a4)
    131e:	6e696b63          	bltu	s2,t1,1a14 <STACK_SIZE+0x1614>
    1322:	65640067          	jr	1622(s0) # ffffffffffff8656 <_ZL7out_buf+0xffffffff7fff442e>
    1326:	79746c63          	bltu	s0,s7,1abe <STACK_SIZE+0x16be>
    132a:	6570                	ld	a2,200(a0)
    132c:	6e28                	ld	a0,88(a2)
    132e:	6c75                	lui	s8,0x1d
    1330:	706c                	ld	a1,224(s0)
    1332:	7274                	ld	a3,224(a2)
    1334:	0029                	c.nop	10
    1336:	52746567          	0x52746567
    133a:	00746f6f          	jal	t5,47b40 <STACK_SIZE+0x47740>
    133e:	65696573          	csrrsi	a0,0x656,18
    1342:	6d00                	ld	s0,24(a0)
    1344:	6970                	ld	a2,208(a0)
    1346:	0065                	c.nop	25
    1348:	6461                	lui	s0,0x18
    134a:	7264                	ld	s1,224(a2)
    134c:	7300                	ld	s0,32(a4)
    134e:	6965                	lui	s2,0x19
    1350:	0070                	addi	a2,sp,12
    1352:	6165486b          	0x6165486b
    1356:	4d70                	lw	a2,92(a0)
    1358:	70007267          	0x70007267
    135c:	6e70                	ld	a2,216(a2)
    135e:	0030                	addi	a2,sp,8
    1360:	7070                	ld	a2,224(s0)
    1362:	316e                	fld	ft2,248(sp)
    1364:	7000                	ld	s0,32(s0)
    1366:	6e70                	ld	a2,216(a2)
    1368:	0032                	c.slli	zero,0xc
    136a:	6575                	lui	a0,0x1d
    136c:	6c6c6163          	bltu	s8,t1,1a2e <STACK_SIZE+0x162e>
    1370:	5f00                	lw	s0,56(a4)
    1372:	4e5a                	lw	t3,148(sp)
    1374:	6b34                	ld	a3,80(a4)
    1376:	696c                	ld	a1,208(a0)
    1378:	3462                	fld	fs0,56(sp)
    137a:	696c                	ld	a1,208(a0)
    137c:	50497473          	csrrci	s0,0x504,18
    1380:	354e                	fld	fa0,240(sp)
    1382:	65686373          	csrrsi	t1,0x656,16
    1386:	3164                	fld	fs1,224(a0)
    1388:	5330                	lw	a2,96(a4)
    138a:	64656863          	bltu	a0,t1,19da <STACK_SIZE+0x15da>
    138e:	6175                	addi	sp,sp,368
    1390:	6c62                	ld	s8,24(sp)
    1392:	4565                	li	a0,25
    1394:	624c                	ld	a1,128(a2)
    1396:	4531                	li	a0,12
    1398:	3945                	addiw	s2,s2,-15
    139a:	7570                	ld	a2,232(a0)
    139c:	625f6873          	csrrsi	a6,0x625,30
    13a0:	6361                	lui	t1,0x18
    13a2:	4b52456b          	0x4b52456b
    13a6:	005f3353          	fadd.s	ft6,ft10,ft5,rup
    13aa:	5a5f 384e 6c70      	0x6c70384e5a5f
    13b0:	7461                	lui	s0,0xffff8
    13b2:	6f66                	ld	t5,88(sp)
    13b4:	6d72                	ld	s10,280(sp)
    13b6:	7535                	lui	a0,0xfffed
    13b8:	7261                	lui	tp,0xffff8
    13ba:	3074                	fld	fa3,224(s0)
    13bc:	3131                	addiw	sp,sp,-20
    13be:	6f6e                	ld	t5,216(sp)
    13c0:	626e                	ld	tp,216(sp)
    13c2:	6f6c                	ld	a1,216(a4)
    13c4:	6e696b63          	bltu	s2,t1,1aba <STACK_SIZE+0x16ba>
    13c8:	75703467          	0x75703467
    13cc:	6374                	ld	a3,192(a4)
    13ce:	6345                	lui	t1,0x11
    13d0:	5f00                	lw	s0,56(a4)
    13d2:	4e5a                	lw	t3,148(sp)
    13d4:	4932                	lw	s2,12(sp)
    13d6:	5f33314f          	fnmadd.q	ft2,ft6,fs3,fa1,rup
    13da:	6c62                	ld	s8,24(sp)
    13dc:	696b636f          	jal	t1,b7a72 <STACK_SIZE+0xb7672>
    13e0:	676e                	ld	a4,216(sp)
    13e2:	7570                	ld	a2,232(a0)
    13e4:	7374                	ld	a3,224(a4)
    13e6:	5045                	c.li	zero,-15
    13e8:	7400634b          	0x7400634b
    13ec:	7268                	ld	a0,224(a2)
    13ee:	7365                	lui	t1,0xffff9
    13f0:	6f68                	ld	a0,216(a4)
    13f2:	646c                	ld	a1,200(s0)
    13f4:	5f00                	lw	s0,56(a4)
    13f6:	4e5a                	lw	t3,148(sp)
    13f8:	7034                	ld	a3,96(s0)
    13fa:	6f72                	ld	t5,280(sp)
    13fc:	6f433763          	0x6f433763
    1400:	746e                	ld	s0,248(sp)
    1402:	7865                	lui	a6,0xffff9
    1404:	3174                	fld	fa3,224(a0)
    1406:	4578                	lw	a4,76(a0)
    1408:	0069                	c.nop	26
    140a:	6874                	ld	a3,208(s0)
    140c:	6572                	ld	a0,280(sp)
    140e:	6c6f6873          	csrrsi	a6,0x6c6,30
    1412:	4f64                	lw	s1,92(a4)
    1414:	0066                	c.slli	zero,0x19
    1416:	5a5f 324e 6d76      	0x6d76324e5a5f
    141c:	3431                	addiw	s0,s0,-20
    141e:	6150                	ld	a2,128(a0)
    1420:	61546567          	0x61546567
    1424:	6c62                	ld	s8,24(sp)
    1426:	4565                	li	a0,25
    1428:	746e                	ld	s0,248(sp)
    142a:	7972                	ld	s2,312(sp)
    142c:	7339                	lui	t1,0xfffee
    142e:	7465                	lui	s0,0xffff9
    1430:	5450                	lw	a2,44(s0)
    1432:	6f4e                	ld	t5,208(sp)
    1434:	6564                	ld	s1,200(a0)
    1436:	7645                	lui	a2,0xffff1
    1438:	7500                	ld	s0,40(a0)
    143a:	7261                	lui	tp,0xffff8
    143c:	3074                	fld	fa3,224(s0)
    143e:	7000                	ld	s0,32(s0)
    1440:	696c                	ld	a1,208(a0)
    1442:	6d6f4363          	blt	t5,s6,1b08 <STACK_SIZE+0x1708>
    1446:	6c70                	ld	a2,216(s0)
    1448:	7465                	lui	s0,0xffff9
    144a:	0065                	c.nop	25
    144c:	56746573          	csrrsi	a0,0x567,8
    1450:	6c61                	lui	s8,0x18
    1452:	6469                	lui	s0,0x1a
    1454:	7300                	ld	s0,32(a4)
    1456:	6f68                	ld	a0,216(a4)
    1458:	7472                	ld	s0,312(sp)
    145a:	7520                	ld	s0,104(a0)
    145c:	736e                	ld	t1,248(sp)
    145e:	6769                	lui	a4,0x1a
    1460:	656e                	ld	a0,216(sp)
    1462:	2064                	fld	fs1,192(s0)
    1464:	6e69                	lui	t3,0x1a
    1466:	0074                	addi	a3,sp,12
    1468:	6562                	ld	a0,24(sp)
    146a:	006e6967          	0x6e6967
    146e:	5a5f 344e 6c6b      	0x6c6b344e5a5f
    1474:	6269                	lui	tp,0x1a
    1476:	6c34                	ld	a3,88(s0)
    1478:	7369                	lui	t1,0xffffa
    147a:	4974                	lw	a3,84(a0)
    147c:	4e50                	lw	a2,28(a2)
    147e:	7335                	lui	t1,0xfffed
    1480:	64656863          	bltu	a0,t1,1ad0 <STACK_SIZE+0x16d0>
    1484:	3031                	0x3031
    1486:	65686353          	0x65686353
    148a:	7564                	ld	s1,232(a0)
    148c:	6261                	lui	tp,0x18
    148e:	656c                	ld	a1,200(a0)
    1490:	4c45                	li	s8,17
    1492:	3162                	fld	ft2,56(sp)
    1494:	4545                	li	a0,17
    1496:	3031                	0x3031
    1498:	7570                	ld	a2,232(a0)
    149a:	665f6873          	csrrsi	a6,0x665,30
    149e:	6f72                	ld	t5,280(sp)
    14a0:	746e                	ld	s0,248(sp)
    14a2:	5045                	c.li	zero,-15
    14a4:	534e                	lw	t1,240(sp)
    14a6:	385f 694c 7473      	0x7473694c385f
    14ac:	6f4e                	ld	t5,208(sp)
    14ae:	6564                	ld	s1,200(a0)
    14b0:	5349                	li	t1,-14
    14b2:	45455f33          	0x45455f33
    14b6:	5f00                	lw	s0,56(a4)
    14b8:	4e5a                	lw	t3,148(sp)
    14ba:	7632                	ld	a2,296(sp)
    14bc:	396d                	addiw	s2,s2,-5
    14be:	6150                	ld	a2,128(a0)
    14c0:	61546567          	0x61546567
    14c4:	6c62                	ld	s8,24(sp)
    14c6:	3565                	addiw	a0,a0,-7
    14c8:	7270                	ld	a2,224(a2)
    14ca:	6e69                	lui	t3,0x1a
    14cc:	4574                	lw	a3,76(a0)
    14ce:	0076                	c.slli	zero,0x1d
    14d0:	5a5f 344e 6c6b      	0x6c6b344e5a5f
    14d6:	6269                	lui	tp,0x1a
    14d8:	6c34                	ld	a3,88(s0)
    14da:	7369                	lui	t1,0xffffa
    14dc:	4974                	lw	a3,84(a0)
    14de:	4e50                	lw	a2,28(a2)
    14e0:	7335                	lui	t1,0xfffed
    14e2:	64656863          	bltu	a0,t1,1b32 <STACK_SIZE+0x1732>
    14e6:	3031                	0x3031
    14e8:	65686353          	0x65686353
    14ec:	7564                	ld	s1,232(a0)
    14ee:	6261                	lui	tp,0x18
    14f0:	656c                	ld	a1,200(a0)
    14f2:	4c45                	li	s8,17
    14f4:	3062                	fld	ft0,56(sp)
    14f6:	4545                	li	a0,17
    14f8:	7039                	c.lui	zero,0xfffee
    14fa:	7375                	lui	t1,0xffffd
    14fc:	5f68                	lw	a0,124(a4)
    14fe:	6162                	ld	sp,24(sp)
    1500:	52456b63          	bltu	a0,tp,1a36 <STACK_SIZE+0x1636>
    1504:	5f33534b          	fnmsub.q	ft6,ft6,fs3,fa1,unknown
    1508:	5f00                	lw	s0,56(a4)
    150a:	345a                	fld	fs0,432(sp)
    150c:	6d6d                	lui	s10,0x1b
    150e:	6f69                	lui	t5,0x1a
    1510:	6349                	lui	t1,0x12
    1512:	5245                	li	tp,-15
    1514:	5f54                	lw	a3,60(a4)
    1516:	006d                	c.nop	27
    1518:	6d6d                	lui	s10,0x1b
    151a:	6f69                	lui	t5,0x1a
    151c:	703c                	ld	a5,96(s0)
    151e:	616c                	ld	a1,192(a0)
    1520:	6674                	ld	a3,200(a2)
    1522:	3a6d726f          	jal	tp,d88c8 <STACK_SIZE+0xd84c8>
    1526:	753a                	ld	a0,424(sp)
    1528:	7261                	lui	tp,0xffff8
    152a:	3074                	fld	fa3,224(s0)
    152c:	3a3a                	fld	fs4,424(sp)
    152e:	736c                	ld	a1,224(a4)
    1530:	3e72                	fld	ft8,312(sp)
    1532:	7000                	ld	s0,32(s0)
    1534:	6972                	ld	s2,280(sp)
    1536:	745f726f          	jal	tp,f947a <STACK_SIZE+0xf907a>
    153a:	7000                	ld	s0,32(s0)
    153c:	6761                	lui	a4,0x18
    153e:	4565                	li	a0,25
    1540:	746e                	ld	s0,248(sp)
    1542:	6972                	ld	s2,280(sp)
    1544:	7365                	lui	t1,0xffff9
    1546:	6550                	ld	a2,136(a0)
    1548:	5072                	0x5072
    154a:	6761                	lui	a4,0x18
    154c:	0065                	c.nop	25
    154e:	5a5f 324e 6d76      	0x6d76324e5a5f
    1554:	5039                	c.li	zero,-18
    1556:	6761                	lui	a4,0x18
    1558:	5465                	li	s0,-7
    155a:	6261                	lui	tp,0x18
    155c:	656c                	ld	a1,200(a0)
    155e:	3331                	addiw	t1,t1,-20
    1560:	61657263          	bgeu	a0,s6,1b64 <STACK_SIZE+0x1764>
    1564:	6574                	ld	a3,200(a0)
    1566:	614d                	addi	sp,sp,176
    1568:	7070                	ld	a2,224(s0)
    156a:	6e69                	lui	t3,0x1a
    156c:	4e504567          	0x4e504567
    1570:	34315f53          	0x34315f53
    1574:	6150                	ld	a2,128(a0)
    1576:	61546567          	0x61546567
    157a:	6c62                	ld	s8,24(sp)
    157c:	4565                	li	a0,25
    157e:	746e                	ld	s0,248(sp)
    1580:	7972                	ld	s2,312(sp)
    1582:	6d45                	lui	s10,0x11
    1584:	6d6d                	lui	s10,0x1b
    1586:	6968                	ld	a0,208(a0)
    1588:	5f00                	lw	s0,56(a4)
    158a:	4e5a                	lw	t3,148(sp)
    158c:	6b34                	ld	a3,80(a4)
    158e:	696c                	ld	a1,208(a0)
    1590:	3462                	fld	fs0,56(sp)
    1592:	696c                	ld	a1,208(a0)
    1594:	50497473          	csrrci	s0,0x504,18
    1598:	354e                	fld	fa0,240(sp)
    159a:	65686373          	csrrsi	t1,0x656,16
    159e:	3164                	fld	fs1,224(a0)
    15a0:	5330                	lw	a2,96(a4)
    15a2:	64656863          	bltu	a0,t1,1bf2 <STACK_SIZE+0x17f2>
    15a6:	6175                	addi	sp,sp,368
    15a8:	6c62                	ld	s8,24(sp)
    15aa:	4565                	li	a0,25
    15ac:	624c                	ld	a1,128(a2)
    15ae:	4531                	li	a0,12
    15b0:	3145                	addiw	sp,sp,-15
    15b2:	6931                	lui	s2,0xc
    15b4:	736e                	ld	t1,248(sp)
    15b6:	7265                	lui	tp,0xffff9
    15b8:	4174                	lw	a3,68(a0)
    15ba:	7466                	ld	s0,120(sp)
    15bc:	7265                	lui	tp,0xffff9
    15be:	5045                	c.li	zero,-15
    15c0:	534e                	lw	t1,240(sp)
    15c2:	385f 694c 7473      	0x7473694c385f
    15c8:	6f4e                	ld	t5,208(sp)
    15ca:	6564                	ld	s1,200(a0)
    15cc:	5349                	li	t1,-14
    15ce:	45455f33          	0x45455f33
    15d2:	005f3753          	fadd.s	fa4,ft10,ft5,rup
    15d6:	6972                	ld	s2,280(sp)
    15d8:	676e                	ld	a4,216(sp)
    15da:	7562                	ld	a0,56(sp)
    15dc:	3c66                	fld	fs8,120(sp)
    15de:	72616863          	bltu	sp,t1,1d0e <STACK_SIZE+0x190e>
    15e2:	202c                	fld	fa1,64(s0)
    15e4:	3231                	addiw	tp,tp,-20
    15e6:	3e38                	fld	fa4,120(a2)
    15e8:	5f00                	lw	s0,56(a4)
    15ea:	4e5a                	lw	t3,148(sp)
    15ec:	6135                	addi	sp,sp,352
    15ee:	6c6c                	ld	a1,216(s0)
    15f0:	5037636f          	jal	t1,782f2 <STACK_SIZE+0x77ef2>
    15f4:	6761                	lui	a4,0x18
    15f6:	4d65                	li	s10,25
    15f8:	66347267          	0x66347267
    15fc:	6572                	ld	a0,280(sp)
    15fe:	4565                	li	a0,25
    1600:	696d                	lui	s2,0x1b
    1602:	5000                	lw	s0,32(s0)
    1604:	6761                	lui	a4,0x18
    1606:	4e65                	li	t3,25
    1608:	6d75                	lui	s10,0x1d
    160a:	5f00                	lw	s0,56(a4)
    160c:	4e5a                	lw	t3,148(sp)
    160e:	6135                	addi	sp,sp,352
    1610:	6c6c                	ld	a1,216(s0)
    1612:	5037636f          	jal	t1,78314 <STACK_SIZE+0x77f14>
    1616:	6761                	lui	a4,0x18
    1618:	4d65                	li	s10,25
    161a:	72347267          	0x72347267
    161e:	45627573          	csrrci	a0,0x456,4
    1622:	006d                	c.nop	27
    1624:	696c                	ld	a1,208(a0)
    1626:	646e7473          	csrrci	s0,0x646,28
    162a:	7470                	ld	a2,232(s0)
    162c:	0072                	c.slli	zero,0x1c
    162e:	656d                	lui	a0,0x1b
    1630:	6370                	ld	a2,192(a4)
    1632:	7500                	ld	s0,40(a0)
    1634:	6974                	ld	a3,208(a0)
    1636:	0065                	c.nop	25
    1638:	7475                	lui	s0,0xffffd
    163a:	7069                	c.lui	zero,0xffffa
    163c:	7400                	ld	s0,40(s0)
    163e:	6d69                	lui	s10,0x1a
    1640:	7265                	lui	tp,0xffff9
    1642:	6e49                	lui	t3,0x12
    1644:	6574                	ld	a3,200(a0)
    1646:	7272                	ld	tp,312(sp)
    1648:	7075                	c.lui	zero,0xffffd
    164a:	4874                	lw	a3,84(s0)
    164c:	6e61                	lui	t3,0x18
    164e:	6c64                	ld	s1,216(s0)
    1650:	7265                	lui	tp,0xffff9
    1652:	4500                	lw	s0,8(a0)
    1654:	6978                	ld	a4,208(a0)
    1656:	0074                	addi	a3,sp,12
    1658:	6572                	ld	a0,280(sp)
    165a:	6c61                	lui	s8,0x18
    165c:	6f6c                	ld	a1,216(a4)
    165e:	70680063          	beq	a6,t1,1d5e <STACK_SIZE+0x195e>
    1662:	6569                	lui	a0,0x1a
    1664:	7000                	ld	s0,32(s0)
    1666:	006c6f6f          	jal	t5,c766c <STACK_SIZE+0xc726c>
    166a:	61657263          	bgeu	a0,s6,1c6e <STACK_SIZE+0x186e>
    166e:	6574                	ld	a3,200(a0)
    1670:	614d                	addi	sp,sp,176
    1672:	7070                	ld	a2,224(s0)
    1674:	6e69                	lui	t3,0x1a
    1676:	5a5f0067          	jr	1445(t5) # 1a5a5 <STACK_SIZE+0x1a1a5>
    167a:	4b4e                	lw	s6,208(sp)
    167c:	6b34                	ld	a3,80(a4)
    167e:	696c                	ld	a1,208(a0)
    1680:	3462                	fld	fs0,56(sp)
    1682:	696c                	ld	a1,208(a0)
    1684:	50497473          	csrrci	s0,0x504,18
    1688:	354e                	fld	fa0,240(sp)
    168a:	65686373          	csrrsi	t1,0x656,16
    168e:	3164                	fld	fs1,224(a0)
    1690:	5330                	lw	a2,96(a4)
    1692:	64656863          	bltu	a0,t1,1ce2 <STACK_SIZE+0x18e2>
    1696:	6175                	addi	sp,sp,368
    1698:	6c62                	ld	s8,24(sp)
    169a:	4565                	li	a0,25
    169c:	624c                	ld	a1,128(a2)
    169e:	4531                	li	a0,12
    16a0:	3845                	addiw	a6,a6,-15
    16a2:	7469                	lui	s0,0xffffa
    16a4:	7265                	lui	tp,0xffff9
    16a6:	7461                	lui	s0,0xffff8
    16a8:	656e726f          	jal	tp,e8cfe <STACK_SIZE+0xe88fe>
    16ac:	5245                	li	tp,-15
    16ae:	5f35534b          	fnmsub.q	ft6,fa0,fs3,fa1,unknown
    16b2:	6b00                	ld	s0,16(a4)
    16b4:	6f4c                	ld	a1,152(a4)
    16b6:	6a624f63          	blt	tp,t1,1d74 <STACK_SIZE+0x1974>
    16ba:	5a5f0073          	0x5a5f0073
    16be:	324e                	fld	ft4,240(sp)
    16c0:	6d76                	ld	s10,344(sp)
    16c2:	5039                	c.li	zero,-18
    16c4:	6761                	lui	a4,0x18
    16c6:	5465                	li	s0,-7
    16c8:	6261                	lui	tp,0x18
    16ca:	656c                	ld	a1,200(a0)
    16cc:	7035                	c.lui	zero,0xfffed
    16ce:	6972                	ld	s2,280(sp)
    16d0:	746e                	ld	s0,248(sp)
    16d2:	5045                	c.li	zero,-15
    16d4:	534e                	lw	t1,240(sp)
    16d6:	315f 5034 6761      	0x67615034315f
    16dc:	5465                	li	s0,-7
    16de:	6261                	lui	tp,0x18
    16e0:	656c                	ld	a1,200(a0)
    16e2:	6e45                	lui	t3,0x11
    16e4:	7274                	ld	a3,224(a2)
    16e6:	4579                	li	a0,30
    16e8:	6d6d                	lui	s10,0x1b
    16ea:	5f00                	lw	s0,56(a4)
    16ec:	355a                	fld	fa0,432(sp)
    16ee:	6170                	ld	a2,192(a0)
    16f0:	696e                	ld	s2,216(sp)
    16f2:	00635063          	bge	t1,t1,16f2 <STACK_SIZE+0x12f2>
    16f6:	6e727473          	csrrci	s0,0x6e7,4
    16fa:	00797063          	bgeu	s2,t2,16fa <STACK_SIZE+0x12fa>
    16fe:	7570                	ld	a2,232(a0)
    1700:	6374                	ld	a3,192(a4)
    1702:	6168                	ld	a0,192(a0)
    1704:	0072                	c.slli	zero,0x1c
    1706:	656d                	lui	a0,0x1b
    1708:	636d                	lui	t1,0x1b
    170a:	7970                	ld	a2,240(a0)
    170c:	7000                	ld	s0,32(s0)
    170e:	6e61                	lui	t3,0x18
    1710:	6369                	lui	t1,0x1a
    1712:	6800                	ld	s0,16(s0)
    1714:	7865                	lui	a6,0xffff9
    1716:	6964                	ld	s1,208(a0)
    1718:	73746967          	0x73746967
    171c:	6d00                	ld	s0,24(a0)
    171e:	6d65                	lui	s10,0x19
    1720:	00706d63          	bltu	zero,t2,173a <STACK_SIZE+0x133a>
    1724:	656d                	lui	a0,0x1b
    1726:	736d                	lui	t1,0xffffb
    1728:	7465                	lui	s0,0xffff9
    172a:	5f00                	lw	s0,56(a4)
    172c:	7376                	ld	t1,376(sp)
    172e:	706e                	0x706e
    1730:	6972                	ld	s2,280(sp)
    1732:	746e                	ld	s0,248(sp)
    1734:	0066                	c.slli	zero,0x19
    1736:	6f6c                	ld	a1,216(a4)
    1738:	676e                	ld	a4,216(sp)
    173a:	7261                	lui	tp,0xffff8
    173c:	656d0067          	jr	1622(s10) # 19656 <STACK_SIZE+0x19256>
    1740:	6d6d                	lui	s10,0x1b
    1742:	0065766f          	jal	a2,58748 <STACK_SIZE+0x58348>
    1746:	5f74756f          	jal	a0,4953c <STACK_SIZE+0x4913c>
    174a:	7562                	ld	a0,56(sp)
    174c:	0066                	c.slli	zero,0x19
    174e:	6168                	ld	a0,192(a0)
    1750:	746c                	ld	a1,232(s0)
    1752:	7300                	ld	s0,32(a4)
    1754:	7274                	ld	a3,224(a2)
    1756:	00746163          	bltu	s0,t2,1758 <STACK_SIZE+0x1358>
    175a:	6c727473          	csrrci	s0,0x6c7,4
    175e:	6e65                	lui	t3,0x19
    1760:	5f00                	lw	s0,56(a4)
    1762:	625f 6975 746c      	0x746c6975625f
    1768:	6e69                	lui	t3,0x1a
    176a:	765f 5f61 696c      	0x696c5f61765f
    1770:	73007473          	csrrci	s0,0x730,0
    1774:	7274                	ld	a3,224(a2)
    1776:	00706d63          	bltu	zero,t2,1790 <STACK_SIZE+0x1390>
    177a:	5f5f 6e67 6375      	0x63756e675f5f
    1780:	765f 5f61 696c      	0x696c5f61765f
    1786:	2e007473          	csrrci	s0,0x2e0,0
    178a:	2f2e                	fld	ft10,200(sp)
    178c:	7475                	lui	s0,0xffffd
    178e:	6c69                	lui	s8,0x1a
    1790:	6c6b2f73          	csrrs	t5,0x6c6,s6
    1794:	6269                	lui	tp,0x1a
    1796:	63632e63          	0x63632e63
    179a:	7300                	ld	s0,32(a4)
    179c:	7274                	ld	a3,224(a2)
    179e:	00797063          	bgeu	s2,t2,179e <STACK_SIZE+0x139e>
    17a2:	765f 7270 6e69      	0x6e697270765f
    17a8:	6674                	ld	a3,200(a2)
    17aa:	7300                	ld	s0,32(a4)
    17ac:	7274                	ld	a3,224(a2)
    17ae:	636e                	ld	t1,216(sp)
    17b0:	706d                	c.lui	zero,0xffffb
    17b2:	6600                	ld	s0,8(a2)
    17b4:	616d726f          	jal	tp,d8dca <STACK_SIZE+0xd89ca>
    17b8:	0074                	addi	a3,sp,12
    17ba:	7265                	lui	tp,0xffff9
    17bc:	6e72                	ld	t3,280(sp)
    17be:	          	j	17be <STACK_SIZE+0x13be>

Disassembly of section .debug_ranges:

0000000000000000 <.debug_ranges>:
   0:	0028                	addi	a0,sp,8
   2:	8000                	0x8000
   4:	0000                	unimp
   6:	0000                	unimp
   8:	08a0                	addi	s0,sp,88
   a:	8000                	0x8000
   c:	0000                	unimp
   e:	0000                	unimp
  10:	08a0                	addi	s0,sp,88
  12:	8000                	0x8000
  14:	0000                	unimp
  16:	0000                	unimp
  18:	08cc                	addi	a1,sp,84
  1a:	8000                	0x8000
  1c:	0000                	unimp
  1e:	0000                	unimp
  20:	08cc                	addi	a1,sp,84
  22:	8000                	0x8000
  24:	0000                	unimp
  26:	0000                	unimp
  28:	08f4                	addi	a3,sp,92
  2a:	8000                	0x8000
  2c:	0000                	unimp
  2e:	0000                	unimp
  30:	08f4                	addi	a3,sp,92
  32:	8000                	0x8000
  34:	0000                	unimp
  36:	0000                	unimp
  38:	0928                	addi	a0,sp,152
  3a:	8000                	0x8000
  3c:	0000                	unimp
  3e:	0000                	unimp
  40:	0928                	addi	a0,sp,152
  42:	8000                	0x8000
  44:	0000                	unimp
  46:	0000                	unimp
  48:	09a4                	addi	s1,sp,216
  4a:	8000                	0x8000
  4c:	0000                	unimp
  4e:	0000                	unimp
  50:	09a4                	addi	s1,sp,216
  52:	8000                	0x8000
  54:	0000                	unimp
  56:	0000                	unimp
  58:	0a28                	addi	a0,sp,280
  5a:	8000                	0x8000
  5c:	0000                	unimp
  5e:	0000                	unimp
  60:	0a28                	addi	a0,sp,280
  62:	8000                	0x8000
  64:	0000                	unimp
  66:	0000                	unimp
  68:	0a64                	addi	s1,sp,284
  6a:	8000                	0x8000
  6c:	0000                	unimp
  6e:	0000                	unimp
  70:	0a64                	addi	s1,sp,284
  72:	8000                	0x8000
  74:	0000                	unimp
  76:	0000                	unimp
  78:	0aa0                	addi	s0,sp,344
  7a:	8000                	0x8000
  7c:	0000                	unimp
  7e:	0000                	unimp
  80:	0aa0                	addi	s0,sp,344
  82:	8000                	0x8000
  84:	0000                	unimp
  86:	0000                	unimp
  88:	0ae0                	addi	s0,sp,348
  8a:	8000                	0x8000
  8c:	0000                	unimp
  8e:	0000                	unimp
  90:	0ae0                	addi	s0,sp,348
  92:	8000                	0x8000
  94:	0000                	unimp
  96:	0000                	unimp
  98:	0b1c                	addi	a5,sp,400
  9a:	8000                	0x8000
  9c:	0000                	unimp
  9e:	0000                	unimp
  a0:	0b1c                	addi	a5,sp,400
  a2:	8000                	0x8000
  a4:	0000                	unimp
  a6:	0000                	unimp
  a8:	0b6c                	addi	a1,sp,412
  aa:	8000                	0x8000
	...

Disassembly of section .debug_frame:

0000000000000000 <.debug_frame>:
   0:	000c                	0xc
   2:	0000                	unimp
   4:	ffffffff          	0xffffffff
   8:	0001                	nop
   a:	7c01                	lui	s8,0xfffe0
   c:	0d01                	addi	s10,s10,0
   e:	0002                	c.slli64	zero
  10:	002c                	addi	a1,sp,8
  12:	0000                	unimp
  14:	0000                	unimp
  16:	0000                	unimp
  18:	08a0                	addi	s0,sp,88
  1a:	8000                	0x8000
  1c:	0000                	unimp
  1e:	0000                	unimp
  20:	002c                	addi	a1,sp,8
  22:	0000                	unimp
  24:	0000                	unimp
  26:	0000                	unimp
  28:	0e44                	addi	s1,sp,788
  2a:	4420                	lw	s0,72(s0)
  2c:	0288                	addi	a0,sp,320
  2e:	0c44                	addi	s1,sp,532
  30:	0008                	0x8
  32:	c858                	sw	a4,20(s0)
  34:	020c                	addi	a1,sp,256
  36:	4420                	lw	s0,72(s0)
  38:	000e                	c.slli	zero,0x3
  3a:	0000                	unimp
  3c:	0000                	unimp
  3e:	0000                	unimp
  40:	002c                	addi	a1,sp,8
  42:	0000                	unimp
  44:	0000                	unimp
  46:	0000                	unimp
  48:	08cc                	addi	a1,sp,84
  4a:	8000                	0x8000
  4c:	0000                	unimp
  4e:	0000                	unimp
  50:	0028                	addi	a0,sp,8
  52:	0000                	unimp
  54:	0000                	unimp
  56:	0000                	unimp
  58:	0e44                	addi	s1,sp,788
  5a:	4420                	lw	s0,72(s0)
  5c:	0288                	addi	a0,sp,320
  5e:	0c44                	addi	s1,sp,532
  60:	0008                	0x8
  62:	c854                	sw	a3,20(s0)
  64:	020c                	addi	a1,sp,256
  66:	4420                	lw	s0,72(s0)
  68:	000e                	c.slli	zero,0x3
  6a:	0000                	unimp
  6c:	0000                	unimp
  6e:	0000                	unimp
  70:	002c                	addi	a1,sp,8
  72:	0000                	unimp
  74:	0000                	unimp
  76:	0000                	unimp
  78:	08f4                	addi	a3,sp,92
  7a:	8000                	0x8000
  7c:	0000                	unimp
  7e:	0000                	unimp
  80:	0034                	addi	a3,sp,8
  82:	0000                	unimp
  84:	0000                	unimp
  86:	0000                	unimp
  88:	0e44                	addi	s1,sp,788
  8a:	4420                	lw	s0,72(s0)
  8c:	0288                	addi	a0,sp,320
  8e:	0c44                	addi	s1,sp,532
  90:	0008                	0x8
  92:	c860                	sw	s0,84(s0)
  94:	020c                	addi	a1,sp,256
  96:	4420                	lw	s0,72(s0)
  98:	000e                	c.slli	zero,0x3
  9a:	0000                	unimp
  9c:	0000                	unimp
  9e:	0000                	unimp
  a0:	002c                	addi	a1,sp,8
  a2:	0000                	unimp
  a4:	0000                	unimp
  a6:	0000                	unimp
  a8:	0928                	addi	a0,sp,152
  aa:	8000                	0x8000
  ac:	0000                	unimp
  ae:	0000                	unimp
  b0:	007c                	addi	a5,sp,12
  b2:	0000                	unimp
  b4:	0000                	unimp
  b6:	0000                	unimp
  b8:	0e44                	addi	s1,sp,788
  ba:	4830                	lw	a2,80(s0)
  bc:	0281                	addi	t0,t0,0
  be:	0488                	addi	a0,sp,576
  c0:	0c44                	addi	s1,sp,532
  c2:	0008                	0x8
  c4:	6002                	0x6002
  c6:	44c1                	li	s1,16
  c8:	0cc8                	addi	a0,sp,596
  ca:	3002                	fld	ft0,32(sp)
  cc:	0e44                	addi	s1,sp,788
  ce:	0000                	unimp
  d0:	002c                	addi	a1,sp,8
  d2:	0000                	unimp
  d4:	0000                	unimp
  d6:	0000                	unimp
  d8:	09a4                	addi	s1,sp,216
  da:	8000                	0x8000
  dc:	0000                	unimp
  de:	0000                	unimp
  e0:	0084                	addi	s1,sp,64
  e2:	0000                	unimp
  e4:	0000                	unimp
  e6:	0000                	unimp
  e8:	0e44                	addi	s1,sp,788
  ea:	4830                	lw	a2,80(s0)
  ec:	0281                	addi	t0,t0,0
  ee:	0488                	addi	a0,sp,576
  f0:	0c44                	addi	s1,sp,532
  f2:	0008                	0x8
  f4:	6802                	ld	a6,0(sp)
  f6:	44c1                	li	s1,16
  f8:	0cc8                	addi	a0,sp,596
  fa:	3002                	fld	ft0,32(sp)
  fc:	0e44                	addi	s1,sp,788
  fe:	0000                	unimp
 100:	002c                	addi	a1,sp,8
 102:	0000                	unimp
 104:	0000                	unimp
 106:	0000                	unimp
 108:	0a28                	addi	a0,sp,280
 10a:	8000                	0x8000
 10c:	0000                	unimp
 10e:	0000                	unimp
 110:	003c                	addi	a5,sp,8
 112:	0000                	unimp
 114:	0000                	unimp
 116:	0000                	unimp
 118:	0e44                	addi	s1,sp,788
 11a:	4420                	lw	s0,72(s0)
 11c:	0288                	addi	a0,sp,320
 11e:	0c44                	addi	s1,sp,532
 120:	0008                	0x8
 122:	c868                	sw	a0,84(s0)
 124:	020c                	addi	a1,sp,256
 126:	4420                	lw	s0,72(s0)
 128:	000e                	c.slli	zero,0x3
 12a:	0000                	unimp
 12c:	0000                	unimp
 12e:	0000                	unimp
 130:	002c                	addi	a1,sp,8
 132:	0000                	unimp
 134:	0000                	unimp
 136:	0000                	unimp
 138:	0a64                	addi	s1,sp,284
 13a:	8000                	0x8000
 13c:	0000                	unimp
 13e:	0000                	unimp
 140:	003c                	addi	a5,sp,8
 142:	0000                	unimp
 144:	0000                	unimp
 146:	0000                	unimp
 148:	0e44                	addi	s1,sp,788
 14a:	4420                	lw	s0,72(s0)
 14c:	0288                	addi	a0,sp,320
 14e:	0c44                	addi	s1,sp,532
 150:	0008                	0x8
 152:	c868                	sw	a0,84(s0)
 154:	020c                	addi	a1,sp,256
 156:	4420                	lw	s0,72(s0)
 158:	000e                	c.slli	zero,0x3
 15a:	0000                	unimp
 15c:	0000                	unimp
 15e:	0000                	unimp
 160:	002c                	addi	a1,sp,8
 162:	0000                	unimp
 164:	0000                	unimp
 166:	0000                	unimp
 168:	0aa0                	addi	s0,sp,344
 16a:	8000                	0x8000
 16c:	0000                	unimp
 16e:	0000                	unimp
 170:	0040                	addi	s0,sp,4
 172:	0000                	unimp
 174:	0000                	unimp
 176:	0000                	unimp
 178:	0e44                	addi	s1,sp,788
 17a:	4420                	lw	s0,72(s0)
 17c:	0288                	addi	a0,sp,320
 17e:	0c44                	addi	s1,sp,532
 180:	0008                	0x8
 182:	c86c                	sw	a1,84(s0)
 184:	020c                	addi	a1,sp,256
 186:	4420                	lw	s0,72(s0)
 188:	000e                	c.slli	zero,0x3
 18a:	0000                	unimp
 18c:	0000                	unimp
 18e:	0000                	unimp
 190:	002c                	addi	a1,sp,8
 192:	0000                	unimp
 194:	0000                	unimp
 196:	0000                	unimp
 198:	0ae0                	addi	s0,sp,348
 19a:	8000                	0x8000
 19c:	0000                	unimp
 19e:	0000                	unimp
 1a0:	003c                	addi	a5,sp,8
 1a2:	0000                	unimp
 1a4:	0000                	unimp
 1a6:	0000                	unimp
 1a8:	0e44                	addi	s1,sp,788
 1aa:	4420                	lw	s0,72(s0)
 1ac:	0288                	addi	a0,sp,320
 1ae:	0c44                	addi	s1,sp,532
 1b0:	0008                	0x8
 1b2:	c868                	sw	a0,84(s0)
 1b4:	020c                	addi	a1,sp,256
 1b6:	4420                	lw	s0,72(s0)
 1b8:	000e                	c.slli	zero,0x3
 1ba:	0000                	unimp
 1bc:	0000                	unimp
 1be:	0000                	unimp
 1c0:	002c                	addi	a1,sp,8
 1c2:	0000                	unimp
 1c4:	0000                	unimp
 1c6:	0000                	unimp
 1c8:	0b1c                	addi	a5,sp,400
 1ca:	8000                	0x8000
 1cc:	0000                	unimp
 1ce:	0000                	unimp
 1d0:	0050                	addi	a2,sp,4
 1d2:	0000                	unimp
 1d4:	0000                	unimp
 1d6:	0000                	unimp
 1d8:	0e44                	addi	s1,sp,788
 1da:	4820                	lw	s0,80(s0)
 1dc:	0281                	addi	t0,t0,0
 1de:	0488                	addi	a0,sp,576
 1e0:	0c44                	addi	s1,sp,532
 1e2:	0008                	0x8
 1e4:	c174                	sw	a3,68(a0)
 1e6:	c844                	sw	s1,20(s0)
 1e8:	020c                	addi	a1,sp,256
 1ea:	4420                	lw	s0,72(s0)
 1ec:	000e                	c.slli	zero,0x3
 1ee:	0000                	unimp
 1f0:	002c                	addi	a1,sp,8
 1f2:	0000                	unimp
 1f4:	0000                	unimp
 1f6:	0000                	unimp
 1f8:	0028                	addi	a0,sp,8
 1fa:	8000                	0x8000
 1fc:	0000                	unimp
 1fe:	0000                	unimp
 200:	0054                	addi	a3,sp,4
 202:	0000                	unimp
 204:	0000                	unimp
 206:	0000                	unimp
 208:	0e44                	addi	s1,sp,788
 20a:	4820                	lw	s0,80(s0)
 20c:	0281                	addi	t0,t0,0
 20e:	0488                	addi	a0,sp,576
 210:	0c44                	addi	s1,sp,532
 212:	0008                	0x8
 214:	3802                	fld	fa6,32(sp)
 216:	44c1                	li	s1,16
 218:	0cc8                	addi	a0,sp,596
 21a:	2002                	fld	ft0,0(sp)
 21c:	0e44                	addi	s1,sp,788
 21e:	0000                	unimp
 220:	002c                	addi	a1,sp,8
 222:	0000                	unimp
 224:	0000                	unimp
 226:	0000                	unimp
 228:	007c                	addi	a5,sp,12
 22a:	8000                	0x8000
 22c:	0000                	unimp
 22e:	0000                	unimp
 230:	0058                	addi	a4,sp,4
 232:	0000                	unimp
 234:	0000                	unimp
 236:	0000                	unimp
 238:	0e44                	addi	s1,sp,788
 23a:	4830                	lw	a2,80(s0)
 23c:	0281                	addi	t0,t0,0
 23e:	0488                	addi	a0,sp,576
 240:	0c44                	addi	s1,sp,532
 242:	0008                	0x8
 244:	3c02                	fld	fs8,32(sp)
 246:	44c1                	li	s1,16
 248:	0cc8                	addi	a0,sp,596
 24a:	3002                	fld	ft0,32(sp)
 24c:	0e44                	addi	s1,sp,788
 24e:	0000                	unimp
 250:	002c                	addi	a1,sp,8
 252:	0000                	unimp
 254:	0000                	unimp
 256:	0000                	unimp
 258:	00d4                	addi	a3,sp,68
 25a:	8000                	0x8000
 25c:	0000                	unimp
 25e:	0000                	unimp
 260:	0110                	addi	a2,sp,128
 262:	0000                	unimp
 264:	0000                	unimp
 266:	0000                	unimp
 268:	0e44                	addi	s1,sp,788
 26a:	4830                	lw	a2,80(s0)
 26c:	0281                	addi	t0,t0,0
 26e:	0488                	addi	a0,sp,576
 270:	0c44                	addi	s1,sp,532
 272:	0008                	0x8
 274:	c100f403          	0xc100f403
 278:	c844                	sw	s1,20(s0)
 27a:	020c                	addi	a1,sp,256
 27c:	4430                	lw	a2,72(s0)
 27e:	000e                	c.slli	zero,0x3
 280:	002c                	addi	a1,sp,8
 282:	0000                	unimp
 284:	0000                	unimp
 286:	0000                	unimp
 288:	01e4                	addi	s1,sp,204
 28a:	8000                	0x8000
 28c:	0000                	unimp
 28e:	0000                	unimp
 290:	007c                	addi	a5,sp,12
 292:	0000                	unimp
 294:	0000                	unimp
 296:	0000                	unimp
 298:	0e44                	addi	s1,sp,788
 29a:	4820                	lw	s0,80(s0)
 29c:	0281                	addi	t0,t0,0
 29e:	0488                	addi	a0,sp,576
 2a0:	0c44                	addi	s1,sp,532
 2a2:	0008                	0x8
 2a4:	6002                	0x6002
 2a6:	44c1                	li	s1,16
 2a8:	0cc8                	addi	a0,sp,596
 2aa:	2002                	fld	ft0,0(sp)
 2ac:	0e44                	addi	s1,sp,788
 2ae:	0000                	unimp
 2b0:	002c                	addi	a1,sp,8
 2b2:	0000                	unimp
 2b4:	0000                	unimp
 2b6:	0000                	unimp
 2b8:	0260                	addi	s0,sp,268
 2ba:	8000                	0x8000
 2bc:	0000                	unimp
 2be:	0000                	unimp
 2c0:	00d4                	addi	a3,sp,68
 2c2:	0000                	unimp
 2c4:	0000                	unimp
 2c6:	0000                	unimp
 2c8:	0e44                	addi	s1,sp,788
 2ca:	4820                	lw	s0,80(s0)
 2cc:	0281                	addi	t0,t0,0
 2ce:	0488                	addi	a0,sp,576
 2d0:	0c44                	addi	s1,sp,532
 2d2:	0008                	0x8
 2d4:	b802                	fsd	ft0,48(sp)
 2d6:	44c1                	li	s1,16
 2d8:	0cc8                	addi	a0,sp,596
 2da:	2002                	fld	ft0,0(sp)
 2dc:	0e44                	addi	s1,sp,788
 2de:	0000                	unimp
 2e0:	002c                	addi	a1,sp,8
 2e2:	0000                	unimp
 2e4:	0000                	unimp
 2e6:	0000                	unimp
 2e8:	0334                	addi	a3,sp,392
 2ea:	8000                	0x8000
 2ec:	0000                	unimp
 2ee:	0000                	unimp
 2f0:	00f0                	addi	a2,sp,76
 2f2:	0000                	unimp
 2f4:	0000                	unimp
 2f6:	0000                	unimp
 2f8:	0e44                	addi	s1,sp,788
 2fa:	4830                	lw	a2,80(s0)
 2fc:	0281                	addi	t0,t0,0
 2fe:	0488                	addi	a0,sp,576
 300:	0c44                	addi	s1,sp,532
 302:	0008                	0x8
 304:	d402                	sw	zero,40(sp)
 306:	44c1                	li	s1,16
 308:	0cc8                	addi	a0,sp,596
 30a:	3002                	fld	ft0,32(sp)
 30c:	0e44                	addi	s1,sp,788
 30e:	0000                	unimp
 310:	0014                	0x14
 312:	0000                	unimp
 314:	0000                	unimp
 316:	0000                	unimp
 318:	0424                	addi	s1,sp,520
 31a:	8000                	0x8000
 31c:	0000                	unimp
 31e:	0000                	unimp
 320:	0114                	addi	a3,sp,128
 322:	0000                	unimp
 324:	0000                	unimp
 326:	0000                	unimp
 328:	002c                	addi	a1,sp,8
 32a:	0000                	unimp
 32c:	0000                	unimp
 32e:	0000                	unimp
 330:	0538                	addi	a4,sp,648
 332:	8000                	0x8000
 334:	0000                	unimp
 336:	0000                	unimp
 338:	0050                	addi	a2,sp,4
 33a:	0000                	unimp
 33c:	0000                	unimp
 33e:	0000                	unimp
 340:	0e44                	addi	s1,sp,788
 342:	4820                	lw	s0,80(s0)
 344:	0281                	addi	t0,t0,0
 346:	0488                	addi	a0,sp,576
 348:	0c44                	addi	s1,sp,532
 34a:	0008                	0x8
 34c:	c174                	sw	a3,68(a0)
 34e:	c844                	sw	s1,20(s0)
 350:	020c                	addi	a1,sp,256
 352:	4420                	lw	s0,72(s0)
 354:	000e                	c.slli	zero,0x3
 356:	0000                	unimp
 358:	002c                	addi	a1,sp,8
 35a:	0000                	unimp
 35c:	0000                	unimp
 35e:	0000                	unimp
 360:	0588                	addi	a0,sp,704
 362:	8000                	0x8000
 364:	0000                	unimp
 366:	0000                	unimp
 368:	00f8                	addi	a4,sp,76
 36a:	0000                	unimp
 36c:	0000                	unimp
 36e:	0000                	unimp
 370:	0e44                	addi	s1,sp,788
 372:	4850                	lw	a2,20(s0)
 374:	0281                	addi	t0,t0,0
 376:	0488                	addi	a0,sp,576
 378:	0c44                	addi	s1,sp,532
 37a:	0008                	0x8
 37c:	dc02                	sw	zero,56(sp)
 37e:	44c1                	li	s1,16
 380:	0cc8                	addi	a0,sp,596
 382:	5002                	0x5002
 384:	0e44                	addi	s1,sp,788
 386:	0000                	unimp
 388:	002c                	addi	a1,sp,8
 38a:	0000                	unimp
 38c:	0000                	unimp
 38e:	0000                	unimp
 390:	0680                	addi	s0,sp,832
 392:	8000                	0x8000
 394:	0000                	unimp
 396:	0000                	unimp
 398:	0090                	addi	a2,sp,64
 39a:	0000                	unimp
 39c:	0000                	unimp
 39e:	0000                	unimp
 3a0:	0e44                	addi	s1,sp,788
 3a2:	4840                	lw	s0,20(s0)
 3a4:	0281                	addi	t0,t0,0
 3a6:	0488                	addi	a0,sp,576
 3a8:	0c44                	addi	s1,sp,532
 3aa:	0008                	0x8
 3ac:	7402                	ld	s0,32(sp)
 3ae:	44c1                	li	s1,16
 3b0:	0cc8                	addi	a0,sp,596
 3b2:	4002                	0x4002
 3b4:	0e44                	addi	s1,sp,788
 3b6:	0000                	unimp
 3b8:	002c                	addi	a1,sp,8
 3ba:	0000                	unimp
 3bc:	0000                	unimp
 3be:	0000                	unimp
 3c0:	0710                	addi	a2,sp,896
 3c2:	8000                	0x8000
 3c4:	0000                	unimp
 3c6:	0000                	unimp
 3c8:	005c                	addi	a5,sp,4
 3ca:	0000                	unimp
 3cc:	0000                	unimp
 3ce:	0000                	unimp
 3d0:	0e44                	addi	s1,sp,788
 3d2:	4820                	lw	s0,80(s0)
 3d4:	0281                	addi	t0,t0,0
 3d6:	0488                	addi	a0,sp,576
 3d8:	0c44                	addi	s1,sp,532
 3da:	0008                	0x8
 3dc:	4002                	0x4002
 3de:	44c1                	li	s1,16
 3e0:	0cc8                	addi	a0,sp,596
 3e2:	2002                	fld	ft0,0(sp)
 3e4:	0e44                	addi	s1,sp,788
 3e6:	0000                	unimp
 3e8:	002c                	addi	a1,sp,8
 3ea:	0000                	unimp
 3ec:	0000                	unimp
 3ee:	0000                	unimp
 3f0:	076c                	addi	a1,sp,908
 3f2:	8000                	0x8000
 3f4:	0000                	unimp
 3f6:	0000                	unimp
 3f8:	006c                	addi	a1,sp,12
 3fa:	0000                	unimp
 3fc:	0000                	unimp
 3fe:	0000                	unimp
 400:	0e44                	addi	s1,sp,788
 402:	4820                	lw	s0,80(s0)
 404:	0281                	addi	t0,t0,0
 406:	0488                	addi	a0,sp,576
 408:	0c44                	addi	s1,sp,532
 40a:	0008                	0x8
 40c:	5002                	0x5002
 40e:	44c1                	li	s1,16
 410:	0cc8                	addi	a0,sp,596
 412:	2002                	fld	ft0,0(sp)
 414:	0e44                	addi	s1,sp,788
 416:	0000                	unimp
 418:	002c                	addi	a1,sp,8
 41a:	0000                	unimp
 41c:	0000                	unimp
 41e:	0000                	unimp
 420:	07d8                	addi	a4,sp,964
 422:	8000                	0x8000
 424:	0000                	unimp
 426:	0000                	unimp
 428:	00c8                	addi	a0,sp,68
 42a:	0000                	unimp
 42c:	0000                	unimp
 42e:	0000                	unimp
 430:	0e44                	addi	s1,sp,788
 432:	4810                	lw	a2,16(s0)
 434:	0281                	addi	t0,t0,0
 436:	0488                	addi	a0,sp,576
 438:	0c44                	addi	s1,sp,532
 43a:	0008                	0x8
 43c:	ac02                	fsd	ft0,24(sp)
 43e:	44c1                	li	s1,16
 440:	0cc8                	addi	a0,sp,596
 442:	1002                	c.slli	zero,0x20
 444:	0e44                	addi	s1,sp,788
 446:	0000                	unimp
 448:	000c                	0xc
 44a:	0000                	unimp
 44c:	ffffffff          	0xffffffff
 450:	0001                	nop
 452:	7c01                	lui	s8,0xfffe0
 454:	0d01                	addi	s10,s10,0
 456:	0002                	c.slli64	zero
 458:	002c                	addi	a1,sp,8
 45a:	0000                	unimp
 45c:	0448                	addi	a0,sp,516
 45e:	0000                	unimp
 460:	0b6c                	addi	a1,sp,412
 462:	8000                	0x8000
 464:	0000                	unimp
 466:	0000                	unimp
 468:	0054                	addi	a3,sp,4
 46a:	0000                	unimp
 46c:	0000                	unimp
 46e:	0000                	unimp
 470:	0e44                	addi	s1,sp,788
 472:	4830                	lw	a2,80(s0)
 474:	0281                	addi	t0,t0,0
 476:	0488                	addi	a0,sp,576
 478:	0c44                	addi	s1,sp,532
 47a:	0008                	0x8
 47c:	c178                	sw	a4,68(a0)
 47e:	c844                	sw	s1,20(s0)
 480:	020c                	addi	a1,sp,256
 482:	4430                	lw	a2,72(s0)
 484:	000e                	c.slli	zero,0x3
 486:	0000                	unimp
 488:	002c                	addi	a1,sp,8
 48a:	0000                	unimp
 48c:	0448                	addi	a0,sp,516
 48e:	0000                	unimp
 490:	0bc0                	addi	s0,sp,468
 492:	8000                	0x8000
 494:	0000                	unimp
 496:	0000                	unimp
 498:	0508                	addi	a0,sp,640
 49a:	0000                	unimp
 49c:	0000                	unimp
 49e:	0000                	unimp
 4a0:	0e44                	addi	s1,sp,788
 4a2:	0180                	addi	s0,sp,192
 4a4:	8844                	0x8844
 4a6:	4402                	lw	s0,0(sp)
 4a8:	080c                	addi	a1,sp,16
 4aa:	0300                	addi	s0,sp,384
 4ac:	04f4                	addi	a3,sp,588
 4ae:	0cc8                	addi	a0,sp,596
 4b0:	8002                	0x8002
 4b2:	4401                	li	s0,0
 4b4:	000e                	c.slli	zero,0x3
 4b6:	0000                	unimp
 4b8:	002c                	addi	a1,sp,8
 4ba:	0000                	unimp
 4bc:	0448                	addi	a0,sp,516
 4be:	0000                	unimp
 4c0:	10c8                	addi	a0,sp,100
 4c2:	8000                	0x8000
 4c4:	0000                	unimp
 4c6:	0000                	unimp
 4c8:	00bc                	addi	a5,sp,72
 4ca:	0000                	unimp
 4cc:	0000                	unimp
 4ce:	0000                	unimp
 4d0:	0e44                	addi	s1,sp,788
 4d2:	4830                	lw	a2,80(s0)
 4d4:	0281                	addi	t0,t0,0
 4d6:	0488                	addi	a0,sp,576
 4d8:	0c44                	addi	s1,sp,532
 4da:	0008                	0x8
 4dc:	a002                	fsd	ft0,0(sp)
 4de:	44c1                	li	s1,16
 4e0:	0cc8                	addi	a0,sp,596
 4e2:	3002                	fld	ft0,32(sp)
 4e4:	0e44                	addi	s1,sp,788
 4e6:	0000                	unimp
 4e8:	002c                	addi	a1,sp,8
 4ea:	0000                	unimp
 4ec:	0448                	addi	a0,sp,516
 4ee:	0000                	unimp
 4f0:	1184                	addi	s1,sp,224
 4f2:	8000                	0x8000
 4f4:	0000                	unimp
 4f6:	0000                	unimp
 4f8:	0078                	addi	a4,sp,12
 4fa:	0000                	unimp
 4fc:	0000                	unimp
 4fe:	0000                	unimp
 500:	0e44                	addi	s1,sp,788
 502:	4870                	lw	a2,84(s0)
 504:	1281                	addi	t0,t0,-32
 506:	1488                	addi	a0,sp,608
 508:	0c44                	addi	s1,sp,532
 50a:	4008                	lw	a0,0(s0)
 50c:	5c02                	lw	s8,32(sp)
 50e:	44c1                	li	s1,16
 510:	0cc8                	addi	a0,sp,596
 512:	7002                	0x7002
 514:	0e44                	addi	s1,sp,788
 516:	0000                	unimp
 518:	0024                	addi	s1,sp,8
 51a:	0000                	unimp
 51c:	0448                	addi	a0,sp,516
 51e:	0000                	unimp
 520:	11fc                	addi	a5,sp,236
 522:	8000                	0x8000
 524:	0000                	unimp
 526:	0000                	unimp
 528:	0038                	addi	a4,sp,8
 52a:	0000                	unimp
 52c:	0000                	unimp
 52e:	0000                	unimp
 530:	0e44                	addi	s1,sp,788
 532:	4820                	lw	s0,80(s0)
 534:	0281                	addi	t0,t0,0
 536:	0488                	addi	a0,sp,576
 538:	0c44                	addi	s1,sp,532
 53a:	0008                	0x8
 53c:	0000                	unimp
 53e:	0000                	unimp
 540:	0024                	addi	s1,sp,8
 542:	0000                	unimp
 544:	0448                	addi	a0,sp,516
 546:	0000                	unimp
 548:	1234                	addi	a3,sp,296
 54a:	8000                	0x8000
 54c:	0000                	unimp
 54e:	0000                	unimp
 550:	001c                	0x1c
 552:	0000                	unimp
 554:	0000                	unimp
 556:	0000                	unimp
 558:	0e44                	addi	s1,sp,788
 55a:	4420                	lw	s0,72(s0)
 55c:	0288                	addi	a0,sp,320
 55e:	0c44                	addi	s1,sp,532
 560:	0008                	0x8
 562:	0000                	unimp
 564:	0000                	unimp
 566:	0000                	unimp
 568:	002c                	addi	a1,sp,8
 56a:	0000                	unimp
 56c:	0448                	addi	a0,sp,516
 56e:	0000                	unimp
 570:	1250                	addi	a2,sp,292
 572:	8000                	0x8000
 574:	0000                	unimp
 576:	0000                	unimp
 578:	0050                	addi	a2,sp,4
 57a:	0000                	unimp
 57c:	0000                	unimp
 57e:	0000                	unimp
 580:	0e44                	addi	s1,sp,788
 582:	4430                	lw	a2,72(s0)
 584:	0288                	addi	a0,sp,320
 586:	0c44                	addi	s1,sp,532
 588:	0008                	0x8
 58a:	c87c                	sw	a5,84(s0)
 58c:	020c                	addi	a1,sp,256
 58e:	4430                	lw	a2,72(s0)
 590:	000e                	c.slli	zero,0x3
 592:	0000                	unimp
 594:	0000                	unimp
 596:	0000                	unimp
 598:	002c                	addi	a1,sp,8
 59a:	0000                	unimp
 59c:	0448                	addi	a0,sp,516
 59e:	0000                	unimp
 5a0:	12a0                	addi	s0,sp,360
 5a2:	8000                	0x8000
 5a4:	0000                	unimp
 5a6:	0000                	unimp
 5a8:	0070                	addi	a2,sp,12
 5aa:	0000                	unimp
 5ac:	0000                	unimp
 5ae:	0000                	unimp
 5b0:	0e44                	addi	s1,sp,788
 5b2:	4430                	lw	a2,72(s0)
 5b4:	0288                	addi	a0,sp,320
 5b6:	0c44                	addi	s1,sp,532
 5b8:	0008                	0x8
 5ba:	5c02                	lw	s8,32(sp)
 5bc:	0cc8                	addi	a0,sp,596
 5be:	3002                	fld	ft0,32(sp)
 5c0:	0e44                	addi	s1,sp,788
 5c2:	0000                	unimp
 5c4:	0000                	unimp
 5c6:	0000                	unimp
 5c8:	002c                	addi	a1,sp,8
 5ca:	0000                	unimp
 5cc:	0448                	addi	a0,sp,516
 5ce:	0000                	unimp
 5d0:	1310                	addi	a2,sp,416
 5d2:	8000                	0x8000
 5d4:	0000                	unimp
 5d6:	0000                	unimp
 5d8:	00b8                	addi	a4,sp,72
 5da:	0000                	unimp
 5dc:	0000                	unimp
 5de:	0000                	unimp
 5e0:	0e44                	addi	s1,sp,788
 5e2:	4440                	lw	s0,12(s0)
 5e4:	0288                	addi	a0,sp,320
 5e6:	0c44                	addi	s1,sp,532
 5e8:	0008                	0x8
 5ea:	a402                	fsd	ft0,8(sp)
 5ec:	0cc8                	addi	a0,sp,596
 5ee:	4002                	0x4002
 5f0:	0e44                	addi	s1,sp,788
 5f2:	0000                	unimp
 5f4:	0000                	unimp
 5f6:	0000                	unimp
 5f8:	002c                	addi	a1,sp,8
 5fa:	0000                	unimp
 5fc:	0448                	addi	a0,sp,516
 5fe:	0000                	unimp
 600:	13c8                	addi	a0,sp,484
 602:	8000                	0x8000
 604:	0000                	unimp
 606:	0000                	unimp
 608:	008c                	addi	a1,sp,64
 60a:	0000                	unimp
 60c:	0000                	unimp
 60e:	0000                	unimp
 610:	0e44                	addi	s1,sp,788
 612:	4430                	lw	a2,72(s0)
 614:	0288                	addi	a0,sp,320
 616:	0c44                	addi	s1,sp,532
 618:	0008                	0x8
 61a:	7802                	ld	a6,32(sp)
 61c:	0cc8                	addi	a0,sp,596
 61e:	3002                	fld	ft0,32(sp)
 620:	0e44                	addi	s1,sp,788
 622:	0000                	unimp
 624:	0000                	unimp
 626:	0000                	unimp
 628:	002c                	addi	a1,sp,8
 62a:	0000                	unimp
 62c:	0448                	addi	a0,sp,516
 62e:	0000                	unimp
 630:	1454                	addi	a3,sp,548
 632:	8000                	0x8000
 634:	0000                	unimp
 636:	0000                	unimp
 638:	008c                	addi	a1,sp,64
 63a:	0000                	unimp
 63c:	0000                	unimp
 63e:	0000                	unimp
 640:	0e44                	addi	s1,sp,788
 642:	4420                	lw	s0,72(s0)
 644:	0288                	addi	a0,sp,320
 646:	0c44                	addi	s1,sp,532
 648:	0008                	0x8
 64a:	7802                	ld	a6,32(sp)
 64c:	0cc8                	addi	a0,sp,596
 64e:	2002                	fld	ft0,0(sp)
 650:	0e44                	addi	s1,sp,788
 652:	0000                	unimp
 654:	0000                	unimp
 656:	0000                	unimp
 658:	002c                	addi	a1,sp,8
 65a:	0000                	unimp
 65c:	0448                	addi	a0,sp,516
 65e:	0000                	unimp
 660:	14e0                	addi	s0,sp,620
 662:	8000                	0x8000
 664:	0000                	unimp
 666:	0000                	unimp
 668:	00c0                	addi	s0,sp,68
 66a:	0000                	unimp
 66c:	0000                	unimp
 66e:	0000                	unimp
 670:	0e44                	addi	s1,sp,788
 672:	4440                	lw	s0,12(s0)
 674:	0288                	addi	a0,sp,320
 676:	0c44                	addi	s1,sp,532
 678:	0008                	0x8
 67a:	ac02                	fsd	ft0,24(sp)
 67c:	0cc8                	addi	a0,sp,596
 67e:	4002                	0x4002
 680:	0e44                	addi	s1,sp,788
 682:	0000                	unimp
 684:	0000                	unimp
 686:	0000                	unimp
 688:	002c                	addi	a1,sp,8
 68a:	0000                	unimp
 68c:	0448                	addi	a0,sp,516
 68e:	0000                	unimp
 690:	15a0                	addi	s0,sp,744
 692:	8000                	0x8000
 694:	0000                	unimp
 696:	0000                	unimp
 698:	0070                	addi	a2,sp,12
 69a:	0000                	unimp
 69c:	0000                	unimp
 69e:	0000                	unimp
 6a0:	0e44                	addi	s1,sp,788
 6a2:	4440                	lw	s0,12(s0)
 6a4:	0288                	addi	a0,sp,320
 6a6:	0c44                	addi	s1,sp,532
 6a8:	0008                	0x8
 6aa:	5c02                	lw	s8,32(sp)
 6ac:	0cc8                	addi	a0,sp,596
 6ae:	4002                	0x4002
 6b0:	0e44                	addi	s1,sp,788
 6b2:	0000                	unimp
 6b4:	0000                	unimp
 6b6:	0000                	unimp
 6b8:	002c                	addi	a1,sp,8
 6ba:	0000                	unimp
 6bc:	0448                	addi	a0,sp,516
 6be:	0000                	unimp
 6c0:	1610                	addi	a2,sp,800
 6c2:	8000                	0x8000
 6c4:	0000                	unimp
 6c6:	0000                	unimp
 6c8:	009c                	addi	a5,sp,64
 6ca:	0000                	unimp
 6cc:	0000                	unimp
 6ce:	0000                	unimp
 6d0:	0e44                	addi	s1,sp,788
 6d2:	4440                	lw	s0,12(s0)
 6d4:	0288                	addi	a0,sp,320
 6d6:	0c44                	addi	s1,sp,532
 6d8:	0008                	0x8
 6da:	8802                	jr	a6
 6dc:	0cc8                	addi	a0,sp,596
 6de:	4002                	0x4002
 6e0:	0e44                	addi	s1,sp,788
 6e2:	0000                	unimp
 6e4:	0000                	unimp
 6e6:	0000                	unimp
 6e8:	002c                	addi	a1,sp,8
 6ea:	0000                	unimp
 6ec:	0448                	addi	a0,sp,516
 6ee:	0000                	unimp
 6f0:	16ac                	addi	a1,sp,872
 6f2:	8000                	0x8000
 6f4:	0000                	unimp
 6f6:	0000                	unimp
 6f8:	0080                	addi	s0,sp,64
 6fa:	0000                	unimp
 6fc:	0000                	unimp
 6fe:	0000                	unimp
 700:	0e44                	addi	s1,sp,788
 702:	4440                	lw	s0,12(s0)
 704:	0288                	addi	a0,sp,320
 706:	0c44                	addi	s1,sp,532
 708:	0008                	0x8
 70a:	6c02                	ld	s8,0(sp)
 70c:	0cc8                	addi	a0,sp,596
 70e:	4002                	0x4002
 710:	0e44                	addi	s1,sp,788
 712:	0000                	unimp
 714:	0000                	unimp
 716:	0000                	unimp
 718:	002c                	addi	a1,sp,8
 71a:	0000                	unimp
 71c:	0448                	addi	a0,sp,516
 71e:	0000                	unimp
 720:	172c                	addi	a1,sp,936
 722:	8000                	0x8000
 724:	0000                	unimp
 726:	0000                	unimp
 728:	00d0                	addi	a2,sp,68
 72a:	0000                	unimp
 72c:	0000                	unimp
 72e:	0000                	unimp
 730:	0e44                	addi	s1,sp,788
 732:	4450                	lw	a2,12(s0)
 734:	0288                	addi	a0,sp,320
 736:	0c44                	addi	s1,sp,532
 738:	0008                	0x8
 73a:	bc02                	fsd	ft0,56(sp)
 73c:	0cc8                	addi	a0,sp,596
 73e:	5002                	0x5002
 740:	0e44                	addi	s1,sp,788
 742:	0000                	unimp
 744:	0000                	unimp
	...
