
sbi.elf:     file format elf64-littleriscv


Disassembly of section .text:

0000000080000000 <_start>:
    .extern trapvector

	.text
_start:
	# park harts with id != 0
	csrr	t0, mhartid		# read current hart id
    80000000:	f14022f3          	csrr	t0,mhartid
	mv	tp, t0			# keep CPU's hartid in its tp for later usage.
    80000004:	00028213          	mv	tp,t0
	bnez	t0, park		# if we're not on the hart 0
    80000008:	00029c63          	bnez	t0,80000020 <park>
					# we park the hart
	# Setup stacks, the stack grows from bottom to top, so we put the
	# stack pointer to the very end of the stack range.
	slli	t0, t0, 10		# shift left the hart id by 1024
    8000000c:	00a29293          	slli	t0,t0,0xa
	la	sp, stacks + STACK_SIZE	# set the initial stack pointer
    80000010:	00002117          	auipc	sp,0x2
    80000014:	3f010113          	addi	sp,sp,1008 # 80002400 <stacks+0x400>
					# to the end of the first stack space
	add	sp, sp, t0		# move the current hart stack pointer
    80000018:	00510133          	add	sp,sp,t0
					# to its place in the stack space

    call   sbi_init            # hart 0 jump to sbi
    8000001c:	7bc000ef          	jal	ra,800007d8 <sbi_init>

0000000080000020 <park>:
    # j park

	# j	start_kernel		# hart 0 jump to c

park:
	wfi
    80000020:	10500073          	wfi
	j	park
    80000024:	ffdff06f          	j	80000020 <park>

0000000080000028 <_Z9plicClaimv>:

#define TIMER_INTERVAL 5000000

static xlen_t gpr[30];

int plicClaim(){
    80000028:	fe010113          	addi	sp,sp,-32
    8000002c:	00113c23          	sd	ra,24(sp)
    80000030:	00813823          	sd	s0,16(sp)
    80000034:	02010413          	addi	s0,sp,32
    int hart=csr::hart();
    80000038:	095000ef          	jal	ra,800008cc <_ZN3csr4hartEv>
    8000003c:	00050793          	mv	a5,a0
    80000040:	fef42623          	sw	a5,-20(s0)
    int irq=mmio<int>(platform::plic::claimOf(hart));
    80000044:	fec42783          	lw	a5,-20(s0)
    80000048:	00078513          	mv	a0,a5
    8000004c:	255000ef          	jal	ra,80000aa0 <_ZN8platform4plic7claimOfEi>
    80000050:	00050793          	mv	a5,a0
    80000054:	fef43023          	sd	a5,-32(s0)
 */
#define MAXNUM_CPU 8

template<typename T>
FORCEDINLINE T& mmio(xlen_t addr){
    return reinterpret_cast<T&>(*reinterpret_cast<T*>(addr));
    80000058:	fe043783          	ld	a5,-32(s0)
    8000005c:	0007a783          	lw	a5,0(a5)
    80000060:	fef42423          	sw	a5,-24(s0)
    return irq;
    80000064:	fe842783          	lw	a5,-24(s0)
}
    80000068:	00078513          	mv	a0,a5
    8000006c:	01813083          	ld	ra,24(sp)
    80000070:	01013403          	ld	s0,16(sp)
    80000074:	02010113          	addi	sp,sp,32
    80000078:	00008067          	ret

000000008000007c <_Z12plicCompletei>:
void plicComplete(int irq){
    8000007c:	fd010113          	addi	sp,sp,-48
    80000080:	02113423          	sd	ra,40(sp)
    80000084:	02813023          	sd	s0,32(sp)
    80000088:	03010413          	addi	s0,sp,48
    8000008c:	00050793          	mv	a5,a0
    80000090:	fcf42e23          	sw	a5,-36(s0)
    int hart=csr::hart();
    80000094:	039000ef          	jal	ra,800008cc <_ZN3csr4hartEv>
    80000098:	00050793          	mv	a5,a0
    8000009c:	fef42623          	sw	a5,-20(s0)
    mmio<int>(platform::plic::claimOf(hart))=irq;
    800000a0:	fec42783          	lw	a5,-20(s0)
    800000a4:	00078513          	mv	a0,a5
    800000a8:	1f9000ef          	jal	ra,80000aa0 <_ZN8platform4plic7claimOfEi>
    800000ac:	00050793          	mv	a5,a0
    800000b0:	fef43023          	sd	a5,-32(s0)
    800000b4:	fe043783          	ld	a5,-32(s0)
    800000b8:	fdc42703          	lw	a4,-36(s0)
    800000bc:	00e7a023          	sw	a4,0(a5)
}
    800000c0:	00000013          	nop
    800000c4:	02813083          	ld	ra,40(sp)
    800000c8:	02013403          	ld	s0,32(sp)
    800000cc:	03010113          	addi	sp,sp,48
    800000d0:	00008067          	ret

00000000800000d4 <_Z24externalInterruptHandlerv>:

void externalInterruptHandler(){
    800000d4:	fd010113          	addi	sp,sp,-48
    800000d8:	02113423          	sd	ra,40(sp)
    800000dc:	02813023          	sd	s0,32(sp)
    800000e0:	03010413          	addi	s0,sp,48
    int irq=plicClaim();
    800000e4:	f45ff0ef          	jal	ra,80000028 <_Z9plicClaimv>
    800000e8:	00050793          	mv	a5,a0
    800000ec:	fef42423          	sw	a5,-24(s0)
    // printf("externalInterruptHandler(irq=%d)\n",irq);
    static int levelcnt=0;
    levelcnt++;
    800000f0:	00004797          	auipc	a5,0x4
    800000f4:	0a078793          	addi	a5,a5,160 # 80004190 <_ZZ24externalInterruptHandlervE8levelcnt>
    800000f8:	0007a783          	lw	a5,0(a5)
    800000fc:	0017879b          	addiw	a5,a5,1
    80000100:	0007871b          	sext.w	a4,a5
    80000104:	00004797          	auipc	a5,0x4
    80000108:	08c78793          	addi	a5,a5,140 # 80004190 <_ZZ24externalInterruptHandlervE8levelcnt>
    8000010c:	00e7a023          	sw	a4,0(a5)
    if(irq==platform::uart0::irq){
    80000110:	fe842783          	lw	a5,-24(s0)
    80000114:	0007871b          	sext.w	a4,a5
    80000118:	00a00793          	li	a5,10
    8000011c:	08f71463          	bne	a4,a5,800001a4 <_Z24externalInterruptHandlerv+0xd0>
        using namespace platform::uart0;
        int cnt=0;
    80000120:	fe042623          	sw	zero,-20(s0)
        while(mmio<volatile lsr>(reg(LSR)).rxnemp){
    80000124:	00500513          	li	a0,5
    80000128:	7cc000ef          	jal	ra,800008f4 <_ZN8platform5uart03regENS0_4regsE>
    8000012c:	00050793          	mv	a5,a0
    80000130:	fcf43c23          	sd	a5,-40(s0)
    80000134:	fd843783          	ld	a5,-40(s0)
    80000138:	0007c783          	lbu	a5,0(a5)
    8000013c:	0017f793          	andi	a5,a5,1
    80000140:	0ff7f793          	andi	a5,a5,255
    80000144:	02078863          	beqz	a5,80000174 <_Z24externalInterruptHandlerv+0xa0>
            char c=mmio<volatile uint8_t>(reg(RHR));
    80000148:	00000513          	li	a0,0
    8000014c:	7a8000ef          	jal	ra,800008f4 <_ZN8platform5uart03regENS0_4regsE>
    80000150:	00050793          	mv	a5,a0
    80000154:	fcf43823          	sd	a5,-48(s0)
    80000158:	fd043783          	ld	a5,-48(s0)
    8000015c:	0007c783          	lbu	a5,0(a5)
    80000160:	fef403a3          	sb	a5,-25(s0)
            // printf("%c",c);
            cnt++;
    80000164:	fec42783          	lw	a5,-20(s0)
    80000168:	0017879b          	addiw	a5,a5,1
    8000016c:	fef42623          	sw	a5,-20(s0)
        while(mmio<volatile lsr>(reg(LSR)).rxnemp){
    80000170:	fb5ff06f          	j	80000124 <_Z24externalInterruptHandlerv+0x50>
        }
        // for(char c;mmio<volatile lsr>(reg(LSR)).txidle && (c=IO::next())>0;)mmio<volatile uint8_t>(reg(THR))=c;
        if(cnt)printf("&%d|%d^",cnt,levelcnt);
    80000174:	fec42783          	lw	a5,-20(s0)
    80000178:	0007879b          	sext.w	a5,a5
    8000017c:	02078463          	beqz	a5,800001a4 <_Z24externalInterruptHandlerv+0xd0>
    80000180:	00004797          	auipc	a5,0x4
    80000184:	01078793          	addi	a5,a5,16 # 80004190 <_ZZ24externalInterruptHandlervE8levelcnt>
    80000188:	0007a703          	lw	a4,0(a5)
    8000018c:	fec42783          	lw	a5,-20(s0)
    80000190:	00070613          	mv	a2,a4
    80000194:	00078593          	mv	a1,a5
    80000198:	00001517          	auipc	a0,0x1
    8000019c:	66850513          	addi	a0,a0,1640 # 80001800 <memcmp+0xd4>
    800001a0:	7e5000ef          	jal	ra,80001184 <printf>
    }
    plicComplete(irq);
    800001a4:	fe842783          	lw	a5,-24(s0)
    800001a8:	00078513          	mv	a0,a5
    800001ac:	ed1ff0ef          	jal	ra,8000007c <_Z12plicCompletei>
    levelcnt--;
    800001b0:	00004797          	auipc	a5,0x4
    800001b4:	fe078793          	addi	a5,a5,-32 # 80004190 <_ZZ24externalInterruptHandlervE8levelcnt>
    800001b8:	0007a783          	lw	a5,0(a5)
    800001bc:	fff7879b          	addiw	a5,a5,-1
    800001c0:	0007871b          	sext.w	a4,a5
    800001c4:	00004797          	auipc	a5,0x4
    800001c8:	fcc78793          	addi	a5,a5,-52 # 80004190 <_ZZ24externalInterruptHandlervE8levelcnt>
    800001cc:	00e7a023          	sw	a4,0(a5)
}
    800001d0:	00000013          	nop
    800001d4:	02813083          	ld	ra,40(sp)
    800001d8:	02013403          	ld	s0,32(sp)
    800001dc:	03010113          	addi	sp,sp,48
    800001e0:	00008067          	ret

00000000800001e4 <_ZL21timerInterruptHandlerv>:
static void timerInterruptHandler(){
    800001e4:	fe010113          	addi	sp,sp,-32
    800001e8:	00113c23          	sd	ra,24(sp)
    800001ec:	00813823          	sd	s0,16(sp)
    800001f0:	02010413          	addi	s0,sp,32
    int hart=csr::hart();
    800001f4:	6d8000ef          	jal	ra,800008cc <_ZN3csr4hartEv>
    800001f8:	00050793          	mv	a5,a0
    800001fc:	fef42623          	sw	a5,-20(s0)
    static int cnt=0;
    xlen_t time;csrRead(time,time);
    80000200:	c01027f3          	rdtime	a5
    80000204:	fef43023          	sd	a5,-32(s0)
    printf("timer Interrupt[%d]::%ld\n",cnt++,time);
    80000208:	00004797          	auipc	a5,0x4
    8000020c:	f8c78793          	addi	a5,a5,-116 # 80004194 <_ZZL21timerInterruptHandlervE3cnt>
    80000210:	0007a783          	lw	a5,0(a5)
    80000214:	0017871b          	addiw	a4,a5,1
    80000218:	0007069b          	sext.w	a3,a4
    8000021c:	00004717          	auipc	a4,0x4
    80000220:	f7870713          	addi	a4,a4,-136 # 80004194 <_ZZL21timerInterruptHandlervE3cnt>
    80000224:	00d72023          	sw	a3,0(a4)
    80000228:	fe043603          	ld	a2,-32(s0)
    8000022c:	00078593          	mv	a1,a5
    80000230:	00001517          	auipc	a0,0x1
    80000234:	5d850513          	addi	a0,a0,1496 # 80001808 <memcmp+0xdc>
    80000238:	74d000ef          	jal	ra,80001184 <printf>
    csrSet(mip,BIT(csr::mip::stip));
    8000023c:	02000793          	li	a5,32
    80000240:	3447a073          	csrs	mip,a5
    csrClear(mie,BIT(csr::mie::mtie));
    80000244:	08000793          	li	a5,128
    80000248:	3047b073          	csrc	mie,a5
}
    8000024c:	00000013          	nop
    80000250:	01813083          	ld	ra,24(sp)
    80000254:	01013403          	ld	s0,16(sp)
    80000258:	02010113          	addi	sp,sp,32
    8000025c:	00008067          	ret

0000000080000260 <_ZL13secallHandlerv>:
static void secallHandler(){
    80000260:	fe010113          	addi	sp,sp,-32
    80000264:	00113c23          	sd	ra,24(sp)
    80000268:	00813823          	sd	s0,16(sp)
    8000026c:	02010413          	addi	s0,sp,32
    register int ecallId asm("a7");
    xlen_t &rtval=gpr[9];
    80000270:	00004797          	auipc	a5,0x4
    80000274:	e7878793          	addi	a5,a5,-392 # 800040e8 <_ZL3gpr+0x48>
    80000278:	fef43423          	sd	a5,-24(s0)
    printf("secall [%d]\n",ecallId);
    8000027c:	0008879b          	sext.w	a5,a7
    80000280:	00078593          	mv	a1,a5
    80000284:	00001517          	auipc	a0,0x1
    80000288:	5a450513          	addi	a0,a0,1444 # 80001828 <memcmp+0xfc>
    8000028c:	6f9000ef          	jal	ra,80001184 <printf>
    switch(ecallId){
    80000290:	0008879b          	sext.w	a5,a7
    80000294:	00078693          	mv	a3,a5
    80000298:	00300713          	li	a4,3
    8000029c:	04e68c63          	beq	a3,a4,800002f4 <_ZL13secallHandlerv+0x94>
    800002a0:	00078693          	mv	a3,a5
    800002a4:	00300713          	li	a4,3
    800002a8:	06d74463          	blt	a4,a3,80000310 <_ZL13secallHandlerv+0xb0>
    800002ac:	00078693          	mv	a3,a5
    800002b0:	00100713          	li	a4,1
    800002b4:	00e68a63          	beq	a3,a4,800002c8 <_ZL13secallHandlerv+0x68>
    800002b8:	00078713          	mv	a4,a5
    800002bc:	00200793          	li	a5,2
    800002c0:	00f70c63          	beq	a4,a5,800002d8 <_ZL13secallHandlerv+0x78>
    800002c4:	04c0006f          	j	80000310 <_ZL13secallHandlerv+0xb0>
    using namespace sbi;
        case hart: csrRead(mhartid,rtval);break;
    800002c8:	f1402773          	csrr	a4,mhartid
    800002cc:	fe843783          	ld	a5,-24(s0)
    800002d0:	00e7b023          	sd	a4,0(a5)
    800002d4:	04c0006f          	j	80000320 <_ZL13secallHandlerv+0xc0>
        case xtie: csrSet(mie,BIT(csr::mie::mtie));csrClear(mip,BIT(csr::mip::stip));rtval=0;break;
    800002d8:	08000793          	li	a5,128
    800002dc:	3047a073          	csrs	mie,a5
    800002e0:	02000793          	li	a5,32
    800002e4:	3447b073          	csrc	mip,a5
    800002e8:	fe843783          	ld	a5,-24(s0)
    800002ec:	0007b023          	sd	zero,0(a5)
    800002f0:	0300006f          	j	80000320 <_ZL13secallHandlerv+0xc0>
        case xsie: csrSet(mie,BIT(csr::mie::msie));csrClear(mip,BIT(csr::mip::ssip));rtval=0;break;
    800002f4:	00800793          	li	a5,8
    800002f8:	3047a073          	csrs	mie,a5
    800002fc:	00200793          	li	a5,2
    80000300:	3447b073          	csrc	mip,a5
    80000304:	fe843783          	ld	a5,-24(s0)
    80000308:	0007b023          	sd	zero,0(a5)
    8000030c:	0140006f          	j	80000320 <_ZL13secallHandlerv+0xc0>
        default: rtval=1;
    80000310:	fe843783          	ld	a5,-24(s0)
    80000314:	00100713          	li	a4,1
    80000318:	00e7b023          	sd	a4,0(a5)
    }
}
    8000031c:	00000013          	nop
    80000320:	00000013          	nop
    80000324:	01813083          	ld	ra,24(sp)
    80000328:	01013403          	ld	s0,16(sp)
    8000032c:	02010113          	addi	sp,sp,32
    80000330:	00008067          	ret

0000000080000334 <mtraphandler>:
// extern "C" __attribute__((interrupt("machine"))) void mtraphandler(){
extern "C" void mtraphandler(){
    80000334:	fd010113          	addi	sp,sp,-48
    80000338:	02113423          	sd	ra,40(sp)
    8000033c:	02813023          	sd	s0,32(sp)
    80000340:	03010413          	addi	s0,sp,48
    ptr_t mepc; csrRead(mepc,mepc);
    80000344:	341027f3          	csrr	a5,mepc
    80000348:	fef43423          	sd	a5,-24(s0)
    xlen_t mcause; csrRead(mcause,mcause);
    8000034c:	342027f3          	csrr	a5,mcause
    80000350:	fef43023          	sd	a5,-32(s0)
    xlen_t mtval; csrRead(mtval,mtval);
    80000354:	343027f3          	csrr	a5,mtval
    80000358:	fcf43c23          	sd	a5,-40(s0)
    // csr::currentMode();
    // printf("mtraphandler cause=[%d]%d mepc=%lx\n",isInterrupt(mcause),mcause<<1>>1,mepc);

    if(csr::mcause::isInterrupt(mcause)){
    8000035c:	fe043503          	ld	a0,-32(s0)
    80000360:	540000ef          	jal	ra,800008a0 <_ZN3csr6mcause11isInterruptEm>
    80000364:	00050793          	mv	a5,a0
    80000368:	04078263          	beqz	a5,800003ac <mtraphandler+0x78>
        switch(mcause<<1>>1){
    8000036c:	fe043703          	ld	a4,-32(s0)
    80000370:	fff00793          	li	a5,-1
    80000374:	0017d793          	srli	a5,a5,0x1
    80000378:	00f777b3          	and	a5,a4,a5
    8000037c:	00700713          	li	a4,7
    80000380:	00e78863          	beq	a5,a4,80000390 <mtraphandler+0x5c>
    80000384:	00b00713          	li	a4,11
    80000388:	00e78863          	beq	a5,a4,80000398 <mtraphandler+0x64>
    8000038c:	0140006f          	j	800003a0 <mtraphandler+0x6c>
            // case msi: break;

            // case uti: break;
            // case sti: break;
            // case hti: break;
            case mti: timerInterruptHandler();break;
    80000390:	e55ff0ef          	jal	ra,800001e4 <_ZL21timerInterruptHandlerv>
    80000394:	07c0006f          	j	80000410 <mtraphandler+0xdc>

            // case uei: break;
            // case sei: break;
            // case hei: break;
            case mei: externalInterruptHandler();break;
    80000398:	d3dff0ef          	jal	ra,800000d4 <_Z24externalInterruptHandlerv>
    8000039c:	0740006f          	j	80000410 <mtraphandler+0xdc>
            default:
                halt();
    800003a0:	00000513          	li	a0,0
    800003a4:	691000ef          	jal	ra,80001234 <halt>
                csrWrite(mepc,mepc+4);
                // halt();
        }
    }
    // printf("mtraphandler over\n");
}
    800003a8:	0680006f          	j	80000410 <mtraphandler+0xdc>
        switch(mcause){
    800003ac:	fe043703          	ld	a4,-32(s0)
    800003b0:	00700793          	li	a5,7
    800003b4:	02f70263          	beq	a4,a5,800003d8 <mtraphandler+0xa4>
    800003b8:	fe043703          	ld	a4,-32(s0)
    800003bc:	00900793          	li	a5,9
    800003c0:	02f71463          	bne	a4,a5,800003e8 <mtraphandler+0xb4>
            case secall:secallHandler();csrWrite(mepc,mepc+4);break;
    800003c4:	e9dff0ef          	jal	ra,80000260 <_ZL13secallHandlerv>
    800003c8:	fe843783          	ld	a5,-24(s0)
    800003cc:	00478793          	addi	a5,a5,4
    800003d0:	34179073          	csrw	mepc,a5
    800003d4:	03c0006f          	j	80000410 <mtraphandler+0xdc>
            case storeAccessFault:csrWrite(mepc,mepc+4);break;
    800003d8:	fe843783          	ld	a5,-24(s0)
    800003dc:	00478793          	addi	a5,a5,4
    800003e0:	34179073          	csrw	mepc,a5
    800003e4:	02c0006f          	j	80000410 <mtraphandler+0xdc>
                printf("exception%d %p %p\n",mcause,mepc,mtval);
    800003e8:	fd843683          	ld	a3,-40(s0)
    800003ec:	fe843603          	ld	a2,-24(s0)
    800003f0:	fe043583          	ld	a1,-32(s0)
    800003f4:	00001517          	auipc	a0,0x1
    800003f8:	44450513          	addi	a0,a0,1092 # 80001838 <memcmp+0x10c>
    800003fc:	589000ef          	jal	ra,80001184 <printf>
                csrWrite(mepc,mepc+4);
    80000400:	fe843783          	ld	a5,-24(s0)
    80000404:	00478793          	addi	a5,a5,4
    80000408:	34179073          	csrw	mepc,a5
}
    8000040c:	0040006f          	j	80000410 <mtraphandler+0xdc>
    80000410:	00000013          	nop
    80000414:	02813083          	ld	ra,40(sp)
    80000418:	02013403          	ld	s0,32(sp)
    8000041c:	03010113          	addi	sp,sp,48
    80000420:	00008067          	ret

0000000080000424 <mtrapwrapper>:
xlen_t mstack;
extern "C" __attribute__((naked)) void mtrapwrapper(){
    csrSwap(mscratch,t6);
    80000424:	340f9ff3          	csrrw	t6,mscratch,t6
    saveContext();
    80000428:	001fb023          	sd	ra,0(t6)
    8000042c:	002fb423          	sd	sp,8(t6)
    80000430:	003fb823          	sd	gp,16(t6)
    80000434:	004fbc23          	sd	tp,24(t6)
    80000438:	025fb023          	sd	t0,32(t6)
    8000043c:	026fb423          	sd	t1,40(t6)
    80000440:	027fb823          	sd	t2,48(t6)
    80000444:	028fbc23          	sd	s0,56(t6)
    80000448:	049fb023          	sd	s1,64(t6)
    8000044c:	04afb423          	sd	a0,72(t6)
    80000450:	04bfb823          	sd	a1,80(t6)
    80000454:	04cfbc23          	sd	a2,88(t6)
    80000458:	06dfb023          	sd	a3,96(t6)
    8000045c:	06efb423          	sd	a4,104(t6)
    80000460:	06ffb823          	sd	a5,112(t6)
    80000464:	070fbc23          	sd	a6,120(t6)
    80000468:	091fb023          	sd	a7,128(t6)
    8000046c:	092fb423          	sd	s2,136(t6)
    80000470:	093fb823          	sd	s3,144(t6)
    80000474:	094fbc23          	sd	s4,152(t6)
    80000478:	0b5fb023          	sd	s5,160(t6)
    8000047c:	0b6fb423          	sd	s6,168(t6)
    80000480:	0b7fb823          	sd	s7,176(t6)
    80000484:	0b8fbc23          	sd	s8,184(t6)
    80000488:	0d9fb023          	sd	s9,192(t6)
    8000048c:	0dafb423          	sd	s10,200(t6)
    80000490:	0dbfb823          	sd	s11,208(t6)
    80000494:	0dcfbc23          	sd	t3,216(t6)
    80000498:	0fdfb023          	sd	t4,224(t6)
    8000049c:	0fefb423          	sd	t5,232(t6)
    register xlen_t sp asm("sp")=mstack;
    800004a0:	00004797          	auipc	a5,0x4
    800004a4:	b6078793          	addi	a5,a5,-1184 # 80004000 <mstack>
    800004a8:	0007b783          	ld	a5,0(a5)
    800004ac:	00078113          	mv	sp,a5
    mtraphandler();
    800004b0:	e85ff0ef          	jal	ra,80000334 <mtraphandler>
    restoreContext();
    800004b4:	000fb083          	ld	ra,0(t6)
    800004b8:	008fb103          	ld	sp,8(t6)
    800004bc:	010fb183          	ld	gp,16(t6)
    800004c0:	018fb203          	ld	tp,24(t6)
    800004c4:	020fb283          	ld	t0,32(t6)
    800004c8:	028fb303          	ld	t1,40(t6)
    800004cc:	030fb383          	ld	t2,48(t6)
    800004d0:	038fb403          	ld	s0,56(t6)
    800004d4:	040fb483          	ld	s1,64(t6)
    800004d8:	048fb503          	ld	a0,72(t6)
    800004dc:	050fb583          	ld	a1,80(t6)
    800004e0:	058fb603          	ld	a2,88(t6)
    800004e4:	060fb683          	ld	a3,96(t6)
    800004e8:	068fb703          	ld	a4,104(t6)
    800004ec:	070fb783          	ld	a5,112(t6)
    800004f0:	078fb803          	ld	a6,120(t6)
    800004f4:	080fb883          	ld	a7,128(t6)
    800004f8:	088fb903          	ld	s2,136(t6)
    800004fc:	090fb983          	ld	s3,144(t6)
    80000500:	098fba03          	ld	s4,152(t6)
    80000504:	0a0fba83          	ld	s5,160(t6)
    80000508:	0a8fbb03          	ld	s6,168(t6)
    8000050c:	0b0fbb83          	ld	s7,176(t6)
    80000510:	0b8fbc03          	ld	s8,184(t6)
    80000514:	0c0fbc83          	ld	s9,192(t6)
    80000518:	0c8fbd03          	ld	s10,200(t6)
    8000051c:	0d0fbd83          	ld	s11,208(t6)
    80000520:	0d8fbe03          	ld	t3,216(t6)
    80000524:	0e0fbe83          	ld	t4,224(t6)
    80000528:	0e8fbf03          	ld	t5,232(t6)
    csrSwap(mscratch,t6);
    8000052c:	340f9ff3          	csrrw	t6,mscratch,t6
    ExecInst(mret);
    80000530:	30200073          	mret
}
    80000534:	00000013          	nop

0000000080000538 <_Z11uartIntTestv>:
void uartIntTest(){
    80000538:	fe010113          	addi	sp,sp,-32
    8000053c:	00113c23          	sd	ra,24(sp)
    80000540:	00813823          	sd	s0,16(sp)
    80000544:	02010413          	addi	s0,sp,32
    using namespace platform::uart0::nonblocking;
    for(int i=1024;i;i--)putc('_');
    80000548:	40000793          	li	a5,1024
    8000054c:	fef42623          	sw	a5,-20(s0)
    80000550:	fec42783          	lw	a5,-20(s0)
    80000554:	0007879b          	sext.w	a5,a5
    80000558:	00078e63          	beqz	a5,80000574 <_Z11uartIntTestv+0x3c>
    8000055c:	05f00513          	li	a0,95
    80000560:	444000ef          	jal	ra,800009a4 <_ZN8platform5uart011nonblocking4putcEc>
    80000564:	fec42783          	lw	a5,-20(s0)
    80000568:	fff7879b          	addiw	a5,a5,-1
    8000056c:	fef42623          	sw	a5,-20(s0)
    80000570:	fe1ff06f          	j	80000550 <_Z11uartIntTestv+0x18>
    // 0123456789abcdefg0123456789abcdefg0123456789abcdefg0123456789abcdefg0123456789abcdefg0123456789abcdefg0123456789abcdefg0123456789abcdefg
}
    80000574:	00000013          	nop
    80000578:	01813083          	ld	ra,24(sp)
    8000057c:	01013403          	ld	s0,16(sp)
    80000580:	02010113          	addi	sp,sp,32
    80000584:	00008067          	ret

0000000080000588 <_Z8uartInitv>:
void uartInit(){
    80000588:	fb010113          	addi	sp,sp,-80
    8000058c:	04113423          	sd	ra,72(sp)
    80000590:	04813023          	sd	s0,64(sp)
    80000594:	05010413          	addi	s0,sp,80
    using namespace platform::uart0;
    auto &ier=mmio<volatile uint8_t>(reg(IER));
    80000598:	00100513          	li	a0,1
    8000059c:	358000ef          	jal	ra,800008f4 <_ZN8platform5uart03regENS0_4regsE>
    800005a0:	00050793          	mv	a5,a0
    800005a4:	faf43c23          	sd	a5,-72(s0)
    800005a8:	fb843783          	ld	a5,-72(s0)
    800005ac:	fef43423          	sd	a5,-24(s0)
    ier=0x00;
    800005b0:	fe843783          	ld	a5,-24(s0)
    800005b4:	00078023          	sb	zero,0(a5)
    puts("Hello Uart\n");
    800005b8:	00004797          	auipc	a5,0x4
    800005bc:	a5078793          	addi	a5,a5,-1456 # 80004008 <puts>
    800005c0:	0007b783          	ld	a5,0(a5)
    800005c4:	00001517          	auipc	a0,0x1
    800005c8:	28c50513          	addi	a0,a0,652 # 80001850 <memcmp+0x124>
    800005cc:	000780e7          	jalr	a5
    auto &lcr=mmio<volatile uint8_t>(reg(LCR));
    800005d0:	00300513          	li	a0,3
    800005d4:	320000ef          	jal	ra,800008f4 <_ZN8platform5uart03regENS0_4regsE>
    800005d8:	00050793          	mv	a5,a0
    800005dc:	fcf43023          	sd	a5,-64(s0)
    800005e0:	fc043783          	ld	a5,-64(s0)
    800005e4:	fef43023          	sd	a5,-32(s0)
    lcr=lcr|(1<<7);
    800005e8:	fe043783          	ld	a5,-32(s0)
    800005ec:	0007c783          	lbu	a5,0(a5)
    800005f0:	0ff7f793          	andi	a5,a5,255
    800005f4:	f807e793          	ori	a5,a5,-128
    800005f8:	0ff7f713          	andi	a4,a5,255
    800005fc:	fe043783          	ld	a5,-32(s0)
    80000600:	00e78023          	sb	a4,0(a5)
    mmio<volatile uint8_t>(reg(DLL))=0x03;
    80000604:	00000513          	li	a0,0
    80000608:	2ec000ef          	jal	ra,800008f4 <_ZN8platform5uart03regENS0_4regsE>
    8000060c:	00050793          	mv	a5,a0
    80000610:	fcf43423          	sd	a5,-56(s0)
    80000614:	fc843783          	ld	a5,-56(s0)
    80000618:	00300713          	li	a4,3
    8000061c:	00e78023          	sb	a4,0(a5)
    mmio<volatile uint8_t>(reg(DLM))=0x00;
    80000620:	00100513          	li	a0,1
    80000624:	2d0000ef          	jal	ra,800008f4 <_ZN8platform5uart03regENS0_4regsE>
    80000628:	00050793          	mv	a5,a0
    8000062c:	fcf43823          	sd	a5,-48(s0)
    80000630:	fd043783          	ld	a5,-48(s0)
    80000634:	00078023          	sb	zero,0(a5)
    lcr=3;
    80000638:	fe043783          	ld	a5,-32(s0)
    8000063c:	00300713          	li	a4,3
    80000640:	00e78023          	sb	a4,0(a5)
    mmio<volatile uint8_t>(reg(FCR))=0x7|(0x3<<6);
    80000644:	00200513          	li	a0,2
    80000648:	2ac000ef          	jal	ra,800008f4 <_ZN8platform5uart03regENS0_4regsE>
    8000064c:	00050793          	mv	a5,a0
    80000650:	fcf43c23          	sd	a5,-40(s0)
    80000654:	fd843783          	ld	a5,-40(s0)
    80000658:	fc700713          	li	a4,-57
    8000065c:	00e78023          	sb	a4,0(a5)
    ier=0x01;
    80000660:	fe843783          	ld	a5,-24(s0)
    80000664:	00100713          	li	a4,1
    80000668:	00e78023          	sb	a4,0(a5)
    // puts=IO::_nonblockingputs;
}
    8000066c:	00000013          	nop
    80000670:	04813083          	ld	ra,72(sp)
    80000674:	04013403          	ld	s0,64(sp)
    80000678:	05010113          	addi	sp,sp,80
    8000067c:	00008067          	ret

0000000080000680 <_Z8plicInitv>:
void plicInit(){
    80000680:	fc010113          	addi	sp,sp,-64
    80000684:	02113c23          	sd	ra,56(sp)
    80000688:	02813823          	sd	s0,48(sp)
    8000068c:	04010413          	addi	s0,sp,64
    // int hart=csr::hart();
    using namespace platform::plic;
    int hart=csr::hart();
    80000690:	23c000ef          	jal	ra,800008cc <_ZN3csr4hartEv>
    80000694:	00050793          	mv	a5,a0
    80000698:	fef42623          	sw	a5,-20(s0)
    xlen_t addr=priorityOf(platform::uart0::irq);
    8000069c:	0c0007b7          	lui	a5,0xc000
    800006a0:	02878793          	addi	a5,a5,40 # c000028 <STACK_SIZE+0xbfffc28>
    800006a4:	fef43023          	sd	a5,-32(s0)
    800006a8:	fe043783          	ld	a5,-32(s0)
    800006ac:	fcf43423          	sd	a5,-56(s0)
    800006b0:	fc843783          	ld	a5,-56(s0)
    mmio<word_t>(addr)=1;
    800006b4:	00100713          	li	a4,1
    800006b8:	00e7a023          	sw	a4,0(a5)
    mmio<word_t>(enableOf(hart))=1<<platform::uart0::irq;
    800006bc:	fec42783          	lw	a5,-20(s0)
    800006c0:	00078513          	mv	a0,a5
    800006c4:	364000ef          	jal	ra,80000a28 <_ZN8platform4plic8enableOfEi>
    800006c8:	00050793          	mv	a5,a0
    800006cc:	fcf43823          	sd	a5,-48(s0)
    800006d0:	fd043783          	ld	a5,-48(s0)
    800006d4:	40000713          	li	a4,1024
    800006d8:	00e7a023          	sw	a4,0(a5)
    mmio<word_t>(thresholdOf(hart))=0;
    800006dc:	fec42783          	lw	a5,-20(s0)
    800006e0:	00078513          	mv	a0,a5
    800006e4:	380000ef          	jal	ra,80000a64 <_ZN8platform4plic11thresholdOfEi>
    800006e8:	00050793          	mv	a5,a0
    800006ec:	fcf43c23          	sd	a5,-40(s0)
    800006f0:	fd843783          	ld	a5,-40(s0)
    800006f4:	0007a023          	sw	zero,0(a5)
    uartInit();
    800006f8:	e91ff0ef          	jal	ra,80000588 <_Z8uartInitv>
}
    800006fc:	00000013          	nop
    80000700:	03813083          	ld	ra,56(sp)
    80000704:	03013403          	ld	s0,48(sp)
    80000708:	04010113          	addi	sp,sp,64
    8000070c:	00008067          	ret

0000000080000710 <_Z9timerInitv>:
void timerInit(){
    80000710:	fe010113          	addi	sp,sp,-32
    80000714:	00113c23          	sd	ra,24(sp)
    80000718:	00813823          	sd	s0,16(sp)
    8000071c:	02010413          	addi	s0,sp,32
    int hart=csr::hart();
    80000720:	1ac000ef          	jal	ra,800008cc <_ZN3csr4hartEv>
    80000724:	00050793          	mv	a5,a0
    80000728:	fef42623          	sw	a5,-20(s0)
    mmio<xlen_t>(platform::clint::mtimecmpOf(hart))=TIMER_INTERVAL;
    8000072c:	fec42783          	lw	a5,-20(s0)
    80000730:	00078513          	mv	a0,a5
    80000734:	3ac000ef          	jal	ra,80000ae0 <_ZN8platform5clint10mtimecmpOfEi>
    80000738:	00050793          	mv	a5,a0
    8000073c:	fef43023          	sd	a5,-32(s0)
    80000740:	fe043783          	ld	a5,-32(s0)
    80000744:	004c5737          	lui	a4,0x4c5
    80000748:	b4070713          	addi	a4,a4,-1216 # 4c4b40 <STACK_SIZE+0x4c4740>
    8000074c:	00e7b023          	sd	a4,0(a5)
    csrSet(mie,BIT(csr::mie::mtie));
    80000750:	08000793          	li	a5,128
    80000754:	3047a073          	csrs	mie,a5
}
    80000758:	00000013          	nop
    8000075c:	01813083          	ld	ra,24(sp)
    80000760:	01013403          	ld	s0,16(sp)
    80000764:	02010113          	addi	sp,sp,32
    80000768:	00008067          	ret

000000008000076c <_Z10mtrap_testv>:
void mtrap_test(){
    8000076c:	fe010113          	addi	sp,sp,-32
    80000770:	00113c23          	sd	ra,24(sp)
    80000774:	00813823          	sd	s0,16(sp)
    80000778:	02010413          	addi	s0,sp,32
    *(int *)0x00000000 = 100;
    8000077c:	00000713          	li	a4,0
    80000780:	06400793          	li	a5,100
    80000784:	00f72023          	sw	a5,0(a4)
    puts("mtrap test over");
    80000788:	00004797          	auipc	a5,0x4
    8000078c:	88078793          	addi	a5,a5,-1920 # 80004008 <puts>
    80000790:	0007b783          	ld	a5,0(a5)
    80000794:	00001517          	auipc	a0,0x1
    80000798:	0cc50513          	addi	a0,a0,204 # 80001860 <memcmp+0x134>
    8000079c:	000780e7          	jalr	a5
    for(int k=2;k;k--);
    800007a0:	00200793          	li	a5,2
    800007a4:	fef42623          	sw	a5,-20(s0)
    800007a8:	fec42783          	lw	a5,-20(s0)
    800007ac:	0007879b          	sext.w	a5,a5
    800007b0:	00078a63          	beqz	a5,800007c4 <_Z10mtrap_testv+0x58>
    800007b4:	fec42783          	lw	a5,-20(s0)
    800007b8:	fff7879b          	addiw	a5,a5,-1
    800007bc:	fef42623          	sw	a5,-20(s0)
    800007c0:	fe9ff06f          	j	800007a8 <_Z10mtrap_testv+0x3c>
    return;
    800007c4:	00000013          	nop
}
    800007c8:	01813083          	ld	ra,24(sp)
    800007cc:	01013403          	ld	s0,16(sp)
    800007d0:	02010113          	addi	sp,sp,32
    800007d4:	00008067          	ret

00000000800007d8 <sbi_init>:
extern "C" void sbi_init(){
    800007d8:	ff010113          	addi	sp,sp,-16
    800007dc:	00113423          	sd	ra,8(sp)
    800007e0:	00813023          	sd	s0,0(sp)
    800007e4:	01010413          	addi	s0,sp,16
// "csrw pmpaddr0, %1\n\t"
// "csrw pmpcfg0, %0\n\t"
// : : "r" (0xf), "r" (0x3fffffffffffffull) :);
    // csrWritei(mtvec,mtraphandler);
    register xlen_t sp asm("sp");
    mstack=sp;
    800007e8:	00010713          	mv	a4,sp
    800007ec:	00004797          	auipc	a5,0x4
    800007f0:	81478793          	addi	a5,a5,-2028 # 80004000 <mstack>
    800007f4:	00e7b023          	sd	a4,0(a5)
    puts=IO::_blockingputs;
    800007f8:	00004797          	auipc	a5,0x4
    800007fc:	81078793          	addi	a5,a5,-2032 # 80004008 <puts>
    80000800:	00000717          	auipc	a4,0x0
    80000804:	31c70713          	addi	a4,a4,796 # 80000b1c <_ZN2IO13_blockingputsEPKc>
    80000808:	00e7b023          	sd	a4,0(a5)
    plicInit();
    8000080c:	e75ff0ef          	jal	ra,80000680 <_Z8plicInitv>
    puts("plic init over\n");
    80000810:	00003797          	auipc	a5,0x3
    80000814:	7f878793          	addi	a5,a5,2040 # 80004008 <puts>
    80000818:	0007b783          	ld	a5,0(a5)
    8000081c:	00001517          	auipc	a0,0x1
    80000820:	05450513          	addi	a0,a0,84 # 80001870 <memcmp+0x144>
    80000824:	000780e7          	jalr	a5

    csrWrite(mscratch,gpr);
    80000828:	00004797          	auipc	a5,0x4
    8000082c:	87878793          	addi	a5,a5,-1928 # 800040a0 <_ZL3gpr>
    80000830:	34079073          	csrw	mscratch,a5
    {asm volatile ("csrw ""mtvec"", %0" :: "r"(mtrapwrapper));}
    80000834:	00000797          	auipc	a5,0x0
    80000838:	bf078793          	addi	a5,a5,-1040 # 80000424 <mtrapwrapper>
    8000083c:	30579073          	csrw	mtvec,a5
    csrSet(mie,BIT(csr::mie::meie));
    80000840:	000017b7          	lui	a5,0x1
    80000844:	80078793          	addi	a5,a5,-2048 # 800 <STACK_SIZE+0x400>
    80000848:	3047a073          	csrs	mie,a5
    // csrSet(mstatus,BIT(csr::mstatus::mie));
    // mtrap_test();
    uartIntTest();
    8000084c:	cedff0ef          	jal	ra,80000538 <_Z11uartIntTestv>

    // timerInit();
    csrSet(mideleg,BIT(csr::mie::stie)|BIT(csr::mie::ssie));
    80000850:	02200793          	li	a5,34
    80000854:	3037a073          	csrs	mideleg,a5
    csrSet(medeleg,BIT(csr::mcause::uecall));
    80000858:	10000793          	li	a5,256
    8000085c:	3027a073          	csrs	medeleg,a5
    csrSet(mie,BIT(csr::mie::mtie));
    80000860:	08000793          	li	a5,128
    80000864:	3047a073          	csrs	mie,a5
    csrSet(mstatus,1l<<csr::mstatus::mpp);
    80000868:	000017b7          	lui	a5,0x1
    8000086c:	80078793          	addi	a5,a5,-2048 # 800 <STACK_SIZE+0x400>
    80000870:	3007a073          	csrs	mstatus,a5
    csrWrite(mepc,0x80200000l);
    80000874:	40100793          	li	a5,1025
    80000878:	01579793          	slli	a5,a5,0x15
    8000087c:	34179073          	csrw	mepc,a5
    csrSet(mstatus,BIT(csr::mstatus::mpie));
    80000880:	08000793          	li	a5,128
    80000884:	3007a073          	csrs	mstatus,a5
    ExecInst(mret);
    80000888:	30200073          	mret
    8000088c:	00000013          	nop
    80000890:	00813083          	ld	ra,8(sp)
    80000894:	00013403          	ld	s0,0(sp)
    80000898:	01010113          	addi	sp,sp,16
    8000089c:	00008067          	ret

00000000800008a0 <_ZN3csr6mcause11isInterruptEm>:
            breakpoint=3,
            storeAccessFault=7,
            uecall=8,
            secall=9,
        };
        constexpr bool isInterrupt(xlen_t mcause){return (mcause>>63)&1;}
    800008a0:	fe010113          	addi	sp,sp,-32
    800008a4:	00813c23          	sd	s0,24(sp)
    800008a8:	02010413          	addi	s0,sp,32
    800008ac:	fea43423          	sd	a0,-24(s0)
    800008b0:	fe843783          	ld	a5,-24(s0)
    800008b4:	03f7d793          	srli	a5,a5,0x3f
    800008b8:	0ff7f793          	andi	a5,a5,255
    800008bc:	00078513          	mv	a0,a5
    800008c0:	01813403          	ld	s0,24(sp)
    800008c4:	02010113          	addi	sp,sp,32
    800008c8:	00008067          	ret

00000000800008cc <_ZN3csr4hartEv>:
        xlen_t mode:4;
        inline xlen_t value(){
            return *reinterpret_cast<xlen_t*>(this);
        }
    };
    inline int hart(){
    800008cc:	fe010113          	addi	sp,sp,-32
    800008d0:	00813c23          	sd	s0,24(sp)
    800008d4:	02010413          	addi	s0,sp,32
        int rt; csrRead(mhartid,rt);
    800008d8:	f14027f3          	csrr	a5,mhartid
    800008dc:	fef42623          	sw	a5,-20(s0)
        return rt;
    800008e0:	fec42783          	lw	a5,-20(s0)
    }
    800008e4:	00078513          	mv	a0,a5
    800008e8:	01813403          	ld	s0,24(sp)
    800008ec:	02010113          	addi	sp,sp,32
    800008f0:	00008067          	ret

00000000800008f4 <_ZN8platform5uart03regENS0_4regsE>:
            MCR=4,	// Modem Control Register
            LSR=5,	// Line Status Register
            MSR=6,	// Modem Status Register
            SPR=7,	// ScratchPad Register
        };
        constexpr xlen_t reg(regs r){return base+r;}
    800008f4:	fe010113          	addi	sp,sp,-32
    800008f8:	00813c23          	sd	s0,24(sp)
    800008fc:	02010413          	addi	s0,sp,32
    80000900:	00050793          	mv	a5,a0
    80000904:	fef42623          	sw	a5,-20(s0)
    80000908:	fec42783          	lw	a5,-20(s0)
    8000090c:	00078713          	mv	a4,a5
    80000910:	100007b7          	lui	a5,0x10000
    80000914:	00f707b3          	add	a5,a4,a5
    80000918:	00078513          	mv	a0,a5
    8000091c:	01813403          	ld	s0,24(sp)
    80000920:	02010113          	addi	sp,sp,32
    80000924:	00008067          	ret

0000000080000928 <_ZN8platform5uart08blocking4putcEc>:
            uint8_t txidle:1;
            uint8_t unused1:2;
        };
        namespace blocking
        {    
            inline void putc(char c) {
    80000928:	fd010113          	addi	sp,sp,-48
    8000092c:	02113423          	sd	ra,40(sp)
    80000930:	02813023          	sd	s0,32(sp)
    80000934:	03010413          	addi	s0,sp,48
    80000938:	00050793          	mv	a5,a0
    8000093c:	fcf40fa3          	sb	a5,-33(s0)
                while(!mmio<lsr>(reg(LSR)).txidle);
    80000940:	00500513          	li	a0,5
    80000944:	fb1ff0ef          	jal	ra,800008f4 <_ZN8platform5uart03regENS0_4regsE>
    80000948:	00050793          	mv	a5,a0
    8000094c:	fef43423          	sd	a5,-24(s0)
    return reinterpret_cast<T&>(*reinterpret_cast<T*>(addr));
    80000950:	fe843783          	ld	a5,-24(s0)
                while(!mmio<lsr>(reg(LSR)).txidle);
    80000954:	0007c783          	lbu	a5,0(a5) # 10000000 <STACK_SIZE+0xffffc00>
    80000958:	0207f793          	andi	a5,a5,32
    8000095c:	0ff7f793          	andi	a5,a5,255
    80000960:	0007879b          	sext.w	a5,a5
    80000964:	0017b793          	seqz	a5,a5
    80000968:	0ff7f793          	andi	a5,a5,255
    8000096c:	00078463          	beqz	a5,80000974 <_ZN8platform5uart08blocking4putcEc+0x4c>
    80000970:	fd1ff06f          	j	80000940 <_ZN8platform5uart08blocking4putcEc+0x18>
                mmio<char>(reg(THR))=c;
    80000974:	00000513          	li	a0,0
    80000978:	f7dff0ef          	jal	ra,800008f4 <_ZN8platform5uart03regENS0_4regsE>
    8000097c:	00050793          	mv	a5,a0
    80000980:	fef43023          	sd	a5,-32(s0)
    return reinterpret_cast<T&>(*reinterpret_cast<T*>(addr));
    80000984:	fe043783          	ld	a5,-32(s0)
                mmio<char>(reg(THR))=c;
    80000988:	fdf44703          	lbu	a4,-33(s0)
    8000098c:	00e78023          	sb	a4,0(a5)
            }
    80000990:	00000013          	nop
    80000994:	02813083          	ld	ra,40(sp)
    80000998:	02013403          	ld	s0,32(sp)
    8000099c:	03010113          	addi	sp,sp,48
    800009a0:	00008067          	ret

00000000800009a4 <_ZN8platform5uart011nonblocking4putcEc>:
                return mmio<char>(reg(RHR));
            }
        } // namespace blocking
        namespace nonblocking
        {
            inline bool putc(char c){
    800009a4:	fd010113          	addi	sp,sp,-48
    800009a8:	02113423          	sd	ra,40(sp)
    800009ac:	02813023          	sd	s0,32(sp)
    800009b0:	03010413          	addi	s0,sp,48
    800009b4:	00050793          	mv	a5,a0
    800009b8:	fcf40fa3          	sb	a5,-33(s0)
                if(!mmio<lsr>(reg(LSR)).txidle)return false;
    800009bc:	00500513          	li	a0,5
    800009c0:	f35ff0ef          	jal	ra,800008f4 <_ZN8platform5uart03regENS0_4regsE>
    800009c4:	00050793          	mv	a5,a0
    800009c8:	fef43423          	sd	a5,-24(s0)
    return reinterpret_cast<T&>(*reinterpret_cast<T*>(addr));
    800009cc:	fe843783          	ld	a5,-24(s0)
                if(!mmio<lsr>(reg(LSR)).txidle)return false;
    800009d0:	0007c783          	lbu	a5,0(a5)
    800009d4:	0207f793          	andi	a5,a5,32
    800009d8:	0ff7f793          	andi	a5,a5,255
    800009dc:	0007879b          	sext.w	a5,a5
    800009e0:	0017b793          	seqz	a5,a5
    800009e4:	0ff7f793          	andi	a5,a5,255
    800009e8:	00078663          	beqz	a5,800009f4 <_ZN8platform5uart011nonblocking4putcEc+0x50>
    800009ec:	00000793          	li	a5,0
    800009f0:	0240006f          	j	80000a14 <_ZN8platform5uart011nonblocking4putcEc+0x70>
                mmio<char>(reg(THR))=c;
    800009f4:	00000513          	li	a0,0
    800009f8:	efdff0ef          	jal	ra,800008f4 <_ZN8platform5uart03regENS0_4regsE>
    800009fc:	00050793          	mv	a5,a0
    80000a00:	fef43023          	sd	a5,-32(s0)
    return reinterpret_cast<T&>(*reinterpret_cast<T*>(addr));
    80000a04:	fe043783          	ld	a5,-32(s0)
                mmio<char>(reg(THR))=c;
    80000a08:	fdf44703          	lbu	a4,-33(s0)
    80000a0c:	00e78023          	sb	a4,0(a5)
                return true;
    80000a10:	00100793          	li	a5,1
            }
    80000a14:	00078513          	mv	a0,a5
    80000a18:	02813083          	ld	ra,40(sp)
    80000a1c:	02013403          	ld	s0,32(sp)
    80000a20:	03010113          	addi	sp,sp,48
    80000a24:	00008067          	ret

0000000080000a28 <_ZN8platform4plic8enableOfEi>:
            pending=base+0x1000,
            enable=base+0x2000,
            threshold=base+0x200000,
            claim=base+0x200004;
        constexpr xlen_t priorityOf(int id) {return priority+id*4;}
        constexpr xlen_t enableOf(int hart) { return enable+hart*0x80; }
    80000a28:	fe010113          	addi	sp,sp,-32
    80000a2c:	00813c23          	sd	s0,24(sp)
    80000a30:	02010413          	addi	s0,sp,32
    80000a34:	00050793          	mv	a5,a0
    80000a38:	fef42623          	sw	a5,-20(s0)
    80000a3c:	fec42783          	lw	a5,-20(s0)
    80000a40:	0077979b          	slliw	a5,a5,0x7
    80000a44:	0007879b          	sext.w	a5,a5
    80000a48:	00078713          	mv	a4,a5
    80000a4c:	0c0027b7          	lui	a5,0xc002
    80000a50:	00f707b3          	add	a5,a4,a5
    80000a54:	00078513          	mv	a0,a5
    80000a58:	01813403          	ld	s0,24(sp)
    80000a5c:	02010113          	addi	sp,sp,32
    80000a60:	00008067          	ret

0000000080000a64 <_ZN8platform4plic11thresholdOfEi>:
        constexpr xlen_t thresholdOf(int hart) { return threshold+hart*0x1000; }
    80000a64:	fe010113          	addi	sp,sp,-32
    80000a68:	00813c23          	sd	s0,24(sp)
    80000a6c:	02010413          	addi	s0,sp,32
    80000a70:	00050793          	mv	a5,a0
    80000a74:	fef42623          	sw	a5,-20(s0)
    80000a78:	fec42783          	lw	a5,-20(s0)
    80000a7c:	00c7979b          	slliw	a5,a5,0xc
    80000a80:	0007879b          	sext.w	a5,a5
    80000a84:	00078713          	mv	a4,a5
    80000a88:	0c2007b7          	lui	a5,0xc200
    80000a8c:	00f707b3          	add	a5,a4,a5
    80000a90:	00078513          	mv	a0,a5
    80000a94:	01813403          	ld	s0,24(sp)
    80000a98:	02010113          	addi	sp,sp,32
    80000a9c:	00008067          	ret

0000000080000aa0 <_ZN8platform4plic7claimOfEi>:
        constexpr xlen_t claimOf(int hart) { return claim+hart*0x1000; }
    80000aa0:	fe010113          	addi	sp,sp,-32
    80000aa4:	00813c23          	sd	s0,24(sp)
    80000aa8:	02010413          	addi	s0,sp,32
    80000aac:	00050793          	mv	a5,a0
    80000ab0:	fef42623          	sw	a5,-20(s0)
    80000ab4:	fec42783          	lw	a5,-20(s0)
    80000ab8:	00c7979b          	slliw	a5,a5,0xc
    80000abc:	0007879b          	sext.w	a5,a5
    80000ac0:	00078713          	mv	a4,a5
    80000ac4:	0c2007b7          	lui	a5,0xc200
    80000ac8:	00478793          	addi	a5,a5,4 # c200004 <STACK_SIZE+0xc1ffc04>
    80000acc:	00f707b3          	add	a5,a4,a5
    80000ad0:	00078513          	mv	a0,a5
    80000ad4:	01813403          	ld	s0,24(sp)
    80000ad8:	02010113          	addi	sp,sp,32
    80000adc:	00008067          	ret

0000000080000ae0 <_ZN8platform5clint10mtimecmpOfEi>:
    {
        constexpr auto base=0x2000000l,
            mtime=base+0xbff8,
            mtimecmp=base+0x4000
            ;
        constexpr xlen_t mtimecmpOf(int hart) { return mtimecmp+hart*0x8; }
    80000ae0:	fe010113          	addi	sp,sp,-32
    80000ae4:	00813c23          	sd	s0,24(sp)
    80000ae8:	02010413          	addi	s0,sp,32
    80000aec:	00050793          	mv	a5,a0
    80000af0:	fef42623          	sw	a5,-20(s0)
    80000af4:	fec42783          	lw	a5,-20(s0)
    80000af8:	0037979b          	slliw	a5,a5,0x3
    80000afc:	0007879b          	sext.w	a5,a5
    80000b00:	00078713          	mv	a4,a5
    80000b04:	020047b7          	lui	a5,0x2004
    80000b08:	00f707b3          	add	a5,a4,a5
    80000b0c:	00078513          	mv	a0,a5
    80000b10:	01813403          	ld	s0,24(sp)
    80000b14:	02010113          	addi	sp,sp,32
    80000b18:	00008067          	ret

0000000080000b1c <_ZN2IO13_blockingputsEPKc>:

static klib::ringbuf<char> buf;

class IO{
public:
  inline static void _blockingputs(const char *s){
    80000b1c:	fe010113          	addi	sp,sp,-32
    80000b20:	00113c23          	sd	ra,24(sp)
    80000b24:	00813823          	sd	s0,16(sp)
    80000b28:	02010413          	addi	s0,sp,32
    80000b2c:	fea43423          	sd	a0,-24(s0)
    while(*s)platform::uart0::blocking::putc(*s++);
    80000b30:	fe843783          	ld	a5,-24(s0)
    80000b34:	0007c783          	lbu	a5,0(a5) # 2004000 <STACK_SIZE+0x2003c00>
    80000b38:	02078063          	beqz	a5,80000b58 <_ZN2IO13_blockingputsEPKc+0x3c>
    80000b3c:	fe843783          	ld	a5,-24(s0)
    80000b40:	00178713          	addi	a4,a5,1
    80000b44:	fee43423          	sd	a4,-24(s0)
    80000b48:	0007c783          	lbu	a5,0(a5)
    80000b4c:	00078513          	mv	a0,a5
    80000b50:	dd9ff0ef          	jal	ra,80000928 <_ZN8platform5uart08blocking4putcEc>
    80000b54:	fddff06f          	j	80000b30 <_ZN2IO13_blockingputsEPKc+0x14>
  }
    80000b58:	00000013          	nop
    80000b5c:	01813083          	ld	ra,24(sp)
    80000b60:	01013403          	ld	s0,16(sp)
    80000b64:	02010113          	addi	sp,sp,32
    80000b68:	00008067          	ret

0000000080000b6c <putchar>:

#include "klib.h"

void (*puts)(const char *s);

int putchar(char c){
    80000b6c:	fd010113          	addi	sp,sp,-48
    80000b70:	02113423          	sd	ra,40(sp)
    80000b74:	02813023          	sd	s0,32(sp)
    80000b78:	03010413          	addi	s0,sp,48
    80000b7c:	00050793          	mv	a5,a0
    80000b80:	fcf40fa3          	sb	a5,-33(s0)
	char buff[]={c,'\0'};
    80000b84:	fe041423          	sh	zero,-24(s0)
    80000b88:	fdf44783          	lbu	a5,-33(s0)
    80000b8c:	fef40423          	sb	a5,-24(s0)
	puts(buff);
    80000b90:	00003797          	auipc	a5,0x3
    80000b94:	47878793          	addi	a5,a5,1144 # 80004008 <puts>
    80000b98:	0007b703          	ld	a4,0(a5)
    80000b9c:	fe840793          	addi	a5,s0,-24
    80000ba0:	00078513          	mv	a0,a5
    80000ba4:	000700e7          	jalr	a4
}
    80000ba8:	00000013          	nop
    80000bac:	00078513          	mv	a0,a5
    80000bb0:	02813083          	ld	ra,40(sp)
    80000bb4:	02013403          	ld	s0,32(sp)
    80000bb8:	03010113          	addi	sp,sp,48
    80000bbc:	00008067          	ret

0000000080000bc0 <_ZL10_vsnprintfPcmPKcPv>:

static int _vsnprintf(char * out, size_t n, const char* s, va_list vl)
{
    80000bc0:	f8010113          	addi	sp,sp,-128
    80000bc4:	06813c23          	sd	s0,120(sp)
    80000bc8:	08010413          	addi	s0,sp,128
    80000bcc:	f8a43c23          	sd	a0,-104(s0)
    80000bd0:	f8b43823          	sd	a1,-112(s0)
    80000bd4:	f8c43423          	sd	a2,-120(s0)
    80000bd8:	f8d43023          	sd	a3,-128(s0)
	int format = 0;
    80000bdc:	fe042623          	sw	zero,-20(s0)
	int longarg = 0;
    80000be0:	fe042423          	sw	zero,-24(s0)
	size_t pos = 0;
    80000be4:	fe043023          	sd	zero,-32(s0)
	for (; *s; s++) {
    80000be8:	f8843783          	ld	a5,-120(s0)
    80000bec:	0007c783          	lbu	a5,0(a5)
    80000bf0:	46078a63          	beqz	a5,80001064 <_ZL10_vsnprintfPcmPKcPv+0x4a4>
		if (format) {
    80000bf4:	fec42783          	lw	a5,-20(s0)
    80000bf8:	0007879b          	sext.w	a5,a5
    80000bfc:	3e078c63          	beqz	a5,80000ff4 <_ZL10_vsnprintfPcmPKcPv+0x434>
			switch(*s) {
    80000c00:	f8843783          	ld	a5,-120(s0)
    80000c04:	0007c783          	lbu	a5,0(a5)
    80000c08:	0007879b          	sext.w	a5,a5
    80000c0c:	f9d7869b          	addiw	a3,a5,-99
    80000c10:	0006871b          	sext.w	a4,a3
    80000c14:	01500793          	li	a5,21
    80000c18:	42e7ec63          	bltu	a5,a4,80001050 <_ZL10_vsnprintfPcmPKcPv+0x490>
    80000c1c:	02069793          	slli	a5,a3,0x20
    80000c20:	0207d793          	srli	a5,a5,0x20
    80000c24:	00279713          	slli	a4,a5,0x2
    80000c28:	00001797          	auipc	a5,0x1
    80000c2c:	c5878793          	addi	a5,a5,-936 # 80001880 <memcmp+0x154>
    80000c30:	00f707b3          	add	a5,a4,a5
    80000c34:	0007a783          	lw	a5,0(a5)
    80000c38:	0007871b          	sext.w	a4,a5
    80000c3c:	00001797          	auipc	a5,0x1
    80000c40:	c4478793          	addi	a5,a5,-956 # 80001880 <memcmp+0x154>
    80000c44:	00f707b3          	add	a5,a4,a5
    80000c48:	00078067          	jr	a5
			case 'l': {
				longarg = 1;
    80000c4c:	00100793          	li	a5,1
    80000c50:	fef42423          	sw	a5,-24(s0)
				break;
    80000c54:	4000006f          	j	80001054 <_ZL10_vsnprintfPcmPKcPv+0x494>
			}
			case 'p': {
				longarg = 1;
    80000c58:	00100793          	li	a5,1
    80000c5c:	fef42423          	sw	a5,-24(s0)
				if (out && pos < n) {
    80000c60:	f9843783          	ld	a5,-104(s0)
    80000c64:	02078263          	beqz	a5,80000c88 <_ZL10_vsnprintfPcmPKcPv+0xc8>
    80000c68:	fe043703          	ld	a4,-32(s0)
    80000c6c:	f9043783          	ld	a5,-112(s0)
    80000c70:	00f77c63          	bgeu	a4,a5,80000c88 <_ZL10_vsnprintfPcmPKcPv+0xc8>
					out[pos] = '0';
    80000c74:	f9843703          	ld	a4,-104(s0)
    80000c78:	fe043783          	ld	a5,-32(s0)
    80000c7c:	00f707b3          	add	a5,a4,a5
    80000c80:	03000713          	li	a4,48
    80000c84:	00e78023          	sb	a4,0(a5)
				}
				pos++;
    80000c88:	fe043783          	ld	a5,-32(s0)
    80000c8c:	00178793          	addi	a5,a5,1
    80000c90:	fef43023          	sd	a5,-32(s0)
				if (out && pos < n) {
    80000c94:	f9843783          	ld	a5,-104(s0)
    80000c98:	02078263          	beqz	a5,80000cbc <_ZL10_vsnprintfPcmPKcPv+0xfc>
    80000c9c:	fe043703          	ld	a4,-32(s0)
    80000ca0:	f9043783          	ld	a5,-112(s0)
    80000ca4:	00f77c63          	bgeu	a4,a5,80000cbc <_ZL10_vsnprintfPcmPKcPv+0xfc>
					out[pos] = 'x';
    80000ca8:	f9843703          	ld	a4,-104(s0)
    80000cac:	fe043783          	ld	a5,-32(s0)
    80000cb0:	00f707b3          	add	a5,a4,a5
    80000cb4:	07800713          	li	a4,120
    80000cb8:	00e78023          	sb	a4,0(a5)
				}
				pos++;
    80000cbc:	fe043783          	ld	a5,-32(s0)
    80000cc0:	00178793          	addi	a5,a5,1
    80000cc4:	fef43023          	sd	a5,-32(s0)
			}
			case 'x': {
				long num = longarg ? va_arg(vl, long) : va_arg(vl, int);
    80000cc8:	fe842783          	lw	a5,-24(s0)
    80000ccc:	0007879b          	sext.w	a5,a5
    80000cd0:	00078c63          	beqz	a5,80000ce8 <_ZL10_vsnprintfPcmPKcPv+0x128>
    80000cd4:	f8043783          	ld	a5,-128(s0)
    80000cd8:	00878713          	addi	a4,a5,8
    80000cdc:	f8e43023          	sd	a4,-128(s0)
    80000ce0:	0007b783          	ld	a5,0(a5)
    80000ce4:	0140006f          	j	80000cf8 <_ZL10_vsnprintfPcmPKcPv+0x138>
    80000ce8:	f8043783          	ld	a5,-128(s0)
    80000cec:	00878713          	addi	a4,a5,8
    80000cf0:	f8e43023          	sd	a4,-128(s0)
    80000cf4:	0007a783          	lw	a5,0(a5)
    80000cf8:	faf43423          	sd	a5,-88(s0)
				int hexdigits = 2*(longarg ? sizeof(long) : sizeof(int))-1;
    80000cfc:	fe842783          	lw	a5,-24(s0)
    80000d00:	0007879b          	sext.w	a5,a5
    80000d04:	00078663          	beqz	a5,80000d10 <_ZL10_vsnprintfPcmPKcPv+0x150>
    80000d08:	00f00793          	li	a5,15
    80000d0c:	0080006f          	j	80000d14 <_ZL10_vsnprintfPcmPKcPv+0x154>
    80000d10:	00700793          	li	a5,7
    80000d14:	faf42223          	sw	a5,-92(s0)
				for(int i = hexdigits; i >= 0; i--) {
    80000d18:	fa442783          	lw	a5,-92(s0)
    80000d1c:	fcf42e23          	sw	a5,-36(s0)
    80000d20:	fdc42783          	lw	a5,-36(s0)
    80000d24:	0007879b          	sext.w	a5,a5
    80000d28:	0807cc63          	bltz	a5,80000dc0 <_ZL10_vsnprintfPcmPKcPv+0x200>
					int d = (num >> (4*i)) & 0xF;
    80000d2c:	fdc42783          	lw	a5,-36(s0)
    80000d30:	0027979b          	slliw	a5,a5,0x2
    80000d34:	0007879b          	sext.w	a5,a5
    80000d38:	fa843703          	ld	a4,-88(s0)
    80000d3c:	40f757b3          	sra	a5,a4,a5
    80000d40:	0007879b          	sext.w	a5,a5
    80000d44:	00f7f793          	andi	a5,a5,15
    80000d48:	faf42023          	sw	a5,-96(s0)
					if (out && pos < n) {
    80000d4c:	f9843783          	ld	a5,-104(s0)
    80000d50:	04078a63          	beqz	a5,80000da4 <_ZL10_vsnprintfPcmPKcPv+0x1e4>
    80000d54:	fe043703          	ld	a4,-32(s0)
    80000d58:	f9043783          	ld	a5,-112(s0)
    80000d5c:	04f77463          	bgeu	a4,a5,80000da4 <_ZL10_vsnprintfPcmPKcPv+0x1e4>
						out[pos] = (d < 10 ? '0'+d : 'a'+d-10);
    80000d60:	fa042783          	lw	a5,-96(s0)
    80000d64:	0007871b          	sext.w	a4,a5
    80000d68:	00900793          	li	a5,9
    80000d6c:	00e7cc63          	blt	a5,a4,80000d84 <_ZL10_vsnprintfPcmPKcPv+0x1c4>
    80000d70:	fa042783          	lw	a5,-96(s0)
    80000d74:	0ff7f793          	andi	a5,a5,255
    80000d78:	0307879b          	addiw	a5,a5,48
    80000d7c:	0ff7f793          	andi	a5,a5,255
    80000d80:	0140006f          	j	80000d94 <_ZL10_vsnprintfPcmPKcPv+0x1d4>
    80000d84:	fa042783          	lw	a5,-96(s0)
    80000d88:	0ff7f793          	andi	a5,a5,255
    80000d8c:	0577879b          	addiw	a5,a5,87
    80000d90:	0ff7f793          	andi	a5,a5,255
    80000d94:	f9843683          	ld	a3,-104(s0)
    80000d98:	fe043703          	ld	a4,-32(s0)
    80000d9c:	00e68733          	add	a4,a3,a4
    80000da0:	00f70023          	sb	a5,0(a4)
					}
					pos++;
    80000da4:	fe043783          	ld	a5,-32(s0)
    80000da8:	00178793          	addi	a5,a5,1
    80000dac:	fef43023          	sd	a5,-32(s0)
				for(int i = hexdigits; i >= 0; i--) {
    80000db0:	fdc42783          	lw	a5,-36(s0)
    80000db4:	fff7879b          	addiw	a5,a5,-1
    80000db8:	fcf42e23          	sw	a5,-36(s0)
    80000dbc:	f65ff06f          	j	80000d20 <_ZL10_vsnprintfPcmPKcPv+0x160>
				}
				longarg = 0;
    80000dc0:	fe042423          	sw	zero,-24(s0)
				format = 0;
    80000dc4:	fe042623          	sw	zero,-20(s0)
				break;
    80000dc8:	28c0006f          	j	80001054 <_ZL10_vsnprintfPcmPKcPv+0x494>
			}
			case 'd': {
				long num = longarg ? va_arg(vl, long) : va_arg(vl, int);
    80000dcc:	fe842783          	lw	a5,-24(s0)
    80000dd0:	0007879b          	sext.w	a5,a5
    80000dd4:	00078c63          	beqz	a5,80000dec <_ZL10_vsnprintfPcmPKcPv+0x22c>
    80000dd8:	f8043783          	ld	a5,-128(s0)
    80000ddc:	00878713          	addi	a4,a5,8
    80000de0:	f8e43023          	sd	a4,-128(s0)
    80000de4:	0007b783          	ld	a5,0(a5)
    80000de8:	0140006f          	j	80000dfc <_ZL10_vsnprintfPcmPKcPv+0x23c>
    80000dec:	f8043783          	ld	a5,-128(s0)
    80000df0:	00878713          	addi	a4,a5,8
    80000df4:	f8e43023          	sd	a4,-128(s0)
    80000df8:	0007a783          	lw	a5,0(a5)
    80000dfc:	fcf43823          	sd	a5,-48(s0)
				if (num < 0) {
    80000e00:	fd043783          	ld	a5,-48(s0)
    80000e04:	0407d263          	bgez	a5,80000e48 <_ZL10_vsnprintfPcmPKcPv+0x288>
					num = -num;
    80000e08:	fd043783          	ld	a5,-48(s0)
    80000e0c:	40f007b3          	neg	a5,a5
    80000e10:	fcf43823          	sd	a5,-48(s0)
					if (out && pos < n) {
    80000e14:	f9843783          	ld	a5,-104(s0)
    80000e18:	02078263          	beqz	a5,80000e3c <_ZL10_vsnprintfPcmPKcPv+0x27c>
    80000e1c:	fe043703          	ld	a4,-32(s0)
    80000e20:	f9043783          	ld	a5,-112(s0)
    80000e24:	00f77c63          	bgeu	a4,a5,80000e3c <_ZL10_vsnprintfPcmPKcPv+0x27c>
						out[pos] = '-';
    80000e28:	f9843703          	ld	a4,-104(s0)
    80000e2c:	fe043783          	ld	a5,-32(s0)
    80000e30:	00f707b3          	add	a5,a4,a5
    80000e34:	02d00713          	li	a4,45
    80000e38:	00e78023          	sb	a4,0(a5)
					}
					pos++;
    80000e3c:	fe043783          	ld	a5,-32(s0)
    80000e40:	00178793          	addi	a5,a5,1
    80000e44:	fef43023          	sd	a5,-32(s0)
				}
				long digits = 1;
    80000e48:	00100793          	li	a5,1
    80000e4c:	fcf43423          	sd	a5,-56(s0)
				for (long nn = num; nn /= 10; digits++);
    80000e50:	fd043783          	ld	a5,-48(s0)
    80000e54:	fcf43023          	sd	a5,-64(s0)
    80000e58:	fc043703          	ld	a4,-64(s0)
    80000e5c:	00a00793          	li	a5,10
    80000e60:	02f747b3          	div	a5,a4,a5
    80000e64:	fcf43023          	sd	a5,-64(s0)
    80000e68:	fc043783          	ld	a5,-64(s0)
    80000e6c:	00f037b3          	snez	a5,a5
    80000e70:	0ff7f793          	andi	a5,a5,255
    80000e74:	00078a63          	beqz	a5,80000e88 <_ZL10_vsnprintfPcmPKcPv+0x2c8>
    80000e78:	fc843783          	ld	a5,-56(s0)
    80000e7c:	00178793          	addi	a5,a5,1
    80000e80:	fcf43423          	sd	a5,-56(s0)
    80000e84:	fd5ff06f          	j	80000e58 <_ZL10_vsnprintfPcmPKcPv+0x298>
				for (int i = digits-1; i >= 0; i--) {
    80000e88:	fc843783          	ld	a5,-56(s0)
    80000e8c:	0007879b          	sext.w	a5,a5
    80000e90:	fff7879b          	addiw	a5,a5,-1
    80000e94:	0007879b          	sext.w	a5,a5
    80000e98:	faf42e23          	sw	a5,-68(s0)
    80000e9c:	fbc42783          	lw	a5,-68(s0)
    80000ea0:	0007879b          	sext.w	a5,a5
    80000ea4:	0607c863          	bltz	a5,80000f14 <_ZL10_vsnprintfPcmPKcPv+0x354>
					if (out && pos + i < n) {
    80000ea8:	f9843783          	ld	a5,-104(s0)
    80000eac:	04078463          	beqz	a5,80000ef4 <_ZL10_vsnprintfPcmPKcPv+0x334>
    80000eb0:	fbc42703          	lw	a4,-68(s0)
    80000eb4:	fe043783          	ld	a5,-32(s0)
    80000eb8:	00f707b3          	add	a5,a4,a5
    80000ebc:	f9043703          	ld	a4,-112(s0)
    80000ec0:	02e7fa63          	bgeu	a5,a4,80000ef4 <_ZL10_vsnprintfPcmPKcPv+0x334>
						out[pos + i] = '0' + (num % 10);
    80000ec4:	fd043703          	ld	a4,-48(s0)
    80000ec8:	00a00793          	li	a5,10
    80000ecc:	02f767b3          	rem	a5,a4,a5
    80000ed0:	0ff7f713          	andi	a4,a5,255
    80000ed4:	fbc42683          	lw	a3,-68(s0)
    80000ed8:	fe043783          	ld	a5,-32(s0)
    80000edc:	00f687b3          	add	a5,a3,a5
    80000ee0:	f9843683          	ld	a3,-104(s0)
    80000ee4:	00f687b3          	add	a5,a3,a5
    80000ee8:	0307071b          	addiw	a4,a4,48
    80000eec:	0ff77713          	andi	a4,a4,255
    80000ef0:	00e78023          	sb	a4,0(a5)
					}
					num /= 10;
    80000ef4:	fd043703          	ld	a4,-48(s0)
    80000ef8:	00a00793          	li	a5,10
    80000efc:	02f747b3          	div	a5,a4,a5
    80000f00:	fcf43823          	sd	a5,-48(s0)
				for (int i = digits-1; i >= 0; i--) {
    80000f04:	fbc42783          	lw	a5,-68(s0)
    80000f08:	fff7879b          	addiw	a5,a5,-1
    80000f0c:	faf42e23          	sw	a5,-68(s0)
    80000f10:	f8dff06f          	j	80000e9c <_ZL10_vsnprintfPcmPKcPv+0x2dc>
				}
				pos += digits;
    80000f14:	fc843783          	ld	a5,-56(s0)
    80000f18:	fe043703          	ld	a4,-32(s0)
    80000f1c:	00f707b3          	add	a5,a4,a5
    80000f20:	fef43023          	sd	a5,-32(s0)
				longarg = 0;
    80000f24:	fe042423          	sw	zero,-24(s0)
				format = 0;
    80000f28:	fe042623          	sw	zero,-20(s0)
				break;
    80000f2c:	1280006f          	j	80001054 <_ZL10_vsnprintfPcmPKcPv+0x494>
			}
			case 's': {
				const char* s2 = va_arg(vl, const char*);
    80000f30:	f8043783          	ld	a5,-128(s0)
    80000f34:	00878713          	addi	a4,a5,8
    80000f38:	f8e43023          	sd	a4,-128(s0)
    80000f3c:	0007b783          	ld	a5,0(a5)
    80000f40:	faf43823          	sd	a5,-80(s0)
				while (*s2) {
    80000f44:	fb043783          	ld	a5,-80(s0)
    80000f48:	0007c783          	lbu	a5,0(a5)
    80000f4c:	04078663          	beqz	a5,80000f98 <_ZL10_vsnprintfPcmPKcPv+0x3d8>
					if (out && pos < n) {
    80000f50:	f9843783          	ld	a5,-104(s0)
    80000f54:	02078463          	beqz	a5,80000f7c <_ZL10_vsnprintfPcmPKcPv+0x3bc>
    80000f58:	fe043703          	ld	a4,-32(s0)
    80000f5c:	f9043783          	ld	a5,-112(s0)
    80000f60:	00f77e63          	bgeu	a4,a5,80000f7c <_ZL10_vsnprintfPcmPKcPv+0x3bc>
						out[pos] = *s2;
    80000f64:	f9843703          	ld	a4,-104(s0)
    80000f68:	fe043783          	ld	a5,-32(s0)
    80000f6c:	00f707b3          	add	a5,a4,a5
    80000f70:	fb043703          	ld	a4,-80(s0)
    80000f74:	00074703          	lbu	a4,0(a4)
    80000f78:	00e78023          	sb	a4,0(a5)
					}
					pos++;
    80000f7c:	fe043783          	ld	a5,-32(s0)
    80000f80:	00178793          	addi	a5,a5,1
    80000f84:	fef43023          	sd	a5,-32(s0)
					s2++;
    80000f88:	fb043783          	ld	a5,-80(s0)
    80000f8c:	00178793          	addi	a5,a5,1
    80000f90:	faf43823          	sd	a5,-80(s0)
				while (*s2) {
    80000f94:	fb1ff06f          	j	80000f44 <_ZL10_vsnprintfPcmPKcPv+0x384>
				}
				longarg = 0;
    80000f98:	fe042423          	sw	zero,-24(s0)
				format = 0;
    80000f9c:	fe042623          	sw	zero,-20(s0)
				break;
    80000fa0:	0b40006f          	j	80001054 <_ZL10_vsnprintfPcmPKcPv+0x494>
			}
			case 'c': {
				if (out && pos < n) {
    80000fa4:	f9843783          	ld	a5,-104(s0)
    80000fa8:	02078a63          	beqz	a5,80000fdc <_ZL10_vsnprintfPcmPKcPv+0x41c>
    80000fac:	fe043703          	ld	a4,-32(s0)
    80000fb0:	f9043783          	ld	a5,-112(s0)
    80000fb4:	02f77463          	bgeu	a4,a5,80000fdc <_ZL10_vsnprintfPcmPKcPv+0x41c>
					out[pos] = (char)va_arg(vl,int);
    80000fb8:	f8043783          	ld	a5,-128(s0)
    80000fbc:	00878713          	addi	a4,a5,8
    80000fc0:	f8e43023          	sd	a4,-128(s0)
    80000fc4:	0007a683          	lw	a3,0(a5)
    80000fc8:	f9843703          	ld	a4,-104(s0)
    80000fcc:	fe043783          	ld	a5,-32(s0)
    80000fd0:	00f707b3          	add	a5,a4,a5
    80000fd4:	0ff6f713          	andi	a4,a3,255
    80000fd8:	00e78023          	sb	a4,0(a5)
				}
				pos++;
    80000fdc:	fe043783          	ld	a5,-32(s0)
    80000fe0:	00178793          	addi	a5,a5,1
    80000fe4:	fef43023          	sd	a5,-32(s0)
				longarg = 0;
    80000fe8:	fe042423          	sw	zero,-24(s0)
				format = 0;
    80000fec:	fe042623          	sw	zero,-20(s0)
				break;
    80000ff0:	0640006f          	j	80001054 <_ZL10_vsnprintfPcmPKcPv+0x494>
			}
			default:
				break;
			}
		} else if (*s == '%') {
    80000ff4:	f8843783          	ld	a5,-120(s0)
    80000ff8:	0007c783          	lbu	a5,0(a5)
    80000ffc:	00078713          	mv	a4,a5
    80001000:	02500793          	li	a5,37
    80001004:	00f71863          	bne	a4,a5,80001014 <_ZL10_vsnprintfPcmPKcPv+0x454>
			format = 1;
    80001008:	00100793          	li	a5,1
    8000100c:	fef42623          	sw	a5,-20(s0)
    80001010:	0440006f          	j	80001054 <_ZL10_vsnprintfPcmPKcPv+0x494>
		} else {
			if (out && pos < n) {
    80001014:	f9843783          	ld	a5,-104(s0)
    80001018:	02078463          	beqz	a5,80001040 <_ZL10_vsnprintfPcmPKcPv+0x480>
    8000101c:	fe043703          	ld	a4,-32(s0)
    80001020:	f9043783          	ld	a5,-112(s0)
    80001024:	00f77e63          	bgeu	a4,a5,80001040 <_ZL10_vsnprintfPcmPKcPv+0x480>
				out[pos] = *s;
    80001028:	f9843703          	ld	a4,-104(s0)
    8000102c:	fe043783          	ld	a5,-32(s0)
    80001030:	00f707b3          	add	a5,a4,a5
    80001034:	f8843703          	ld	a4,-120(s0)
    80001038:	00074703          	lbu	a4,0(a4)
    8000103c:	00e78023          	sb	a4,0(a5)
			}
			pos++;
    80001040:	fe043783          	ld	a5,-32(s0)
    80001044:	00178793          	addi	a5,a5,1
    80001048:	fef43023          	sd	a5,-32(s0)
    8000104c:	0080006f          	j	80001054 <_ZL10_vsnprintfPcmPKcPv+0x494>
				break;
    80001050:	00000013          	nop
	for (; *s; s++) {
    80001054:	f8843783          	ld	a5,-120(s0)
    80001058:	00178793          	addi	a5,a5,1
    8000105c:	f8f43423          	sd	a5,-120(s0)
    80001060:	b89ff06f          	j	80000be8 <_ZL10_vsnprintfPcmPKcPv+0x28>
		}
    	}
	if (out && pos < n) {
    80001064:	f9843783          	ld	a5,-104(s0)
    80001068:	02078263          	beqz	a5,8000108c <_ZL10_vsnprintfPcmPKcPv+0x4cc>
    8000106c:	fe043703          	ld	a4,-32(s0)
    80001070:	f9043783          	ld	a5,-112(s0)
    80001074:	00f77c63          	bgeu	a4,a5,8000108c <_ZL10_vsnprintfPcmPKcPv+0x4cc>
		out[pos] = 0;
    80001078:	f9843703          	ld	a4,-104(s0)
    8000107c:	fe043783          	ld	a5,-32(s0)
    80001080:	00f707b3          	add	a5,a4,a5
    80001084:	00078023          	sb	zero,0(a5)
    80001088:	0280006f          	j	800010b0 <_ZL10_vsnprintfPcmPKcPv+0x4f0>
	} else if (out && n) {
    8000108c:	f9843783          	ld	a5,-104(s0)
    80001090:	02078063          	beqz	a5,800010b0 <_ZL10_vsnprintfPcmPKcPv+0x4f0>
    80001094:	f9043783          	ld	a5,-112(s0)
    80001098:	00078c63          	beqz	a5,800010b0 <_ZL10_vsnprintfPcmPKcPv+0x4f0>
		out[n-1] = 0;
    8000109c:	f9043783          	ld	a5,-112(s0)
    800010a0:	fff78793          	addi	a5,a5,-1
    800010a4:	f9843703          	ld	a4,-104(s0)
    800010a8:	00f707b3          	add	a5,a4,a5
    800010ac:	00078023          	sb	zero,0(a5)
	}
	return pos;
    800010b0:	fe043783          	ld	a5,-32(s0)
    800010b4:	0007879b          	sext.w	a5,a5
}
    800010b8:	00078513          	mv	a0,a5
    800010bc:	07813403          	ld	s0,120(sp)
    800010c0:	08010113          	addi	sp,sp,128
    800010c4:	00008067          	ret

00000000800010c8 <_ZL8_vprintfPKcPv>:

static char out_buf[1000]; // buffer for _vprintf()

static int _vprintf(const char* s, va_list vl)
{
    800010c8:	fd010113          	addi	sp,sp,-48
    800010cc:	02113423          	sd	ra,40(sp)
    800010d0:	02813023          	sd	s0,32(sp)
    800010d4:	03010413          	addi	s0,sp,48
    800010d8:	fca43c23          	sd	a0,-40(s0)
    800010dc:	fcb43823          	sd	a1,-48(s0)
	int res = _vsnprintf(NULL, -1, s, vl);
    800010e0:	fd043683          	ld	a3,-48(s0)
    800010e4:	fd843603          	ld	a2,-40(s0)
    800010e8:	fff00593          	li	a1,-1
    800010ec:	00000513          	li	a0,0
    800010f0:	ad1ff0ef          	jal	ra,80000bc0 <_ZL10_vsnprintfPcmPKcPv>
    800010f4:	00050793          	mv	a5,a0
    800010f8:	fef42623          	sw	a5,-20(s0)
	if (res+1 >= sizeof(out_buf)) {
    800010fc:	fec42783          	lw	a5,-20(s0)
    80001100:	0017879b          	addiw	a5,a5,1
    80001104:	0007879b          	sext.w	a5,a5
    80001108:	00078713          	mv	a4,a5
    8000110c:	3e700793          	li	a5,999
    80001110:	02e7f063          	bgeu	a5,a4,80001130 <_ZL8_vprintfPKcPv+0x68>
		puts("error: output string size overflow\n");
    80001114:	00003797          	auipc	a5,0x3
    80001118:	ef478793          	addi	a5,a5,-268 # 80004008 <puts>
    8000111c:	0007b783          	ld	a5,0(a5)
    80001120:	00000517          	auipc	a0,0x0
    80001124:	7b850513          	addi	a0,a0,1976 # 800018d8 <memcmp+0x1ac>
    80001128:	000780e7          	jalr	a5
		while(1) {}
    8000112c:	0000006f          	j	8000112c <_ZL8_vprintfPKcPv+0x64>
	}
	_vsnprintf(out_buf, res + 1, s, vl);
    80001130:	fec42783          	lw	a5,-20(s0)
    80001134:	0017879b          	addiw	a5,a5,1
    80001138:	0007879b          	sext.w	a5,a5
    8000113c:	fd043683          	ld	a3,-48(s0)
    80001140:	fd843603          	ld	a2,-40(s0)
    80001144:	00078593          	mv	a1,a5
    80001148:	00003517          	auipc	a0,0x3
    8000114c:	0e050513          	addi	a0,a0,224 # 80004228 <_ZL7out_buf>
    80001150:	a71ff0ef          	jal	ra,80000bc0 <_ZL10_vsnprintfPcmPKcPv>
	puts(out_buf);
    80001154:	00003797          	auipc	a5,0x3
    80001158:	eb478793          	addi	a5,a5,-332 # 80004008 <puts>
    8000115c:	0007b783          	ld	a5,0(a5)
    80001160:	00003517          	auipc	a0,0x3
    80001164:	0c850513          	addi	a0,a0,200 # 80004228 <_ZL7out_buf>
    80001168:	000780e7          	jalr	a5
	return res;
    8000116c:	fec42783          	lw	a5,-20(s0)
}
    80001170:	00078513          	mv	a0,a5
    80001174:	02813083          	ld	ra,40(sp)
    80001178:	02013403          	ld	s0,32(sp)
    8000117c:	03010113          	addi	sp,sp,48
    80001180:	00008067          	ret

0000000080001184 <printf>:

int printf(const char* s, ...)
{
    80001184:	f9010113          	addi	sp,sp,-112
    80001188:	02113423          	sd	ra,40(sp)
    8000118c:	02813023          	sd	s0,32(sp)
    80001190:	03010413          	addi	s0,sp,48
    80001194:	fca43c23          	sd	a0,-40(s0)
    80001198:	00b43423          	sd	a1,8(s0)
    8000119c:	00c43823          	sd	a2,16(s0)
    800011a0:	00d43c23          	sd	a3,24(s0)
    800011a4:	02e43023          	sd	a4,32(s0)
    800011a8:	02f43423          	sd	a5,40(s0)
    800011ac:	03043823          	sd	a6,48(s0)
    800011b0:	03143c23          	sd	a7,56(s0)
	int res = 0;
    800011b4:	fe042623          	sw	zero,-20(s0)
	va_list vl;
	va_start(vl, s);
    800011b8:	04040793          	addi	a5,s0,64
    800011bc:	fcf43823          	sd	a5,-48(s0)
    800011c0:	fd043783          	ld	a5,-48(s0)
    800011c4:	fc878793          	addi	a5,a5,-56
    800011c8:	fef43023          	sd	a5,-32(s0)
	res = _vprintf(s, vl);
    800011cc:	fe043783          	ld	a5,-32(s0)
    800011d0:	00078593          	mv	a1,a5
    800011d4:	fd843503          	ld	a0,-40(s0)
    800011d8:	ef1ff0ef          	jal	ra,800010c8 <_ZL8_vprintfPKcPv>
    800011dc:	00050793          	mv	a5,a0
    800011e0:	fef42623          	sw	a5,-20(s0)
	va_end(vl);
	return res;
    800011e4:	fec42783          	lw	a5,-20(s0)
}
    800011e8:	00078513          	mv	a0,a5
    800011ec:	02813083          	ld	ra,40(sp)
    800011f0:	02013403          	ld	s0,32(sp)
    800011f4:	07010113          	addi	sp,sp,112
    800011f8:	00008067          	ret

00000000800011fc <_Z5panicPc>:

void panic(char *s)
{
    800011fc:	fe010113          	addi	sp,sp,-32
    80001200:	00113c23          	sd	ra,24(sp)
    80001204:	00813823          	sd	s0,16(sp)
    80001208:	02010413          	addi	s0,sp,32
    8000120c:	fea43423          	sd	a0,-24(s0)
	printf("panic: ");
    80001210:	00000517          	auipc	a0,0x0
    80001214:	6f050513          	addi	a0,a0,1776 # 80001900 <memcmp+0x1d4>
    80001218:	f6dff0ef          	jal	ra,80001184 <printf>
	printf(s);
    8000121c:	fe843503          	ld	a0,-24(s0)
    80001220:	f65ff0ef          	jal	ra,80001184 <printf>
	printf("\n");
    80001224:	00000517          	auipc	a0,0x0
    80001228:	6e450513          	addi	a0,a0,1764 # 80001908 <memcmp+0x1dc>
    8000122c:	f59ff0ef          	jal	ra,80001184 <printf>
	while(1){};
    80001230:	0000006f          	j	80001230 <_Z5panicPc+0x34>

0000000080001234 <halt>:
}
void halt(int errno){
    80001234:	fe010113          	addi	sp,sp,-32
    80001238:	00813c23          	sd	s0,24(sp)
    8000123c:	02010413          	addi	s0,sp,32
    80001240:	00050793          	mv	a5,a0
    80001244:	fef42623          	sw	a5,-20(s0)
	while(1)asm("wfi");
    80001248:	10500073          	wfi
    8000124c:	ffdff06f          	j	80001248 <halt+0x14>

0000000080001250 <strlen>:
}


size_t strlen(const char *s) {
    80001250:	fd010113          	addi	sp,sp,-48
    80001254:	02813423          	sd	s0,40(sp)
    80001258:	03010413          	addi	s0,sp,48
    8000125c:	fca43c23          	sd	a0,-40(s0)
  size_t len=0;
    80001260:	fe043423          	sd	zero,-24(s0)
  while(*s)s++,len++;
    80001264:	fd843783          	ld	a5,-40(s0)
    80001268:	0007c783          	lbu	a5,0(a5)
    8000126c:	02078063          	beqz	a5,8000128c <strlen+0x3c>
    80001270:	fd843783          	ld	a5,-40(s0)
    80001274:	00178793          	addi	a5,a5,1
    80001278:	fcf43c23          	sd	a5,-40(s0)
    8000127c:	fe843783          	ld	a5,-24(s0)
    80001280:	00178793          	addi	a5,a5,1
    80001284:	fef43423          	sd	a5,-24(s0)
    80001288:	fddff06f          	j	80001264 <strlen+0x14>
  return len;
    8000128c:	fe843783          	ld	a5,-24(s0)
}
    80001290:	00078513          	mv	a0,a5
    80001294:	02813403          	ld	s0,40(sp)
    80001298:	03010113          	addi	sp,sp,48
    8000129c:	00008067          	ret

00000000800012a0 <strcpy>:

char *strcpy(char *dst, const char *src) {
    800012a0:	fd010113          	addi	sp,sp,-48
    800012a4:	02813423          	sd	s0,40(sp)
    800012a8:	03010413          	addi	s0,sp,48
    800012ac:	fca43c23          	sd	a0,-40(s0)
    800012b0:	fcb43823          	sd	a1,-48(s0)
  char *j;
  for(j=dst;*src;src++,j++)*j=*src;
    800012b4:	fd843783          	ld	a5,-40(s0)
    800012b8:	fef43423          	sd	a5,-24(s0)
    800012bc:	fd043783          	ld	a5,-48(s0)
    800012c0:	0007c783          	lbu	a5,0(a5)
    800012c4:	02078863          	beqz	a5,800012f4 <strcpy+0x54>
    800012c8:	fd043783          	ld	a5,-48(s0)
    800012cc:	0007c703          	lbu	a4,0(a5)
    800012d0:	fe843783          	ld	a5,-24(s0)
    800012d4:	00e78023          	sb	a4,0(a5)
    800012d8:	fd043783          	ld	a5,-48(s0)
    800012dc:	00178793          	addi	a5,a5,1
    800012e0:	fcf43823          	sd	a5,-48(s0)
    800012e4:	fe843783          	ld	a5,-24(s0)
    800012e8:	00178793          	addi	a5,a5,1
    800012ec:	fef43423          	sd	a5,-24(s0)
    800012f0:	fcdff06f          	j	800012bc <strcpy+0x1c>
  *j='\0';
    800012f4:	fe843783          	ld	a5,-24(s0)
    800012f8:	00078023          	sb	zero,0(a5)
  return dst;
    800012fc:	fd843783          	ld	a5,-40(s0)
}
    80001300:	00078513          	mv	a0,a5
    80001304:	02813403          	ld	s0,40(sp)
    80001308:	03010113          	addi	sp,sp,48
    8000130c:	00008067          	ret

0000000080001310 <strncpy>:

char *strncpy(char *dst, const char *src, size_t n) {
    80001310:	fc010113          	addi	sp,sp,-64
    80001314:	02813c23          	sd	s0,56(sp)
    80001318:	04010413          	addi	s0,sp,64
    8000131c:	fca43c23          	sd	a0,-40(s0)
    80001320:	fcb43823          	sd	a1,-48(s0)
    80001324:	fcc43423          	sd	a2,-56(s0)
  char *j;
  size_t cnt=0;
    80001328:	fe043023          	sd	zero,-32(s0)
  for(j=dst;*src&&cnt<n;src++,j++,cnt++)*j=*src;
    8000132c:	fd843783          	ld	a5,-40(s0)
    80001330:	fef43423          	sd	a5,-24(s0)
    80001334:	fd043783          	ld	a5,-48(s0)
    80001338:	0007c783          	lbu	a5,0(a5)
    8000133c:	04078463          	beqz	a5,80001384 <strncpy+0x74>
    80001340:	fe043703          	ld	a4,-32(s0)
    80001344:	fc843783          	ld	a5,-56(s0)
    80001348:	02f77e63          	bgeu	a4,a5,80001384 <strncpy+0x74>
    8000134c:	fd043783          	ld	a5,-48(s0)
    80001350:	0007c703          	lbu	a4,0(a5)
    80001354:	fe843783          	ld	a5,-24(s0)
    80001358:	00e78023          	sb	a4,0(a5)
    8000135c:	fd043783          	ld	a5,-48(s0)
    80001360:	00178793          	addi	a5,a5,1
    80001364:	fcf43823          	sd	a5,-48(s0)
    80001368:	fe843783          	ld	a5,-24(s0)
    8000136c:	00178793          	addi	a5,a5,1
    80001370:	fef43423          	sd	a5,-24(s0)
    80001374:	fe043783          	ld	a5,-32(s0)
    80001378:	00178793          	addi	a5,a5,1
    8000137c:	fef43023          	sd	a5,-32(s0)
    80001380:	fb5ff06f          	j	80001334 <strncpy+0x24>
  for(;cnt<n;j++,cnt++)*j='\0';
    80001384:	fe043703          	ld	a4,-32(s0)
    80001388:	fc843783          	ld	a5,-56(s0)
    8000138c:	02f77463          	bgeu	a4,a5,800013b4 <strncpy+0xa4>
    80001390:	fe843783          	ld	a5,-24(s0)
    80001394:	00078023          	sb	zero,0(a5)
    80001398:	fe843783          	ld	a5,-24(s0)
    8000139c:	00178793          	addi	a5,a5,1
    800013a0:	fef43423          	sd	a5,-24(s0)
    800013a4:	fe043783          	ld	a5,-32(s0)
    800013a8:	00178793          	addi	a5,a5,1
    800013ac:	fef43023          	sd	a5,-32(s0)
    800013b0:	fd5ff06f          	j	80001384 <strncpy+0x74>
  return dst;
    800013b4:	fd843783          	ld	a5,-40(s0)
}
    800013b8:	00078513          	mv	a0,a5
    800013bc:	03813403          	ld	s0,56(sp)
    800013c0:	04010113          	addi	sp,sp,64
    800013c4:	00008067          	ret

00000000800013c8 <strcat>:

char *strcat(char *dst, const char *src) {
    800013c8:	fd010113          	addi	sp,sp,-48
    800013cc:	02813423          	sd	s0,40(sp)
    800013d0:	03010413          	addi	s0,sp,48
    800013d4:	fca43c23          	sd	a0,-40(s0)
    800013d8:	fcb43823          	sd	a1,-48(s0)
  char *j=dst;
    800013dc:	fd843783          	ld	a5,-40(s0)
    800013e0:	fef43423          	sd	a5,-24(s0)
  while(*j)j++;
    800013e4:	fe843783          	ld	a5,-24(s0)
    800013e8:	0007c783          	lbu	a5,0(a5)
    800013ec:	00078a63          	beqz	a5,80001400 <strcat+0x38>
    800013f0:	fe843783          	ld	a5,-24(s0)
    800013f4:	00178793          	addi	a5,a5,1
    800013f8:	fef43423          	sd	a5,-24(s0)
    800013fc:	fe9ff06f          	j	800013e4 <strcat+0x1c>
  for(;*src;src++,j++)*j=*src;
    80001400:	fd043783          	ld	a5,-48(s0)
    80001404:	0007c783          	lbu	a5,0(a5)
    80001408:	02078863          	beqz	a5,80001438 <strcat+0x70>
    8000140c:	fd043783          	ld	a5,-48(s0)
    80001410:	0007c703          	lbu	a4,0(a5)
    80001414:	fe843783          	ld	a5,-24(s0)
    80001418:	00e78023          	sb	a4,0(a5)
    8000141c:	fd043783          	ld	a5,-48(s0)
    80001420:	00178793          	addi	a5,a5,1
    80001424:	fcf43823          	sd	a5,-48(s0)
    80001428:	fe843783          	ld	a5,-24(s0)
    8000142c:	00178793          	addi	a5,a5,1
    80001430:	fef43423          	sd	a5,-24(s0)
    80001434:	fcdff06f          	j	80001400 <strcat+0x38>
  *j='\0';
    80001438:	fe843783          	ld	a5,-24(s0)
    8000143c:	00078023          	sb	zero,0(a5)
  return dst;
    80001440:	fd843783          	ld	a5,-40(s0)
}
    80001444:	00078513          	mv	a0,a5
    80001448:	02813403          	ld	s0,40(sp)
    8000144c:	03010113          	addi	sp,sp,48
    80001450:	00008067          	ret

0000000080001454 <strcmp>:

int strcmp(const char *s1, const char *s2) {
    80001454:	fe010113          	addi	sp,sp,-32
    80001458:	00813c23          	sd	s0,24(sp)
    8000145c:	02010413          	addi	s0,sp,32
    80001460:	fea43423          	sd	a0,-24(s0)
    80001464:	feb43023          	sd	a1,-32(s0)
  for(;*s1==*s2;s1++,s2++){
    80001468:	fe843783          	ld	a5,-24(s0)
    8000146c:	0007c703          	lbu	a4,0(a5)
    80001470:	fe043783          	ld	a5,-32(s0)
    80001474:	0007c783          	lbu	a5,0(a5)
    80001478:	02f71a63          	bne	a4,a5,800014ac <strcmp+0x58>
    if(!*s1)return 0;
    8000147c:	fe843783          	ld	a5,-24(s0)
    80001480:	0007c783          	lbu	a5,0(a5)
    80001484:	00079663          	bnez	a5,80001490 <strcmp+0x3c>
    80001488:	00000793          	li	a5,0
    8000148c:	0440006f          	j	800014d0 <strcmp+0x7c>
  for(;*s1==*s2;s1++,s2++){
    80001490:	fe843783          	ld	a5,-24(s0)
    80001494:	00178793          	addi	a5,a5,1
    80001498:	fef43423          	sd	a5,-24(s0)
    8000149c:	fe043783          	ld	a5,-32(s0)
    800014a0:	00178793          	addi	a5,a5,1
    800014a4:	fef43023          	sd	a5,-32(s0)
    800014a8:	fc1ff06f          	j	80001468 <strcmp+0x14>
  }
  return *s1<*s2?-1:1;
    800014ac:	fe843783          	ld	a5,-24(s0)
    800014b0:	0007c703          	lbu	a4,0(a5)
    800014b4:	fe043783          	ld	a5,-32(s0)
    800014b8:	0007c783          	lbu	a5,0(a5)
    800014bc:	00f77663          	bgeu	a4,a5,800014c8 <strcmp+0x74>
    800014c0:	fff00793          	li	a5,-1
    800014c4:	0080006f          	j	800014cc <strcmp+0x78>
    800014c8:	00100793          	li	a5,1
    800014cc:	00000013          	nop
}
    800014d0:	00078513          	mv	a0,a5
    800014d4:	01813403          	ld	s0,24(sp)
    800014d8:	02010113          	addi	sp,sp,32
    800014dc:	00008067          	ret

00000000800014e0 <strncmp>:

int strncmp(const char *s1, const char *s2, size_t n) {
    800014e0:	fc010113          	addi	sp,sp,-64
    800014e4:	02813c23          	sd	s0,56(sp)
    800014e8:	04010413          	addi	s0,sp,64
    800014ec:	fca43c23          	sd	a0,-40(s0)
    800014f0:	fcb43823          	sd	a1,-48(s0)
    800014f4:	fcc43423          	sd	a2,-56(s0)
  size_t cnt=1;
    800014f8:	00100793          	li	a5,1
    800014fc:	fef43423          	sd	a5,-24(s0)
  if(n==0)return 0;
    80001500:	fc843783          	ld	a5,-56(s0)
    80001504:	00079663          	bnez	a5,80001510 <strncmp+0x30>
    80001508:	00000793          	li	a5,0
    8000150c:	0840006f          	j	80001590 <strncmp+0xb0>
  for(;*s1==*s2;s1++,s2++,cnt++){
    80001510:	fd843783          	ld	a5,-40(s0)
    80001514:	0007c703          	lbu	a4,0(a5)
    80001518:	fd043783          	ld	a5,-48(s0)
    8000151c:	0007c783          	lbu	a5,0(a5)
    80001520:	04f71663          	bne	a4,a5,8000156c <strncmp+0x8c>
    if(!*s1||cnt==n)return 0;
    80001524:	fd843783          	ld	a5,-40(s0)
    80001528:	0007c783          	lbu	a5,0(a5)
    8000152c:	00078863          	beqz	a5,8000153c <strncmp+0x5c>
    80001530:	fe843703          	ld	a4,-24(s0)
    80001534:	fc843783          	ld	a5,-56(s0)
    80001538:	00f71663          	bne	a4,a5,80001544 <strncmp+0x64>
    8000153c:	00000793          	li	a5,0
    80001540:	0500006f          	j	80001590 <strncmp+0xb0>
  for(;*s1==*s2;s1++,s2++,cnt++){
    80001544:	fd843783          	ld	a5,-40(s0)
    80001548:	00178793          	addi	a5,a5,1
    8000154c:	fcf43c23          	sd	a5,-40(s0)
    80001550:	fd043783          	ld	a5,-48(s0)
    80001554:	00178793          	addi	a5,a5,1
    80001558:	fcf43823          	sd	a5,-48(s0)
    8000155c:	fe843783          	ld	a5,-24(s0)
    80001560:	00178793          	addi	a5,a5,1
    80001564:	fef43423          	sd	a5,-24(s0)
    80001568:	fa9ff06f          	j	80001510 <strncmp+0x30>
  }
  return *s1<*s2?-1:1;
    8000156c:	fd843783          	ld	a5,-40(s0)
    80001570:	0007c703          	lbu	a4,0(a5)
    80001574:	fd043783          	ld	a5,-48(s0)
    80001578:	0007c783          	lbu	a5,0(a5)
    8000157c:	00f77663          	bgeu	a4,a5,80001588 <strncmp+0xa8>
    80001580:	fff00793          	li	a5,-1
    80001584:	0080006f          	j	8000158c <strncmp+0xac>
    80001588:	00100793          	li	a5,1
    8000158c:	00000013          	nop
}
    80001590:	00078513          	mv	a0,a5
    80001594:	03813403          	ld	s0,56(sp)
    80001598:	04010113          	addi	sp,sp,64
    8000159c:	00008067          	ret

00000000800015a0 <memset>:

void *memset(void *s, int c, size_t n) {
    800015a0:	fc010113          	addi	sp,sp,-64
    800015a4:	02813c23          	sd	s0,56(sp)
    800015a8:	04010413          	addi	s0,sp,64
    800015ac:	fca43c23          	sd	a0,-40(s0)
    800015b0:	00058793          	mv	a5,a1
    800015b4:	fcc43423          	sd	a2,-56(s0)
    800015b8:	fcf42a23          	sw	a5,-44(s0)
  for(char *b=(char*)s;b-(char*)s<n;b++)*b=c;
    800015bc:	fd843783          	ld	a5,-40(s0)
    800015c0:	fef43423          	sd	a5,-24(s0)
    800015c4:	fe843703          	ld	a4,-24(s0)
    800015c8:	fd843783          	ld	a5,-40(s0)
    800015cc:	40f707b3          	sub	a5,a4,a5
    800015d0:	00078713          	mv	a4,a5
    800015d4:	fc843783          	ld	a5,-56(s0)
    800015d8:	02f77263          	bgeu	a4,a5,800015fc <memset+0x5c>
    800015dc:	fd442783          	lw	a5,-44(s0)
    800015e0:	0ff7f713          	andi	a4,a5,255
    800015e4:	fe843783          	ld	a5,-24(s0)
    800015e8:	00e78023          	sb	a4,0(a5)
    800015ec:	fe843783          	ld	a5,-24(s0)
    800015f0:	00178793          	addi	a5,a5,1
    800015f4:	fef43423          	sd	a5,-24(s0)
    800015f8:	fcdff06f          	j	800015c4 <memset+0x24>
  return s;
    800015fc:	fd843783          	ld	a5,-40(s0)
}
    80001600:	00078513          	mv	a0,a5
    80001604:	03813403          	ld	s0,56(sp)
    80001608:	04010113          	addi	sp,sp,64
    8000160c:	00008067          	ret

0000000080001610 <memmove>:

void *memmove(void *dst, const void *src, size_t n) {
    80001610:	fc010113          	addi	sp,sp,-64
    80001614:	02813c23          	sd	s0,56(sp)
    80001618:	04010413          	addi	s0,sp,64
    8000161c:	fca43c23          	sd	a0,-40(s0)
    80001620:	fcb43823          	sd	a1,-48(s0)
    80001624:	fcc43423          	sd	a2,-56(s0)
  // may overlap
  const char *i=(const char*)src;
    80001628:	fd043783          	ld	a5,-48(s0)
    8000162c:	fef43423          	sd	a5,-24(s0)
  char *j=(char*)dst;
    80001630:	fd843783          	ld	a5,-40(s0)
    80001634:	fef43023          	sd	a5,-32(s0)
  for(i+=n-1,j+=n-1;i>=(const char*)src;i--,j--)*j=*i;
    80001638:	fc843783          	ld	a5,-56(s0)
    8000163c:	fff78793          	addi	a5,a5,-1
    80001640:	fe843703          	ld	a4,-24(s0)
    80001644:	00f707b3          	add	a5,a4,a5
    80001648:	fef43423          	sd	a5,-24(s0)
    8000164c:	fc843783          	ld	a5,-56(s0)
    80001650:	fff78793          	addi	a5,a5,-1
    80001654:	fe043703          	ld	a4,-32(s0)
    80001658:	00f707b3          	add	a5,a4,a5
    8000165c:	fef43023          	sd	a5,-32(s0)
    80001660:	fe843703          	ld	a4,-24(s0)
    80001664:	fd043783          	ld	a5,-48(s0)
    80001668:	02f76863          	bltu	a4,a5,80001698 <memmove+0x88>
    8000166c:	fe843783          	ld	a5,-24(s0)
    80001670:	0007c703          	lbu	a4,0(a5)
    80001674:	fe043783          	ld	a5,-32(s0)
    80001678:	00e78023          	sb	a4,0(a5)
    8000167c:	fe843783          	ld	a5,-24(s0)
    80001680:	fff78793          	addi	a5,a5,-1
    80001684:	fef43423          	sd	a5,-24(s0)
    80001688:	fe043783          	ld	a5,-32(s0)
    8000168c:	fff78793          	addi	a5,a5,-1
    80001690:	fef43023          	sd	a5,-32(s0)
    80001694:	fcdff06f          	j	80001660 <memmove+0x50>
  return dst;
    80001698:	fd843783          	ld	a5,-40(s0)
}
    8000169c:	00078513          	mv	a0,a5
    800016a0:	03813403          	ld	s0,56(sp)
    800016a4:	04010113          	addi	sp,sp,64
    800016a8:	00008067          	ret

00000000800016ac <memcpy>:

void *memcpy(void *out, const void *in, size_t n) {
    800016ac:	fc010113          	addi	sp,sp,-64
    800016b0:	02813c23          	sd	s0,56(sp)
    800016b4:	04010413          	addi	s0,sp,64
    800016b8:	fca43c23          	sd	a0,-40(s0)
    800016bc:	fcb43823          	sd	a1,-48(s0)
    800016c0:	fcc43423          	sd	a2,-56(s0)
  const char *i=(const char*)in;
    800016c4:	fd043783          	ld	a5,-48(s0)
    800016c8:	fef43423          	sd	a5,-24(s0)
  char *j=(char*)out;
    800016cc:	fd843783          	ld	a5,-40(s0)
    800016d0:	fef43023          	sd	a5,-32(s0)
  for(;j-((char*)out)<n;i++,j++)*j=*i;
    800016d4:	fe043703          	ld	a4,-32(s0)
    800016d8:	fd843783          	ld	a5,-40(s0)
    800016dc:	40f707b3          	sub	a5,a4,a5
    800016e0:	00078713          	mv	a4,a5
    800016e4:	fc843783          	ld	a5,-56(s0)
    800016e8:	02f77863          	bgeu	a4,a5,80001718 <memcpy+0x6c>
    800016ec:	fe843783          	ld	a5,-24(s0)
    800016f0:	0007c703          	lbu	a4,0(a5)
    800016f4:	fe043783          	ld	a5,-32(s0)
    800016f8:	00e78023          	sb	a4,0(a5)
    800016fc:	fe843783          	ld	a5,-24(s0)
    80001700:	00178793          	addi	a5,a5,1
    80001704:	fef43423          	sd	a5,-24(s0)
    80001708:	fe043783          	ld	a5,-32(s0)
    8000170c:	00178793          	addi	a5,a5,1
    80001710:	fef43023          	sd	a5,-32(s0)
    80001714:	fc1ff06f          	j	800016d4 <memcpy+0x28>
  return out;
    80001718:	fd843783          	ld	a5,-40(s0)
}
    8000171c:	00078513          	mv	a0,a5
    80001720:	03813403          	ld	s0,56(sp)
    80001724:	04010113          	addi	sp,sp,64
    80001728:	00008067          	ret

000000008000172c <memcmp>:

int memcmp(const void *s1, const void *s2, size_t n) {
    8000172c:	fb010113          	addi	sp,sp,-80
    80001730:	04813423          	sd	s0,72(sp)
    80001734:	05010413          	addi	s0,sp,80
    80001738:	fca43423          	sd	a0,-56(s0)
    8000173c:	fcb43023          	sd	a1,-64(s0)
    80001740:	fac43c23          	sd	a2,-72(s0)
  size_t cnt=1;
    80001744:	00100793          	li	a5,1
    80001748:	fef43423          	sd	a5,-24(s0)
  const unsigned char *i=(const unsigned char*)s1, *j=(const unsigned char*)s2;
    8000174c:	fc843783          	ld	a5,-56(s0)
    80001750:	fef43023          	sd	a5,-32(s0)
    80001754:	fc043783          	ld	a5,-64(s0)
    80001758:	fcf43c23          	sd	a5,-40(s0)
  if(n==0)return 0;
    8000175c:	fb843783          	ld	a5,-72(s0)
    80001760:	00079663          	bnez	a5,8000176c <memcmp+0x40>
    80001764:	00000793          	li	a5,0
    80001768:	0840006f          	j	800017ec <memcmp+0xc0>
  for(;*i==*j;i++,j++,cnt++){
    8000176c:	fe043783          	ld	a5,-32(s0)
    80001770:	0007c703          	lbu	a4,0(a5)
    80001774:	fd843783          	ld	a5,-40(s0)
    80001778:	0007c783          	lbu	a5,0(a5)
    8000177c:	04f71663          	bne	a4,a5,800017c8 <memcmp+0x9c>
    if(!*i||cnt>=n)return 0;
    80001780:	fe043783          	ld	a5,-32(s0)
    80001784:	0007c783          	lbu	a5,0(a5)
    80001788:	00078863          	beqz	a5,80001798 <memcmp+0x6c>
    8000178c:	fe843703          	ld	a4,-24(s0)
    80001790:	fb843783          	ld	a5,-72(s0)
    80001794:	00f76663          	bltu	a4,a5,800017a0 <memcmp+0x74>
    80001798:	00000793          	li	a5,0
    8000179c:	0500006f          	j	800017ec <memcmp+0xc0>
  for(;*i==*j;i++,j++,cnt++){
    800017a0:	fe043783          	ld	a5,-32(s0)
    800017a4:	00178793          	addi	a5,a5,1
    800017a8:	fef43023          	sd	a5,-32(s0)
    800017ac:	fd843783          	ld	a5,-40(s0)
    800017b0:	00178793          	addi	a5,a5,1
    800017b4:	fcf43c23          	sd	a5,-40(s0)
    800017b8:	fe843783          	ld	a5,-24(s0)
    800017bc:	00178793          	addi	a5,a5,1
    800017c0:	fef43423          	sd	a5,-24(s0)
    800017c4:	fa9ff06f          	j	8000176c <memcmp+0x40>
  }
  return *i<*j?-1:1;
    800017c8:	fe043783          	ld	a5,-32(s0)
    800017cc:	0007c703          	lbu	a4,0(a5)
    800017d0:	fd843783          	ld	a5,-40(s0)
    800017d4:	0007c783          	lbu	a5,0(a5)
    800017d8:	00f77663          	bgeu	a4,a5,800017e4 <memcmp+0xb8>
    800017dc:	fff00793          	li	a5,-1
    800017e0:	0080006f          	j	800017e8 <memcmp+0xbc>
    800017e4:	00100793          	li	a5,1
    800017e8:	00000013          	nop
}
    800017ec:	00078513          	mv	a0,a5
    800017f0:	04813403          	ld	s0,72(sp)
    800017f4:	05010113          	addi	sp,sp,80
    800017f8:	00008067          	ret

Disassembly of section .srodata:

0000000080001910 <_ZN8platform5uart0L3irqE>:
    80001910:	000a                	c.slli	zero,0x2
    80001912:	0000                	unimp
    80001914:	0000                	unimp
	...

0000000080001918 <_ZN8platform5uart0L4baseE>:
    80001918:	0000                	unimp
    8000191a:	1000                	addi	s0,sp,32
    8000191c:	0000                	unimp
	...

0000000080001920 <_ZN8platform4plicL4baseE>:
    80001920:	0000                	unimp
    80001922:	0c00                	addi	s0,sp,528
    80001924:	0000                	unimp
	...

0000000080001928 <_ZN8platform4plicL8priorityE>:
    80001928:	0000                	unimp
    8000192a:	0c00                	addi	s0,sp,528
    8000192c:	0000                	unimp
	...

0000000080001930 <_ZN8platform4plicL7pendingE>:
    80001930:	1000                	addi	s0,sp,32
    80001932:	0c00                	addi	s0,sp,528
    80001934:	0000                	unimp
	...

0000000080001938 <_ZN8platform4plicL6enableE>:
    80001938:	2000                	fld	fs0,0(s0)
    8000193a:	0c00                	addi	s0,sp,528
    8000193c:	0000                	unimp
	...

0000000080001940 <_ZN8platform4plicL9thresholdE>:
    80001940:	0000                	unimp
    80001942:	0c20                	addi	s0,sp,536
    80001944:	0000                	unimp
	...

0000000080001948 <_ZN8platform4plicL5claimE>:
    80001948:	0004                	0x4
    8000194a:	0c20                	addi	s0,sp,536
    8000194c:	0000                	unimp
	...

0000000080001950 <_ZN8platform5clintL4baseE>:
    80001950:	0000                	unimp
    80001952:	0200                	addi	s0,sp,256
    80001954:	0000                	unimp
	...

0000000080001958 <_ZN8platform5clintL5mtimeE>:
    80001958:	bff8                	fsd	fa4,248(a5)
    8000195a:	0200                	addi	s0,sp,256
    8000195c:	0000                	unimp
	...

0000000080001960 <_ZN8platform5clintL8mtimecmpE>:
    80001960:	4000                	lw	s0,0(s0)
    80001962:	0200                	addi	s0,sp,256
    80001964:	0000                	unimp
	...

0000000080001968 <_ZN8platform3ramL5startE>:
    80001968:	0000                	unimp
    8000196a:	8000                	0x8000
    8000196c:	0000                	unimp
	...

0000000080001970 <_ZN8platform3ramL4sizeE>:
    80001970:	0000                	unimp
    80001972:	0800                	addi	s0,sp,16
    80001974:	0000                	unimp
	...

0000000080001978 <_ZN8platform3ramL3endE>:
    80001978:	0000                	unimp
    8000197a:	8800                	0x8800
    8000197c:	0000                	unimp
	...

0000000080001980 <_ZN2vmL8pageSizeE>:
    80001980:	1000                	addi	s0,sp,32
    80001982:	0000                	unimp
    80001984:	0000                	unimp
	...

0000000080001988 <_ZN2vmL18pageEntriesPerPageE>:
    80001988:	0200                	addi	s0,sp,256
    8000198a:	0000                	unimp
    8000198c:	0000                	unimp
	...

0000000080001990 <_ZN2vmL7vpnMaskE>:
    80001990:	000001ff          	radd16	gp,zero,zero
    80001994:	0000                	unimp
	...

0000000080001998 <_ZN4procL9UserStackE>:
    80001998:	ffffffff          	0xffffffff
    8000199c:	0000                	unimp
	...

00000000800019a0 <_ZN6kernelL13timerIntervalE>:
    800019a0:	4b40                	lw	s0,20(a4)
    800019a2:	004c                	addi	a1,sp,4
    800019a4:	0000                	unimp
	...

00000000800019a8 <_ZN8platform5uart0L3irqE>:
    800019a8:	000a                	c.slli	zero,0x2
    800019aa:	0000                	unimp
    800019ac:	0000                	unimp
	...

00000000800019b0 <_ZN8platform5uart0L4baseE>:
    800019b0:	0000                	unimp
    800019b2:	1000                	addi	s0,sp,32
    800019b4:	0000                	unimp
	...

00000000800019b8 <_ZN8platform4plicL4baseE>:
    800019b8:	0000                	unimp
    800019ba:	0c00                	addi	s0,sp,528
    800019bc:	0000                	unimp
	...

00000000800019c0 <_ZN8platform4plicL8priorityE>:
    800019c0:	0000                	unimp
    800019c2:	0c00                	addi	s0,sp,528
    800019c4:	0000                	unimp
	...

00000000800019c8 <_ZN8platform4plicL7pendingE>:
    800019c8:	1000                	addi	s0,sp,32
    800019ca:	0c00                	addi	s0,sp,528
    800019cc:	0000                	unimp
	...

00000000800019d0 <_ZN8platform4plicL6enableE>:
    800019d0:	2000                	fld	fs0,0(s0)
    800019d2:	0c00                	addi	s0,sp,528
    800019d4:	0000                	unimp
	...

00000000800019d8 <_ZN8platform4plicL9thresholdE>:
    800019d8:	0000                	unimp
    800019da:	0c20                	addi	s0,sp,536
    800019dc:	0000                	unimp
	...

00000000800019e0 <_ZN8platform4plicL5claimE>:
    800019e0:	0004                	0x4
    800019e2:	0c20                	addi	s0,sp,536
    800019e4:	0000                	unimp
	...

00000000800019e8 <_ZN8platform5clintL4baseE>:
    800019e8:	0000                	unimp
    800019ea:	0200                	addi	s0,sp,256
    800019ec:	0000                	unimp
	...

00000000800019f0 <_ZN8platform5clintL5mtimeE>:
    800019f0:	bff8                	fsd	fa4,248(a5)
    800019f2:	0200                	addi	s0,sp,256
    800019f4:	0000                	unimp
	...

00000000800019f8 <_ZN8platform5clintL8mtimecmpE>:
    800019f8:	4000                	lw	s0,0(s0)
    800019fa:	0200                	addi	s0,sp,256
    800019fc:	0000                	unimp
	...

0000000080001a00 <_ZN8platform3ramL5startE>:
    80001a00:	0000                	unimp
    80001a02:	8000                	0x8000
    80001a04:	0000                	unimp
	...

0000000080001a08 <_ZN8platform3ramL4sizeE>:
    80001a08:	0000                	unimp
    80001a0a:	0800                	addi	s0,sp,16
    80001a0c:	0000                	unimp
	...

0000000080001a10 <_ZN8platform3ramL3endE>:
    80001a10:	0000                	unimp
    80001a12:	8800                	0x8800
    80001a14:	0000                	unimp
	...
